
sc-gd450i-board-test.elf:     file format elf32-littlearm
sc-gd450i-board-test.elf
architecture: arm, flags 0x00000112:
EXEC_P, HAS_SYMS, D_PAGED
start address 0x200001b1

Program Header:
    LOAD off    0x00010000 vaddr 0x10000000 paddr 0x10000000 align 2**16
         filesz 0x0000b000 memsz 0x0000b000 flags rw-
    LOAD off    0x00020000 vaddr 0x20000000 paddr 0x20000000 align 2**16
         filesz 0x000047d0 memsz 0x000069a0 flags rwx
private flags = 5000400: [Version5 EABI] [hard-float ABI]

Sections:
Idx Name          Size      VMA       LMA       File off  Algn  Flags
  0 .vector_table 000001b0  20000000  20000000  00020000  2**4  CONTENTS, ALLOC, LOAD, READONLY, CODE
  1 .boot_code    000000d0  200001b0  200001b0  000201b0  2**4  CONTENTS, ALLOC, LOAD, READONLY, CODE
  2 .text         000040e0  20000280  20000280  00020280  2**4  CONTENTS, ALLOC, LOAD, READONLY, CODE
  3 .data         00000070  20004360  20004360  00024360  2**4  CONTENTS, ALLOC, LOAD, DATA
  4 .vector.bss   00000400  200043d0  200043d0  000243d0  2**2  CONTENTS, ALLOC, LOAD, DATA
  5 .bss          000001d0  200047d0  200047d0  000247d0  2**4  ALLOC
  6 .heap         00001000  200049a0  200049a0  000247d0  2**4  ALLOC
  7 .stack        00001000  200059a0  200059a0  000247d0  2**4  ALLOC
  8 .tcm          0000b000  10000000  10000000  00010000  2**4  CONTENTS, ALLOC, LOAD, DATA
  9 .debug_aranges 00003a58  00000000  00000000  000247d0  2**3  CONTENTS, READONLY, DEBUGGING
 10 .debug_info   000771bf  00000000  00000000  00028228  2**0  CONTENTS, READONLY, DEBUGGING
 11 .debug_abbrev 00011ee1  00000000  00000000  0009f3e7  2**0  CONTENTS, READONLY, DEBUGGING
 12 .debug_line   00044fcd  00000000  00000000  000b12c8  2**0  CONTENTS, READONLY, DEBUGGING
 13 .debug_frame  0000eb88  00000000  00000000  000f6298  2**2  CONTENTS, READONLY, DEBUGGING
 14 .debug_str    0005cf3a  00000000  00000000  00104e20  2**0  CONTENTS, READONLY, DEBUGGING
 15 .ARM.attributes 00000032  00000000  00000000  00161d5a  2**0  CONTENTS, READONLY
 16 .debug_ranges 00003260  00000000  00000000  00161d8c  2**0  CONTENTS, READONLY, DEBUGGING
 17 .debug_macro  0002db19  00000000  00000000  00164fec  2**0  CONTENTS, READONLY, DEBUGGING
 18 .comment      0000007f  00000000  00000000  00192b05  2**0  CONTENTS, READONLY
SYMBOL TABLE:
20000000 l    d  .vector_table	00000000 .vector_table
200001b0 l    d  .boot_code	00000000 .boot_code
20000280 l    d  .text	00000000 .text
20004360 l    d  .data	00000000 .data
200043d0 l    d  .vector.bss	00000000 .vector.bss
200047d0 l    d  .bss	00000000 .bss
200049a0 l    d  .heap	00000000 .heap
200059a0 l    d  .stack	00000000 .stack
10000000 l    d  .tcm	00000000 .tcm
00000000 l    d  .debug_aranges	00000000 .debug_aranges
00000000 l    d  .debug_info	00000000 .debug_info
00000000 l    d  .debug_abbrev	00000000 .debug_abbrev
00000000 l    d  .debug_line	00000000 .debug_line
00000000 l    d  .debug_frame	00000000 .debug_frame
00000000 l    d  .debug_str	00000000 .debug_str
00000000 l    d  .ARM.attributes	00000000 .ARM.attributes
00000000 l    d  .debug_ranges	00000000 .debug_ranges
00000000 l    d  .debug_macro	00000000 .debug_macro
00000000 l    d  .comment	00000000 .comment
00000000 l    df *ABS*	00000000 ./gd32firmware/Library/Firmware/CMSIS/GD/GD32F4xx/Source/GCC/startup_gd32f4xx.o
200001ce l       .boot_code	00000000 WWDGT_IRQHandler
200001ce l       .boot_code	00000000 LVD_IRQHandler
200001ce l       .boot_code	00000000 TAMPER_STAMP_IRQHandler
200001ce l       .boot_code	00000000 RTC_WKUP_IRQHandler
200001ce l       .boot_code	00000000 FMC_IRQHandler
200001ce l       .boot_code	00000000 RCU_CTC_IRQHandler
200001ce l       .boot_code	00000000 EXTI0_IRQHandler
200001ce l       .boot_code	00000000 EXTI1_IRQHandler
200001ce l       .boot_code	00000000 EXTI2_IRQHandler
200001ce l       .boot_code	00000000 EXTI3_IRQHandler
200001ce l       .boot_code	00000000 EXTI4_IRQHandler
200001ce l       .boot_code	00000000 DMA0_Channel0_IRQHandler
200001ce l       .boot_code	00000000 DMA0_Channel1_IRQHandler
200001ce l       .boot_code	00000000 DMA0_Channel2_IRQHandler
200001ce l       .boot_code	00000000 DMA0_Channel3_IRQHandler
200001ce l       .boot_code	00000000 DMA0_Channel4_IRQHandler
200001ce l       .boot_code	00000000 DMA0_Channel5_IRQHandler
200001ce l       .boot_code	00000000 DMA0_Channel6_IRQHandler
200001ce l       .boot_code	00000000 ADC_IRQHandler
200001ce l       .boot_code	00000000 CAN0_TX_IRQHandler
200001ce l       .boot_code	00000000 CAN0_RX0_IRQHandler
200001ce l       .boot_code	00000000 CAN0_RX1_IRQHandler
200001ce l       .boot_code	00000000 CAN0_EWMC_IRQHandler
200001ce l       .boot_code	00000000 EXTI5_9_IRQHandler
200001ce l       .boot_code	00000000 TIMER0_BRK_TIMER8_IRQHandler
200001ce l       .boot_code	00000000 TIMER0_UP_TIMER9_IRQHandler
200001ce l       .boot_code	00000000 TIMER0_TRG_CMT_TIMER10_IRQHandler
200001ce l       .boot_code	00000000 TIMER0_CC_IRQHandler
200001ce l       .boot_code	00000000 TIMER1_IRQHandler
200001ce l       .boot_code	00000000 TIMER2_IRQHandler
200001ce l       .boot_code	00000000 TIMER3_IRQHandler
200001ce l       .boot_code	00000000 I2C0_EV_IRQHandler
200001ce l       .boot_code	00000000 I2C0_ER_IRQHandler
200001ce l       .boot_code	00000000 I2C1_EV_IRQHandler
200001ce l       .boot_code	00000000 I2C1_ER_IRQHandler
200001ce l       .boot_code	00000000 SPI0_IRQHandler
200001ce l       .boot_code	00000000 SPI1_IRQHandler
200001ce l       .boot_code	00000000 USART0_IRQHandler
200001ce l       .boot_code	00000000 USART1_IRQHandler
200001ce l       .boot_code	00000000 USART2_IRQHandler
200001ce l       .boot_code	00000000 EXTI10_15_IRQHandler
200001ce l       .boot_code	00000000 RTC_Alarm_IRQHandler
200001ce l       .boot_code	00000000 USBFS_WKUP_IRQHandler
200001ce l       .boot_code	00000000 TIMER7_BRK_TIMER11_IRQHandler
200001ce l       .boot_code	00000000 TIMER7_UP_TIMER12_IRQHandler
200001ce l       .boot_code	00000000 TIMER7_TRG_CMT_TIMER13_IRQHandler
200001ce l       .boot_code	00000000 TIMER7_CC_IRQHandler
200001ce l       .boot_code	00000000 DMA0_Channel7_IRQHandler
200001ce l       .boot_code	00000000 EXMC_IRQHandler
200001ce l       .boot_code	00000000 SDIO_IRQHandler
200001ce l       .boot_code	00000000 TIMER4_IRQHandler
200001ce l       .boot_code	00000000 SPI2_IRQHandler
200001ce l       .boot_code	00000000 UART3_IRQHandler
200001ce l       .boot_code	00000000 UART4_IRQHandler
200001ce l       .boot_code	00000000 TIMER5_DAC_IRQHandler
200001ce l       .boot_code	00000000 TIMER6_IRQHandler
200001ce l       .boot_code	00000000 DMA1_Channel0_IRQHandler
200001ce l       .boot_code	00000000 DMA1_Channel1_IRQHandler
200001ce l       .boot_code	00000000 DMA1_Channel2_IRQHandler
200001ce l       .boot_code	00000000 DMA1_Channel3_IRQHandler
200001ce l       .boot_code	00000000 DMA1_Channel4_IRQHandler
200001ce l       .boot_code	00000000 ENET_IRQHandler
200001ce l       .boot_code	00000000 ENET_WKUP_IRQHandler
200001ce l       .boot_code	00000000 CAN1_TX_IRQHandler
200001ce l       .boot_code	00000000 CAN1_RX0_IRQHandler
200001ce l       .boot_code	00000000 CAN1_RX1_IRQHandler
200001ce l       .boot_code	00000000 CAN1_EWMC_IRQHandler
200001ce l       .boot_code	00000000 USBFS_IRQHandler
200001ce l       .boot_code	00000000 DMA1_Channel5_IRQHandler
200001ce l       .boot_code	00000000 DMA1_Channel6_IRQHandler
200001ce l       .boot_code	00000000 DMA1_Channel7_IRQHandler
200001ce l       .boot_code	00000000 USART5_IRQHandler
200001ce l       .boot_code	00000000 I2C2_EV_IRQHandler
200001ce l       .boot_code	00000000 I2C2_ER_IRQHandler
200001ce l       .boot_code	00000000 USBHS_EP1_Out_IRQHandler
200001ce l       .boot_code	00000000 USBHS_EP1_In_IRQHandler
200001ce l       .boot_code	00000000 USBHS_WKUP_IRQHandler
200001ce l       .boot_code	00000000 USBHS_IRQHandler
200001ce l       .boot_code	00000000 DCI_IRQHandler
200001ce l       .boot_code	00000000 TRNG_IRQHandler
200001ce l       .boot_code	00000000 FPU_IRQHandler
200001ce l       .boot_code	00000000 UART6_IRQHandler
200001ce l       .boot_code	00000000 UART7_IRQHandler
200001ce l       .boot_code	00000000 SPI3_IRQHandler
200001ce l       .boot_code	00000000 SPI4_IRQHandler
200001ce l       .boot_code	00000000 SPI5_IRQHandler
200001ce l       .boot_code	00000000 TLI_IRQHandler
200001ce l       .boot_code	00000000 TLI_ER_IRQHandler
200001ce l       .boot_code	00000000 IPA_IRQHandler
200001ce l       .boot_code	00000000 Default_Handler
00000000 l    df *ABS*	00000000 system_gd32f4xx.c
20003f20 l     F .text	00000030 zero_section
20003f50 l     F .text	0000000c system_clock_config
20003f5c l     F .text	00000120 system_clock_200m_25m_hxtal
00000000 l    df *ABS*	00000000 crtstuff.c
20004334 l     O .text	00000000 __EH_FRAME_BEGIN__
20004360 l     O .data	00000000 __JCR_LIST__
20000280 l     F .text	00000000 __do_global_dtors_aux
200047d0 l       .bss	00000001 completed.9790
20004350 l     O .text	00000000 __do_global_dtors_aux_fini_array_entry
200002a4 l     F .text	00000000 frame_dummy
200047d4 l       .bss	00000018 object.9795
2000434c l     O .text	00000000 __frame_dummy_init_array_entry
00000000 l    df *ABS*	00000000 main.c
200047ec l     O .bss	00000004 g_uwboadTaskID
00000000 l    df *ABS*	00000000 ./kernel/cpu/arm/cortex-m4/los_dispatch_gcc.o
e000ed04 l       *ABS*	00000000 OS_NVIC_INT_CTRL
e000ed20 l       *ABS*	00000000 OS_NVIC_SYSPRI2
f0f00000 l       *ABS*	00000000 OS_NVIC_PENDSV_PRI
10000000 l       *ABS*	00000000 OS_NVIC_PENDSVSET
00000010 l       *ABS*	00000000 OS_TASK_STATUS_RUNNING
2000044c l       .text	00000000 TaskSwitch
00000000 l    df *ABS*	00000000 los_hw.c
00000000 l    df *ABS*	00000000 los_hw_tick.c
00000000 l    df *ABS*	00000000 los_hwi.c
00000000 l    df *ABS*	00000000 los_config.c
00000000 l    df *ABS*	00000000 los_misc.c
00000000 l    df *ABS*	00000000 los_membox.c
20000988 l     F .text	00000070 osCheckBoxMem
00000000 l    df *ABS*	00000000 los_memory.c
20000b76 l     F .text	00000032 LOS_ListAdd
20000ba8 l     F .text	0000001e LOS_ListTailInsert
20000bc6 l     F .text	00000034 LOS_ListDelete
20000bfa l     F .text	0000002e LOS_DLnkNextMultiHead
20000c58 l     F .text	00000064 osMemFindSuitableFreeBlock
20000cbc l     F .text	00000026 osMemClearNode
20000ce2 l     F .text	0000003e osMemMergeNode
20000d20 l     F .text	00000090 osMemSpitNode
20000db0 l     F .text	000000f2 osMemFreeNode
20000ea2 l     F .text	00000068 osMemIsNodeValid
20000f0a l     F .text	000000d2 osMemCheckUsedNode
20000fdc l     F .text	00000040 osMemSetMagicNumAndTaskid
2000101c l     F .text	00000078 osMemAllocWithCheck
00000000 l    df *ABS*	00000000 los_memstat.c
00000000 l    df *ABS*	00000000 los_multipledlinkhead.c
20001370 l     F .text	00000020 LOS_ListInit
20001390 l     F .text	000001cc LOS_Log2
00000000 l    df *ABS*	00000000 los_mux.c
200015d2 l     F .text	00000020 LOS_ListInit
200015f2 l     F .text	00000032 LOS_ListAdd
20001624 l     F .text	0000001e LOS_ListTailInsert
00000000 l    df *ABS*	00000000 los_queue.c
200016c4 l     F .text	00000020 LOS_ListInit
200016e4 l     F .text	00000032 LOS_ListAdd
20001716 l     F .text	0000001e LOS_ListTailInsert
20001734 l     F .text	00000034 LOS_ListDelete
20001768 l     F .text	00000024 LOS_ListEmpty
20001880 l     F .text	000000b8 osQueuePend
20001938 l     F .text	0000007e osQueueWakeUp
00000000 l    df *ABS*	00000000 los_sem.c
20001d90 l     F .text	00000020 LOS_ListInit
20001db0 l     F .text	00000032 LOS_ListAdd
20001de2 l     F .text	0000001e LOS_ListTailInsert
20001e00 l     F .text	00000034 LOS_ListDelete
20001e34 l     F .text	00000024 LOS_ListEmpty
00000000 l    df *ABS*	00000000 los_priqueue.c
20001fd8 l     F .text	00000020 LOS_ListInit
20001ff8 l     F .text	00000032 LOS_ListAdd
2000202a l     F .text	0000001e LOS_ListTailInsert
20002048 l     F .text	00000034 LOS_ListDelete
2000207c l     F .text	00000024 LOS_ListEmpty
00000000 l    df *ABS*	00000000 los_swtmr.c
200047f8 l     O .bss	00000004 m_uwSwTmrHandlerQueue
20002428 l     F .text	0000002c osSwtmrDelete
20002454 l     F .text	000000c4 osSwTmrTimeoutHandle
00000000 l    df *ABS*	00000000 los_task.c
20002544 l     F .text	00000020 LOS_ListInit
20002564 l     F .text	00000032 LOS_ListAdd
20002596 l     F .text	0000001e LOS_ListTailInsert
200025b4 l     F .text	00000034 LOS_ListDelete
200025e8 l     F .text	00000024 LOS_ListEmpty
00000000 l    df *ABS*	00000000 los_tick.c
00000000 l    df *ABS*	00000000 los_timeslice.c
00000000 l    df *ABS*	00000000 gd32f4xx_it.c
00000000 l    df *ABS*	00000000 gd32f450i_eval.c
20004364 l     O .data	0000000c GPIO_PORT
20004370 l     O .data	0000000c GPIO_PIN
2000437c l     O .data	00000002 COM_CLK
20004380 l     O .data	00000004 COM_TX_PIN
20004384 l     O .data	00000004 COM_RX_PIN
20004388 l     O .data	00000006 GPIO_CLK
20004390 l     O .data	0000000c KEY_PORT
2000439c l     O .data	0000000c KEY_PIN
200043a8 l     O .data	00000006 KEY_CLK
200043b0 l     O .data	0000000c KEY_EXTI_LINE
200043bc l     O .data	00000003 KEY_PORT_SOURCE
200043c0 l     O .data	00000003 KEY_PIN_SOURCE
200043c4 l     O .data	00000003 KEY_IRQn
00000000 l    df *ABS*	00000000 gd32f4xx_exti.c
00000000 l    df *ABS*	00000000 gd32f4xx_gpio.c
00000000 l    df *ABS*	00000000 gd32f4xx_misc.c
00000000 l    df *ABS*	00000000 gd32f4xx_rcu.c
00000000 l    df *ABS*	00000000 gd32f4xx_syscfg.c
00000000 l    df *ABS*	00000000 gd32f4xx_usart.c
00000000 l    df *ABS*	00000000 los_bsp_adapter.c
2000407c l     F .text	00000054 NVIC_SetPriority
200040d0 l     F .text	00000044 SysTick_Config
20004800 l     O .bss	00000004 g_ucycle_per_tick
00000000 l    df *ABS*	00000000 los_bsp_key.c
00000000 l    df *ABS*	00000000 los_bsp_led.c
00000000 l    df *ABS*	00000000 los_bsp_uart.c
00000000 l    df *ABS*	00000000 memset.c
00000000 l    df *ABS*	00000000 c:/microsemi/softconsole_v5.2.0.12/arm-none-eabi-gcc/bin/../lib/gcc/arm-none-eabi/6.3.1/thumb/v7e-m/fpv4-sp/hard/crti.o
00000000 l    df *ABS*	00000000 c:/microsemi/softconsole_v5.2.0.12/arm-none-eabi-gcc/bin/../lib/gcc/arm-none-eabi/6.3.1/thumb/v7e-m/fpv4-sp/hard/crtn.o
00000000 l    df *ABS*	00000000 crtstuff.c
20004360 l     O .data	00000000 __JCR_END__
00000000 l    df *ABS*	00000000 cmsis_liteos.c
00000000 l    df *ABS*	00000000 los_event.c
00000000 l    df *ABS*	00000000 los_sys.c
00000000 l    df *ABS*	00000000 gd32f4xx_enet_eval.c
00000000 l    df *ABS*	00000000 hello_gigadevice.c
00000000 l    df *ABS*	00000000 netconf.c
00000000 l    df *ABS*	00000000 tcp_client.c
00000000 l    df *ABS*	00000000 udp_echo.c
00000000 l    df *ABS*	00000000 auth.c
00000000 l    df *ABS*	00000000 chap.c
00000000 l    df *ABS*	00000000 chpms.c
00000000 l    df *ABS*	00000000 fsm.c
00000000 l    df *ABS*	00000000 ipcp.c
00000000 l    df *ABS*	00000000 lcp.c
00000000 l    df *ABS*	00000000 magic.c
00000000 l    df *ABS*	00000000 md5.c
00000000 l    df *ABS*	00000000 pap.c
00000000 l    df *ABS*	00000000 ppp.c
00000000 l    df *ABS*	00000000 ppp_oe.c
00000000 l    df *ABS*	00000000 randm.c
00000000 l    df *ABS*	00000000 vj.c
00000000 l    df *ABS*	00000000 etharp.c
00000000 l    df *ABS*	00000000 slipif.c
00000000 l    df *ABS*	00000000 autoip.c
00000000 l    df *ABS*	00000000 icmp.c
00000000 l    df *ABS*	00000000 igmp.c
00000000 l    df *ABS*	00000000 inet.c
00000000 l    df *ABS*	00000000 inet_chksum.c
00000000 l    df *ABS*	00000000 ip.c
00000000 l    df *ABS*	00000000 ip_addr.c
00000000 l    df *ABS*	00000000 ip_frag.c
00000000 l    df *ABS*	00000000 def.c
00000000 l    df *ABS*	00000000 dhcp.c
00000000 l    df *ABS*	00000000 dns.c
00000000 l    df *ABS*	00000000 init.c
00000000 l    df *ABS*	00000000 lwip_timers.c
00000000 l    df *ABS*	00000000 mem.c
00000000 l    df *ABS*	00000000 memp.c
00000000 l    df *ABS*	00000000 netif.c
00000000 l    df *ABS*	00000000 pbuf.c
00000000 l    df *ABS*	00000000 raw.c
00000000 l    df *ABS*	00000000 stats.c
00000000 l    df *ABS*	00000000 sys.c
00000000 l    df *ABS*	00000000 tcp.c
00000000 l    df *ABS*	00000000 tcp_in.c
00000000 l    df *ABS*	00000000 tcp_out.c
00000000 l    df *ABS*	00000000 udp.c
00000000 l    df *ABS*	00000000 api_lib.c
00000000 l    df *ABS*	00000000 api_msg.c
00000000 l    df *ABS*	00000000 err.c
00000000 l    df *ABS*	00000000 netbuf.c
00000000 l    df *ABS*	00000000 netdb.c
00000000 l    df *ABS*	00000000 netifapi.c
00000000 l    df *ABS*	00000000 sockets.c
00000000 l    df *ABS*	00000000 tcpip.c
00000000 l    df *ABS*	00000000 ethernetif.c
00000000 l    df *ABS*	00000000 sys_arch.c
00000000 l    df *ABS*	00000000 gd32f4xx_adc.c
00000000 l    df *ABS*	00000000 gd32f4xx_can.c
00000000 l    df *ABS*	00000000 gd32f4xx_crc.c
00000000 l    df *ABS*	00000000 gd32f4xx_ctc.c
00000000 l    df *ABS*	00000000 gd32f4xx_dac.c
00000000 l    df *ABS*	00000000 gd32f4xx_dbg.c
00000000 l    df *ABS*	00000000 gd32f4xx_dci.c
00000000 l    df *ABS*	00000000 gd32f4xx_dma.c
00000000 l    df *ABS*	00000000 gd32f4xx_enet.c
00000000 l    df *ABS*	00000000 gd32f4xx_exmc.c
00000000 l    df *ABS*	00000000 gd32f4xx_fmc.c
00000000 l    df *ABS*	00000000 gd32f4xx_fwdgt.c
00000000 l    df *ABS*	00000000 gd32f4xx_i2c.c
00000000 l    df *ABS*	00000000 gd32f4xx_ipa.c
00000000 l    df *ABS*	00000000 gd32f4xx_iref.c
00000000 l    df *ABS*	00000000 gd32f4xx_pmu.c
00000000 l    df *ABS*	00000000 gd32f4xx_rtc.c
00000000 l    df *ABS*	00000000 gd32f4xx_sdio.c
00000000 l    df *ABS*	00000000 gd32f4xx_spi.c
00000000 l    df *ABS*	00000000 gd32f4xx_timer.c
00000000 l    df *ABS*	00000000 gd32f4xx_tli.c
00000000 l    df *ABS*	00000000 gd32f4xx_trng.c
00000000 l    df *ABS*	00000000 gd32f4xx_wwdgt.c
00000000 l    df *ABS*	00000000 newlib_stubs.c
00000000 l    df *ABS*	00000000 los_api_dynamic_mem.c
00000000 l    df *ABS*	00000000 los_api_event.c
00000000 l    df *ABS*	00000000 los_api_interrupt.c
00000000 l    df *ABS*	00000000 los_api_list.c
00000000 l    df *ABS*	00000000 los_api_msgqueue.c
00000000 l    df *ABS*	00000000 los_api_mutex.c
00000000 l    df *ABS*	00000000 los_api_sem.c
00000000 l    df *ABS*	00000000 los_api_static_mem.c
00000000 l    df *ABS*	00000000 los_api_systick.c
00000000 l    df *ABS*	00000000 los_api_task.c
00000000 l    df *ABS*	00000000 los_api_timer.c
00000000 l    df *ABS*	00000000 los_cmsis_main.c
00000000 l    df *ABS*	00000000 los_demo_entry.c
00000000 l    df *ABS*	00000000 _arm_addsubdf3.o
00000000 l    df *ABS*	00000000 _arm_muldivdf3.o
00000000 l    df *ABS*	00000000 _aeabi_uldivmod.o
00000000 l    df *ABS*	00000000 libgcc2.c
00000000 l    df *ABS*	00000000 libgcc2.c
00000000 l    df *ABS*	00000000 _arm_fixunsdfsi.o
00000000 l    df *ABS*	00000000 errno.c
00000000 l    df *ABS*	00000000 exit.c
00000000 l    df *ABS*	00000000 init.c
00000000 l    df *ABS*	00000000 malloc.c
00000000 l    df *ABS*	00000000 memcmp.c
00000000 l    df *ABS*	00000000 memcpy-stub.c
00000000 l    df *ABS*	00000000 nano-mallocr.c
00000000 l    df *ABS*	00000000 nano-mallocr.c
00000000 l    df *ABS*	00000000 printf.c
00000000 l    df *ABS*	00000000 puts.c
00000000 l    df *ABS*	00000000 sbrkr.c
00000000 l    df *ABS*	00000000 vsprintf.c
00000000 l    df *ABS*	00000000 wbuf.c
00000000 l    df *ABS*	00000000 wsetup.c
00000000 l    df *ABS*	00000000 fflush.c
00000000 l    df *ABS*	00000000 findfp.c
00000000 l    df *ABS*	00000000 fwalk.c
00000000 l    df *ABS*	00000000 makebuf.c
00000000 l    df *ABS*	00000000 mlock.c
00000000 l    df *ABS*	00000000 nano-vfprintf.c
00000000 l    df *ABS*	00000000 nano-vfprintf.c
00000000 l    df *ABS*	00000000 nano-vfprintf_i.c
00000000 l    df *ABS*	00000000 reent.c
00000000 l    df *ABS*	00000000 stdio.c
00000000 l    df *ABS*	00000000 closer.c
00000000 l    df *ABS*	00000000 fstatr.c
00000000 l    df *ABS*	00000000 fvwrite.c
00000000 l    df *ABS*	00000000 isattyr.c
00000000 l    df *ABS*	00000000 lseekr.c
00000000 l    df *ABS*	00000000 memmove.c
00000000 l    df *ABS*	00000000 nano-mallocr.c
00000000 l    df *ABS*	00000000 readr.c
00000000 l    df *ABS*	00000000 nano-mallocr.c
00000000 l    df *ABS*	00000000 
2002f800 l       *ABS*	00000000 __main_stack_start
20004350 l       .text	00000000 __init_array_end
2000434c l       .text	00000000 __preinit_array_end
2000434c l       .text	00000000 __init_array_start
2000434c l       .text	00000000 __preinit_array_start
200041a0 g     F .text	00000016 LOS_EvbKeyInit
20003e46 g     F .text	0000003c usart_transmit_config
20004244 g     F .text	00000020 LOS_EvbUartInit
200001c8  w    F .boot_code	00000000 DebugMon_Handler
20003044 g     F .text	00000098 LOS_TaskYield
2000050c g     F .text	0000000a osTaskExit
20000aac g     F .text	00000068 LOS_MemboxAlloc
20003108 g     F .text	00000044 LOS_TaskUnlock
20002724 g     F .text	00000064 osTimerListDelete
200007a4 g     F .text	00000020 LOS_SetTickSycle
2000358c g     F .text	0000009c gpio_mode_set
200033a4 g     F .text	000000d8 gd_eval_com_init
2000485c g     O .bss	00000008 g_stUnusedSemList
20000000 g       *ABS*	00000000 __vector_table_load
20003202 g     F .text	00000006 HardFault_Handler
20000876 g     F .text	00000018 LOS_Start
200041d0 g     F .text	00000064 LOS_EvbLedControl
20000890 g     F .text	00000098 osMain
20004360 g       *ABS*	00000000 __data_load
20004154 g     F .text	0000000c SysTick_Handler
10000000 g       *ABS*	00000000 TCM_START_ADDRESS
20004360 g       *ABS*	00000000 _sidata
20000436 g     F .text	00000000 PendSV_Handler
200031f4 g     F .text	0000000e NMI_Handler
20004360 g       .text	00000000 __exidx_end
20003178 g     F .text	00000020 osTimesliceInit
20004948 g     O .bss	00000004 g_uwIdleTaskID
20004808 g     O .bss	00000004 m_aucSysMem0
20003964 g     F .text	00000180 rcu_clock_freq_get
20004360 g       .text	00000000 _etext
200047d0 g       .bss	00000000 _sbss
20004864 g     O .bss	00000004 g_pstAllSem
20000280 g       .text	00000000 __text_start
20002194 g     F .text	00000050 LOS_PriqueueSize
200004c0 g     F .text	0000004c LOS_Schedule
20003e20 g     F .text	00000026 usart_enable
2000486c g     O .bss	00000004 m_pstSwtmrFreeList
20001094 g     F .text	000000dc LOS_MemInit
200001b0 g       .vector_table	00000000 _evector_table
2000260c g     F .text	00000006 osIdleTask
20001170 g     F .text	00000044 LOS_MemAlloc
2000494c g     O .bss	00000004 g_uwSwtmrTaskID
20002614 g     F .text	00000110 osTaskAdd2TimerList
20001ed4 g     F .text	00000104 LOS_SemPost
2000391c g     F .text	00000048 rcu_periph_reset_disable
20003214 g     F .text	00000006 UsageFault_Handler
0002f800 g       *ABS*	00000000 RAM_SIZE
200047d0 g       .bss	00000000 __bss_start__
20001e58 g     F .text	0000007c osSemInit
20001592 g     F .text	00000040 LOS_DLnkMultiHead
20003794 g     F .text	000000fc nvic_irq_enable
00000000 g       *ABS*	00000000 __DYNAMIC
20004360 g       .data	00000000 _sdata
20004998 g     O .bss	00000008 g_stTaskTimeSlice
200003fa g       .text	00000000 osDisableIRQ
20004988 g     O .bss	00000008 g_ullTickCount
20000414 g       .text	00000000 osTaskSchedule
20004950 g     O .bss	00000008 g_stTskRecyleList
20000518 g     F .text	00000248 osTskStackInit
20004804 g     O .bss	00000004 g_uwCyclesPerTick
20004958 g     O .bss	00000008 g_stTskSortLink
200032f8 g     F .text	000000ac gd_eval_key_init
2000347c g     F .text	000000f0 exti_init
20004360 g       .text	00000000 __exidx_start
200030dc g     F .text	0000002c LOS_TaskLock
00001000 g       *ABS*	00000000 MAIN_STACK_SIZE
200049a0 g       .bss	00000000 __bss_end
200047f0 g     O .bss	00000004 g_vuwIntCount
200019b8 g     F .text	000000a4 LOS_QueueCreate
20003628 g     F .text	0000009e gpio_output_options_set
20002518 g     F .text	0000002c osSwtmrScan
20004114 g     F .text	00000040 osTickStart
20004334 g     F .text	00000000 _init
200049a0 g       .bss	00000000 _ebss
200001b0 g     F .boot_code	00000000 Reset_Handler
20003198 g     F .text	0000005c osTimesliceCheck
20000000 g       .vector_table	00000000 __vector_table_vma_base_address
200003fe g       .text	00000000 LOS_IntLock
20002374 g     F .text	000000b4 osSwTmrStart
00001000 g       *ABS*	00000000 MIN_SIZE_HEAP
200007e8 g     F .text	00000014 osGetVectorAddr
20004960 g     O .bss	00000004 g_pstTaskCBArray
2000321c g     F .text	00000074 gd_eval_led_init
20001bec g     F .text	000001a4 LOS_QueueWrite
20003e82 g     F .text	0000003c usart_receive_config
20004964 g     O .bss	00000004 g_uwTskMaxNum
20002144 g     F .text	00000050 LOS_PriqueueTop
200041b6 g     F .text	0000001a LOS_EvbLedInit
20004968 g     O .bss	00000002 g_usLosTaskLock
10000000 g     O .tcm	0000b000 g_ucMemStart
2000496c g     O .bss	00000008 g_stLosTask
2000178c g     F .text	00000048 osQueueInit
2000484c g     O .bss	00000004 g_pstAllMux
20001a5c g     F .text	00000190 LOS_QueueRead
2000155c g     F .text	00000036 LOS_DLnkInitMultiHead
20004850 g     O .bss	00000008 g_stUnusedMuxList
200049a0 g       .bss	00000000 __bss_end__
2000480c g     O .bss	00000040 g_TskMemUsedInfo
20003890 g     F .text	00000046 rcu_periph_clock_enable
200049a0 g       .bss	00000000 __end
20004330 g     O .text	00000001 g_use_ram_vect
200012c4 g     F .text	0000005c osTaskMemUsedInc
20003290 g     F .text	00000034 gd_eval_led_on
200004b4 g     F .text	0000000c osSchedule
20004870 g     O .bss	00000004 m_pstSwtmrCBArray
20003cc4 g     F .text	0000015c usart_baudrate_set
200002ec g     F .text	00000030 LOS_BoadExampleTskfunc
20000000 g       .vector_table	00000000 __vector_table_start
200007fc g     F .text	00000038 osHwiInit
200017d4 g     F .text	000000ac osQueueCreate
200047fc g     O .bss	00000004 g_pfnTskSwitchHook
20000000 g       *ABS*	00000000 RAM_START_ADDRESS
20004990 g     O .bss	00000004 g_uwCyclePerSec
200047d0 g       .bss	00000000 __bss_start
200042b8 g     F .text	00000010 memset
20003ebe g     F .text	00000024 usart_data_transmit
20003208 g     F .text	00000006 MemManage_Handler
20000364 g     F .text	00000032 main
20002288 g     F .text	000000ec osSwTmrInit
20000420 g     F .text	00000000 SVC_Handler
20000280 g       *ABS*	00000000 __text_load
2000212c g     F .text	00000016 LOS_PriqueueDequeue
200049a0 g       .heap	00000000 __heap_start__
20003ae4 g     F .text	000000dc syscfg_exti_line_config
20000406 g       .text	00000000 LOS_IntUnLock
200021e4 g     F .text	00000058 osSwTmrTask
20004160 g     F .text	0000002c LosAdapIntInit
00010000 g       *ABS*	00000000 TCM_SIZE
200001dc g     F .boot_code	000000a4 SystemInit
20002bd4 g     F .text	000000e8 osTaskEntry
20004340 g     F .text	00000000 _fini
20004974 g     O .bss	00000004 g_bTaskScheduled
200043d0 g     O .vector.bss	00000400 m_pstHwiForm
20003bc0 g     F .text	00000104 usart_deinit
200032c4 g     F .text	00000034 gd_eval_led_off
20004868 g     O .bss	00000004 g_pstLosPriorityQueueList
2000223c g     F .text	0000004c osSwTmrTaskCreate
200038d6 g     F .text	00000046 rcu_periph_reset_enable
2000094a g     F .text	0000003c LOS_Align
2000124a g     F .text	00000078 LOS_MemFree
20001320 g     F .text	00000050 osTaskMemUsedDec
20000860 g     F .text	00000016 LOS_EnableTick
20001644 g     F .text	00000080 osMuxInit
20004234 g     F .text	0000000e led_init
20000928 g     F .text	00000022 LOS_KernelInit
20004264 g     F .text	00000054 LOS_EvbUartWriteStr
200007da g     F .text	0000000e osHwiDefaultHandler
200069a0 g       .stack	00000000 _estack
2000031c g     F .text	00000048 LOS_BoadExampleEntry
20000c28 g     F .text	00000030 osMemSystemInit
2000314c g     F .text	0000002c osTickHandler
200059a0 g       .heap	00000000 _eheap
20002a84 g     F .text	00000150 osTaskSelfDelete
200043d0 g       .data	00000000 _edata
200049a0 g       .bss	00000000 _end
20000b14 g     F .text	00000062 LOS_MemboxFree
20004978 g     O .bss	00000008 g_stLosFreeTask
2000418c g     F .text	00000014 LOS_EvbSetup
200011b4 g     F .text	00000096 LOS_MemAllocAlign
20002fac g     F .text	00000098 LOS_TaskDelay
200007c4 g     F .text	00000016 osIntNumGet
20002a34 g     F .text	00000050 osIdleTaskCreate
20004858 g     O .bss	00000004 g_pstAllQueue
2000356c g     F .text	00000020 exti_interrupt_flag_clear
20000000 g     O .vector_table	00000000 g_pfnVectors
20004874 g     O .bss	00000004 m_pstSwtmrSortList
20004994 g     O .bss	00000004 g_uwTicksPerSec
20002104 g     F .text	00000028 LOS_PriqueueEnqueue
2000320e g     F .text	00000006 BusFault_Handler
20002cbc g     F .text	00000228 LOS_TaskCreateOnly
20003ee2 g     F .text	0000003e usart_flag_get
200009f8 g     F .text	000000b4 LOS_MemboxInit
20000760 g     F .text	00000044 LOS_TickHandler
200036c6 g     F .text	000000cc gpio_af_set
20004878 g     O .bss	000000d0 m_aucSwTmrHandlerPool
200047f4 g     O .bss	00000004 g_sys_mem_addr_end
2000040e g       .text	00000000 LOS_IntRestore
20004360 g       .data	00000000 __data_start
20002ee4 g     F .text	000000c8 LOS_TaskCreate
200059a0 g       .stack	00000000 __stack_start__
200020a0 g     F .text	00000064 osPriqueueInit
20000398 g       .text	00000000 LOS_StartToRun
20002788 g     F .text	00000150 osTaskScan
20004980 g     O .bss	00000008 g_stTaskTimerList
200028d8 g     F .text	0000015c osTaskInit
20000834 g     F .text	0000002c osRegister
200003f4 g       .text	00000000 LOS_IntNumGet



Disassembly of section .vector_table:

20000000 <__vector_table_start>:
__vector_table_start():
20000000:	200069a0 	.word	0x200069a0
20000004:	200001b1 	.word	0x200001b1
20000008:	200031f5 	.word	0x200031f5
2000000c:	20003203 	.word	0x20003203
20000010:	20003209 	.word	0x20003209
20000014:	2000320f 	.word	0x2000320f
20000018:	20003215 	.word	0x20003215
	...
2000002c:	20000421 	.word	0x20000421
20000030:	200001c9 	.word	0x200001c9
20000034:	00000000 	.word	0x00000000
20000038:	20000437 	.word	0x20000437
2000003c:	20004155 	.word	0x20004155
20000040:	200001ce 	.word	0x200001ce
20000044:	200001ce 	.word	0x200001ce
20000048:	200001ce 	.word	0x200001ce
2000004c:	200001ce 	.word	0x200001ce
20000050:	200001ce 	.word	0x200001ce
20000054:	200001ce 	.word	0x200001ce
20000058:	200001ce 	.word	0x200001ce
2000005c:	200001ce 	.word	0x200001ce
20000060:	200001ce 	.word	0x200001ce
20000064:	200001ce 	.word	0x200001ce
20000068:	200001ce 	.word	0x200001ce
2000006c:	200001ce 	.word	0x200001ce
20000070:	200001ce 	.word	0x200001ce
20000074:	200001ce 	.word	0x200001ce
20000078:	200001ce 	.word	0x200001ce
2000007c:	200001ce 	.word	0x200001ce
20000080:	200001ce 	.word	0x200001ce
20000084:	200001ce 	.word	0x200001ce
20000088:	200001ce 	.word	0x200001ce
2000008c:	200001ce 	.word	0x200001ce
20000090:	200001ce 	.word	0x200001ce
20000094:	200001ce 	.word	0x200001ce
20000098:	200001ce 	.word	0x200001ce
2000009c:	200001ce 	.word	0x200001ce
200000a0:	200001ce 	.word	0x200001ce
200000a4:	200001ce 	.word	0x200001ce
200000a8:	200001ce 	.word	0x200001ce
200000ac:	200001ce 	.word	0x200001ce
200000b0:	200001ce 	.word	0x200001ce
200000b4:	200001ce 	.word	0x200001ce
200000b8:	200001ce 	.word	0x200001ce
200000bc:	200001ce 	.word	0x200001ce
200000c0:	200001ce 	.word	0x200001ce
200000c4:	200001ce 	.word	0x200001ce
200000c8:	200001ce 	.word	0x200001ce
200000cc:	200001ce 	.word	0x200001ce
200000d0:	200001ce 	.word	0x200001ce
200000d4:	200001ce 	.word	0x200001ce
200000d8:	200001ce 	.word	0x200001ce
200000dc:	200001ce 	.word	0x200001ce
200000e0:	200001ce 	.word	0x200001ce
200000e4:	200001ce 	.word	0x200001ce
200000e8:	200001ce 	.word	0x200001ce
200000ec:	200001ce 	.word	0x200001ce
200000f0:	200001ce 	.word	0x200001ce
200000f4:	200001ce 	.word	0x200001ce
200000f8:	200001ce 	.word	0x200001ce
200000fc:	200001ce 	.word	0x200001ce
20000100:	200001ce 	.word	0x200001ce
20000104:	200001ce 	.word	0x200001ce
20000108:	200001ce 	.word	0x200001ce
2000010c:	200001ce 	.word	0x200001ce
20000110:	200001ce 	.word	0x200001ce
20000114:	200001ce 	.word	0x200001ce
20000118:	200001ce 	.word	0x200001ce
2000011c:	200001ce 	.word	0x200001ce
20000120:	200001ce 	.word	0x200001ce
20000124:	200001ce 	.word	0x200001ce
20000128:	200001ce 	.word	0x200001ce
2000012c:	200001ce 	.word	0x200001ce
20000130:	200001ce 	.word	0x200001ce
20000134:	200001ce 	.word	0x200001ce
20000138:	200001ce 	.word	0x200001ce
2000013c:	200001ce 	.word	0x200001ce
20000140:	200001ce 	.word	0x200001ce
20000144:	200001ce 	.word	0x200001ce
20000148:	200001ce 	.word	0x200001ce
2000014c:	200001ce 	.word	0x200001ce
20000150:	200001ce 	.word	0x200001ce
20000154:	200001ce 	.word	0x200001ce
20000158:	200001ce 	.word	0x200001ce
2000015c:	200001ce 	.word	0x200001ce
20000160:	200001ce 	.word	0x200001ce
20000164:	200001ce 	.word	0x200001ce
20000168:	200001ce 	.word	0x200001ce
2000016c:	200001ce 	.word	0x200001ce
20000170:	200001ce 	.word	0x200001ce
20000174:	200001ce 	.word	0x200001ce
20000178:	200001ce 	.word	0x200001ce
2000017c:	00000000 	.word	0x00000000
20000180:	200001ce 	.word	0x200001ce
20000184:	200001ce 	.word	0x200001ce
20000188:	200001ce 	.word	0x200001ce
2000018c:	200001ce 	.word	0x200001ce
20000190:	200001ce 	.word	0x200001ce
20000194:	200001ce 	.word	0x200001ce
20000198:	200001ce 	.word	0x200001ce
2000019c:	200001ce 	.word	0x200001ce
200001a0:	200001ce 	.word	0x200001ce
200001a4:	200001ce 	.word	0x200001ce
	...

Disassembly of section .boot_code:

200001b0 <Reset_Handler>:
Reset_Handler():
C:\Users\nitin.deshpande\Documents\GitHub\microsemi-huawei-liteos\microsemi-liteos\mscc-huawei-wsp\sc-gd450i-board-test\Debug/../gd32firmware/Library/Firmware/CMSIS/GD/GD32F4xx/Source/GCC/startup_gd32f4xx.S:133
 */
    .global Reset_Handler
    .section    .boot_code,"ax",%progbits
    .type   Reset_Handler, %function
Reset_Handler:
                ldr   sp, =_estack       /* set stack pointer */
200001b0:	f8df d01c 	ldr.w	sp, [pc, #28]	; 200001d0 <ADC_IRQHandler+0x2>
C:\Users\nitin.deshpande\Documents\GitHub\microsemi-huawei-liteos\microsemi-liteos\mscc-huawei-wsp\sc-gd450i-board-test\Debug/../gd32firmware/Library/Firmware/CMSIS/GD/GD32F4xx/Source/GCC/startup_gd32f4xx.S:134
                LDR     R0, =SystemInit
200001b4:	4807      	ldr	r0, [pc, #28]	; (200001d4 <ADC_IRQHandler+0x6>)
C:\Users\nitin.deshpande\Documents\GitHub\microsemi-huawei-liteos\microsemi-liteos\mscc-huawei-wsp\sc-gd450i-board-test\Debug/../gd32firmware/Library/Firmware/CMSIS/GD/GD32F4xx/Source/GCC/startup_gd32f4xx.S:135
                BLX     R0
200001b6:	4780      	blx	r0
C:\Users\nitin.deshpande\Documents\GitHub\microsemi-huawei-liteos\microsemi-liteos\mscc-huawei-wsp\sc-gd450i-board-test\Debug/../gd32firmware/Library/Firmware/CMSIS/GD/GD32F4xx/Source/GCC/startup_gd32f4xx.S:136
                LDR     R0, =main
200001b8:	4807      	ldr	r0, [pc, #28]	; (200001d8 <ADC_IRQHandler+0xa>)
C:\Users\nitin.deshpande\Documents\GitHub\microsemi-huawei-liteos\microsemi-liteos\mscc-huawei-wsp\sc-gd450i-board-test\Debug/../gd32firmware/Library/Firmware/CMSIS/GD/GD32F4xx/Source/GCC/startup_gd32f4xx.S:137
                BX      R0
200001ba:	4700      	bx	r0
C:\Users\nitin.deshpande\Documents\GitHub\microsemi-huawei-liteos\microsemi-liteos\mscc-huawei-wsp\sc-gd450i-board-test\Debug/../gd32firmware/Library/Firmware/CMSIS/GD/GD32F4xx/Source/GCC/startup_gd32f4xx.S:145
 * NMI_Handler
 */
    .weak   NMI_Handler
    .type   NMI_Handler, %function
NMI_Handler:
    B .
200001bc:	e7fe      	b.n	200001bc <Reset_Handler+0xc>
C:\Users\nitin.deshpande\Documents\GitHub\microsemi-huawei-liteos\microsemi-liteos\mscc-huawei-wsp\sc-gd450i-board-test\Debug/../gd32firmware/Library/Firmware/CMSIS/GD/GD32F4xx/Source/GCC/startup_gd32f4xx.S:153
 * HardFault_Handler
 */
    .weak   HardFault_Handler
    .type   HardFault_Handler, %function
HardFault_Handler:
    B .
200001be:	e7fe      	b.n	200001be <Reset_Handler+0xe>
C:\Users\nitin.deshpande\Documents\GitHub\microsemi-huawei-liteos\microsemi-liteos\mscc-huawei-wsp\sc-gd450i-board-test\Debug/../gd32firmware/Library/Firmware/CMSIS/GD/GD32F4xx/Source/GCC/startup_gd32f4xx.S:161
 * MemManage_Handler
 */
    .weak   MemManage_Handler
    .type   MemManage_Handler, %function
MemManage_Handler:
    B .
200001c0:	e7fe      	b.n	200001c0 <Reset_Handler+0x10>
C:\Users\nitin.deshpande\Documents\GitHub\microsemi-huawei-liteos\microsemi-liteos\mscc-huawei-wsp\sc-gd450i-board-test\Debug/../gd32firmware/Library/Firmware/CMSIS/GD/GD32F4xx/Source/GCC/startup_gd32f4xx.S:169
 * BusFault_Handler
 */
    .weak   BusFault_Handler
    .type   BusFault_Handler, %function
BusFault_Handler:
    B .
200001c2:	e7fe      	b.n	200001c2 <Reset_Handler+0x12>
C:\Users\nitin.deshpande\Documents\GitHub\microsemi-huawei-liteos\microsemi-liteos\mscc-huawei-wsp\sc-gd450i-board-test\Debug/../gd32firmware/Library/Firmware/CMSIS/GD/GD32F4xx/Source/GCC/startup_gd32f4xx.S:177
 * UsageFault_Handler
 */
    .weak   UsageFault_Handler
    .type   UsageFault_Handler, %function
UsageFault_Handler:
    B .
200001c4:	e7fe      	b.n	200001c4 <Reset_Handler+0x14>
C:\Users\nitin.deshpande\Documents\GitHub\microsemi-huawei-liteos\microsemi-liteos\mscc-huawei-wsp\sc-gd450i-board-test\Debug/../gd32firmware/Library/Firmware/CMSIS/GD/GD32F4xx/Source/GCC/startup_gd32f4xx.S:185
 * SVC_Handler
 */
    .weak   SVC_Handler
    .type   SVC_Handler, %function
SVC_Handler:
    B .
200001c6:	e7fe      	b.n	200001c6 <Reset_Handler+0x16>

200001c8 <DebugMon_Handler>:
DebugMon_Handler():
C:\Users\nitin.deshpande\Documents\GitHub\microsemi-huawei-liteos\microsemi-liteos\mscc-huawei-wsp\sc-gd450i-board-test\Debug/../gd32firmware/Library/Firmware/CMSIS/GD/GD32F4xx/Source/GCC/startup_gd32f4xx.S:193
 * DebugMon_Handler
 */
    .weak   DebugMon_Handler
    .type   DebugMon_Handler, %function
DebugMon_Handler:
    B .
200001c8:	e7fe      	b.n	200001c8 <DebugMon_Handler>
C:\Users\nitin.deshpande\Documents\GitHub\microsemi-huawei-liteos\microsemi-liteos\mscc-huawei-wsp\sc-gd450i-board-test\Debug/../gd32firmware/Library/Firmware/CMSIS/GD/GD32F4xx/Source/GCC/startup_gd32f4xx.S:201
 * PendSV_Handler
 */
    .weak   PendSV_Handler
    .type   PendSV_Handler, %function
PendSV_Handler:
    B .
200001ca:	e7fe      	b.n	200001ca <DebugMon_Handler+0x2>
C:\Users\nitin.deshpande\Documents\GitHub\microsemi-huawei-liteos\microsemi-liteos\mscc-huawei-wsp\sc-gd450i-board-test\Debug/../gd32firmware/Library/Firmware/CMSIS/GD/GD32F4xx/Source/GCC/startup_gd32f4xx.S:209
 * SysTick_Handler
 */
    .weak   SysTick_Handler
    .type   SysTick_Handler, %function
SysTick_Handler:
    B .
200001cc:	e7fe      	b.n	200001cc <DebugMon_Handler+0x4>

200001ce <ADC_IRQHandler>:
Default_Handler():
C:\Users\nitin.deshpande\Documents\GitHub\microsemi-huawei-liteos\microsemi-liteos\mscc-huawei-wsp\sc-gd450i-board-test\Debug/../gd32firmware/Library/Firmware/CMSIS/GD/GD32F4xx/Source/GCC/startup_gd32f4xx.S:302
SPI5_IRQHandler:
TLI_IRQHandler:
TLI_ER_IRQHandler:
IPA_IRQHandler:

        B       .
200001ce:	e7fe      	b.n	200001ce <ADC_IRQHandler>
C:\Users\nitin.deshpande\Documents\GitHub\microsemi-huawei-liteos\microsemi-liteos\mscc-huawei-wsp\sc-gd450i-board-test\Debug/../gd32firmware/Library/Firmware/CMSIS/GD/GD32F4xx/Source/GCC/startup_gd32f4xx.S:133
                ldr   sp, =_estack       /* set stack pointer */
200001d0:	200069a0 	.word	0x200069a0
C:\Users\nitin.deshpande\Documents\GitHub\microsemi-huawei-liteos\microsemi-liteos\mscc-huawei-wsp\sc-gd450i-board-test\Debug/../gd32firmware/Library/Firmware/CMSIS/GD/GD32F4xx/Source/GCC/startup_gd32f4xx.S:134
                LDR     R0, =SystemInit
200001d4:	200001dd 	.word	0x200001dd
C:\Users\nitin.deshpande\Documents\GitHub\microsemi-huawei-liteos\microsemi-liteos\mscc-huawei-wsp\sc-gd450i-board-test\Debug/../gd32firmware/Library/Firmware/CMSIS/GD/GD32F4xx/Source/GCC/startup_gd32f4xx.S:136
                LDR     R0, =main
200001d8:	20000365 	.word	0x20000365

200001dc <SystemInit>:
SystemInit():
C:\Users\nitin.deshpande\Documents\GitHub\microsemi-huawei-liteos\microsemi-liteos\mscc-huawei-wsp\sc-gd450i-board-test\Debug/../gd32firmware/Library/Firmware/CMSIS/GD/GD32F4xx/Source/system_gd32f4xx.c:124
        ++p_zero;
    }
}

__attribute__((section(".boot_code"))) void SystemInit (void)
{
200001dc:	b580      	push	{r7, lr}
200001de:	af00      	add	r7, sp, #0
C:\Users\nitin.deshpande\Documents\GitHub\microsemi-huawei-liteos\microsemi-liteos\mscc-huawei-wsp\sc-gd450i-board-test\Debug/../gd32firmware/Library/Firmware/CMSIS/GD/GD32F4xx/Source/system_gd32f4xx.c:127

	/*MSCC update: Initializing the BSS sections with Zeros.*/
  zero_section(&__bss_start, &__bss_end);
200001e0:	491e      	ldr	r1, [pc, #120]	; (2000025c <SystemInit+0x80>)
200001e2:	481f      	ldr	r0, [pc, #124]	; (20000260 <SystemInit+0x84>)
200001e4:	f003 fe9c 	bl	20003f20 <zero_section>
C:\Users\nitin.deshpande\Documents\GitHub\microsemi-huawei-liteos\microsemi-liteos\mscc-huawei-wsp\sc-gd450i-board-test\Debug/../gd32firmware/Library/Firmware/CMSIS/GD/GD32F4xx/Source/system_gd32f4xx.c:128
  zero_section((uint32_t *)0x10000000, (uint32_t *)0x1000FFFF);
200001e8:	491e      	ldr	r1, [pc, #120]	; (20000264 <SystemInit+0x88>)
200001ea:	f04f 5080 	mov.w	r0, #268435456	; 0x10000000
200001ee:	f003 fe97 	bl	20003f20 <zero_section>
C:\Users\nitin.deshpande\Documents\GitHub\microsemi-huawei-liteos\microsemi-liteos\mscc-huawei-wsp\sc-gd450i-board-test\Debug/../gd32firmware/Library/Firmware/CMSIS/GD/GD32F4xx/Source/system_gd32f4xx.c:131

  /*MSCC update: Enable fault handlers*/
  SCB->SHCSR |= 0x70000;
200001f2:	4a1d      	ldr	r2, [pc, #116]	; (20000268 <SystemInit+0x8c>)
200001f4:	4b1c      	ldr	r3, [pc, #112]	; (20000268 <SystemInit+0x8c>)
200001f6:	6a5b      	ldr	r3, [r3, #36]	; 0x24
200001f8:	f443 23e0 	orr.w	r3, r3, #458752	; 0x70000
200001fc:	6253      	str	r3, [r2, #36]	; 0x24
C:\Users\nitin.deshpande\Documents\GitHub\microsemi-huawei-liteos\microsemi-liteos\mscc-huawei-wsp\sc-gd450i-board-test\Debug/../gd32firmware/Library/Firmware/CMSIS/GD/GD32F4xx/Source/system_gd32f4xx.c:138
  /*--------------------------------------------------------------------------
   * MSCC update: Set STKALIGN to ensure exception stacking starts on 8 bytes address
   * boundary. This ensures compliance with the "Procedure Call Standards for
   * the ARM Architecture" (AAPCS).
   */
  SCB->CCR |=SCB_CCR_STKALIGN_Msk;
200001fe:	4a1a      	ldr	r2, [pc, #104]	; (20000268 <SystemInit+0x8c>)
20000200:	4b19      	ldr	r3, [pc, #100]	; (20000268 <SystemInit+0x8c>)
20000202:	695b      	ldr	r3, [r3, #20]
20000204:	f443 7300 	orr.w	r3, r3, #512	; 0x200
20000208:	6153      	str	r3, [r2, #20]
C:\Users\nitin.deshpande\Documents\GitHub\microsemi-huawei-liteos\microsemi-liteos\mscc-huawei-wsp\sc-gd450i-board-test\Debug/../gd32firmware/Library/Firmware/CMSIS/GD/GD32F4xx/Source/system_gd32f4xx.c:143


  /* FPU settings ------------------------------------------------------------*/
  #if (__FPU_PRESENT == 1) && (__FPU_USED == 1)
    SCB->CPACR |= ((3UL << 10*2)|(3UL << 11*2));  /* set CP10 and CP11 Full Access */
2000020a:	4a17      	ldr	r2, [pc, #92]	; (20000268 <SystemInit+0x8c>)
2000020c:	4b16      	ldr	r3, [pc, #88]	; (20000268 <SystemInit+0x8c>)
2000020e:	f8d3 3088 	ldr.w	r3, [r3, #136]	; 0x88
20000212:	f443 0370 	orr.w	r3, r3, #15728640	; 0xf00000
20000216:	f8c2 3088 	str.w	r3, [r2, #136]	; 0x88
C:\Users\nitin.deshpande\Documents\GitHub\microsemi-huawei-liteos\microsemi-liteos\mscc-huawei-wsp\sc-gd450i-board-test\Debug/../gd32firmware/Library/Firmware/CMSIS/GD/GD32F4xx/Source/system_gd32f4xx.c:147
  #endif
  /* Reset the RCC clock configuration to the default reset state ------------*/
  /* Set IRC16MEN bit */
  RCU_CTL |= RCU_CTL_IRC16MEN;
2000021a:	4a14      	ldr	r2, [pc, #80]	; (2000026c <SystemInit+0x90>)
2000021c:	4b13      	ldr	r3, [pc, #76]	; (2000026c <SystemInit+0x90>)
2000021e:	681b      	ldr	r3, [r3, #0]
20000220:	f043 0301 	orr.w	r3, r3, #1
20000224:	6013      	str	r3, [r2, #0]
C:\Users\nitin.deshpande\Documents\GitHub\microsemi-huawei-liteos\microsemi-liteos\mscc-huawei-wsp\sc-gd450i-board-test\Debug/../gd32firmware/Library/Firmware/CMSIS/GD/GD32F4xx/Source/system_gd32f4xx.c:150

  /* Reset CFG0 register */
  RCU_CFG0 = 0x00000000U;
20000226:	4b12      	ldr	r3, [pc, #72]	; (20000270 <SystemInit+0x94>)
20000228:	2200      	movs	r2, #0
2000022a:	601a      	str	r2, [r3, #0]
C:\Users\nitin.deshpande\Documents\GitHub\microsemi-huawei-liteos\microsemi-liteos\mscc-huawei-wsp\sc-gd450i-board-test\Debug/../gd32firmware/Library/Firmware/CMSIS/GD/GD32F4xx/Source/system_gd32f4xx.c:153

  /* Reset HXTALEN, CKMEN and PLLEN bits */
  RCU_CTL &= ~(RCU_CTL_PLLEN | RCU_CTL_CKMEN | RCU_CTL_HXTALEN);
2000022c:	4a0f      	ldr	r2, [pc, #60]	; (2000026c <SystemInit+0x90>)
2000022e:	4b0f      	ldr	r3, [pc, #60]	; (2000026c <SystemInit+0x90>)
20000230:	681b      	ldr	r3, [r3, #0]
20000232:	f023 7384 	bic.w	r3, r3, #17301504	; 0x1080000
20000236:	f423 3380 	bic.w	r3, r3, #65536	; 0x10000
2000023a:	6013      	str	r3, [r2, #0]
C:\Users\nitin.deshpande\Documents\GitHub\microsemi-huawei-liteos\microsemi-liteos\mscc-huawei-wsp\sc-gd450i-board-test\Debug/../gd32firmware/Library/Firmware/CMSIS/GD/GD32F4xx/Source/system_gd32f4xx.c:156

  /* Reset PLLCFGR register */
  RCU_PLL = 0x24003010U;
2000023c:	4b0d      	ldr	r3, [pc, #52]	; (20000274 <SystemInit+0x98>)
2000023e:	4a0e      	ldr	r2, [pc, #56]	; (20000278 <SystemInit+0x9c>)
20000240:	601a      	str	r2, [r3, #0]
C:\Users\nitin.deshpande\Documents\GitHub\microsemi-huawei-liteos\microsemi-liteos\mscc-huawei-wsp\sc-gd450i-board-test\Debug/../gd32firmware/Library/Firmware/CMSIS/GD/GD32F4xx/Source/system_gd32f4xx.c:159

  /* Reset HSEBYP bit */
  RCU_CTL &= ~(RCU_CTL_HXTALBPS);
20000242:	4a0a      	ldr	r2, [pc, #40]	; (2000026c <SystemInit+0x90>)
20000244:	4b09      	ldr	r3, [pc, #36]	; (2000026c <SystemInit+0x90>)
20000246:	681b      	ldr	r3, [r3, #0]
20000248:	f423 2380 	bic.w	r3, r3, #262144	; 0x40000
2000024c:	6013      	str	r3, [r2, #0]
C:\Users\nitin.deshpande\Documents\GitHub\microsemi-huawei-liteos\microsemi-liteos\mscc-huawei-wsp\sc-gd450i-board-test\Debug/../gd32firmware/Library/Firmware/CMSIS/GD/GD32F4xx/Source/system_gd32f4xx.c:162

  /* Disable all interrupts */
  RCU_INT = 0x00000000U;
2000024e:	4b0b      	ldr	r3, [pc, #44]	; (2000027c <SystemInit+0xa0>)
20000250:	2200      	movs	r2, #0
20000252:	601a      	str	r2, [r3, #0]
C:\Users\nitin.deshpande\Documents\GitHub\microsemi-huawei-liteos\microsemi-liteos\mscc-huawei-wsp\sc-gd450i-board-test\Debug/../gd32firmware/Library/Firmware/CMSIS/GD/GD32F4xx/Source/system_gd32f4xx.c:166
         
  /* Configure the System clock source, PLL Multiplier and Divider factors, 
     AHB/APBx prescalers and Flash settings ----------------------------------*/
  system_clock_config();
20000254:	f003 fe7c 	bl	20003f50 <system_clock_config>
C:\Users\nitin.deshpande\Documents\GitHub\microsemi-huawei-liteos\microsemi-liteos\mscc-huawei-wsp\sc-gd450i-board-test\Debug/../gd32firmware/Library/Firmware/CMSIS/GD/GD32F4xx/Source/system_gd32f4xx.c:169


}
20000258:	bf00      	nop
2000025a:	bd80      	pop	{r7, pc}
2000025c:	200049a0 	.word	0x200049a0
20000260:	200047d0 	.word	0x200047d0
20000264:	1000ffff 	.word	0x1000ffff
20000268:	e000ed00 	.word	0xe000ed00
2000026c:	40023800 	.word	0x40023800
20000270:	40023808 	.word	0x40023808
20000274:	40023804 	.word	0x40023804
20000278:	24003010 	.word	0x24003010
2000027c:	4002380c 	.word	0x4002380c

Disassembly of section .text:

20000280 <__do_global_dtors_aux>:
__text_start():
20000280:	b510      	push	{r4, lr}
20000282:	4c05      	ldr	r4, [pc, #20]	; (20000298 <__text_load+0x18>)
20000284:	7823      	ldrb	r3, [r4, #0]
20000286:	b933      	cbnz	r3, 20000296 <__do_global_dtors_aux+0x16>
20000288:	4b04      	ldr	r3, [pc, #16]	; (2000029c <__text_load+0x1c>)
2000028a:	b113      	cbz	r3, 20000292 <__do_global_dtors_aux+0x12>
2000028c:	4804      	ldr	r0, [pc, #16]	; (200002a0 <__text_load+0x20>)
2000028e:	f3af 8000 	nop.w
20000292:	2301      	movs	r3, #1
20000294:	7023      	strb	r3, [r4, #0]
20000296:	bd10      	pop	{r4, pc}
20000298:	200047d0 	.word	0x200047d0
2000029c:	00000000 	.word	0x00000000
200002a0:	20004334 	.word	0x20004334

200002a4 <frame_dummy>:
frame_dummy():
200002a4:	4b0c      	ldr	r3, [pc, #48]	; (200002d8 <frame_dummy+0x34>)
200002a6:	b143      	cbz	r3, 200002ba <frame_dummy+0x16>
200002a8:	480c      	ldr	r0, [pc, #48]	; (200002dc <frame_dummy+0x38>)
200002aa:	490d      	ldr	r1, [pc, #52]	; (200002e0 <frame_dummy+0x3c>)
200002ac:	b510      	push	{r4, lr}
200002ae:	f3af 8000 	nop.w
200002b2:	480c      	ldr	r0, [pc, #48]	; (200002e4 <frame_dummy+0x40>)
200002b4:	6803      	ldr	r3, [r0, #0]
200002b6:	b923      	cbnz	r3, 200002c2 <frame_dummy+0x1e>
200002b8:	bd10      	pop	{r4, pc}
200002ba:	480a      	ldr	r0, [pc, #40]	; (200002e4 <frame_dummy+0x40>)
200002bc:	6803      	ldr	r3, [r0, #0]
200002be:	b933      	cbnz	r3, 200002ce <frame_dummy+0x2a>
200002c0:	4770      	bx	lr
200002c2:	4b09      	ldr	r3, [pc, #36]	; (200002e8 <frame_dummy+0x44>)
200002c4:	2b00      	cmp	r3, #0
200002c6:	d0f7      	beq.n	200002b8 <frame_dummy+0x14>
200002c8:	e8bd 4010 	ldmia.w	sp!, {r4, lr}
200002cc:	4718      	bx	r3
200002ce:	4b06      	ldr	r3, [pc, #24]	; (200002e8 <frame_dummy+0x44>)
200002d0:	2b00      	cmp	r3, #0
200002d2:	d0f5      	beq.n	200002c0 <frame_dummy+0x1c>
200002d4:	4718      	bx	r3
200002d6:	bf00      	nop
200002d8:	00000000 	.word	0x00000000
200002dc:	20004334 	.word	0x20004334
200002e0:	200047d4 	.word	0x200047d4
200002e4:	20004360 	.word	0x20004360
200002e8:	00000000 	.word	0x00000000

200002ec <LOS_BoadExampleTskfunc>:
LOS_BoadExampleTskfunc():
C:\Users\nitin.deshpande\Documents\GitHub\microsemi-huawei-liteos\microsemi-liteos\mscc-huawei-wsp\sc-gd450i-board-test\Debug/../user/main.c:28

extern void LOS_EvbSetup(void);

static UINT32 g_uwboadTaskID;
LITE_OS_SEC_TEXT VOID LOS_BoadExampleTskfunc(VOID)
{
200002ec:	b580      	push	{r7, lr}
200002ee:	af00      	add	r7, sp, #0
C:\Users\nitin.deshpande\Documents\GitHub\microsemi-huawei-liteos\microsemi-liteos\mscc-huawei-wsp\sc-gd450i-board-test\Debug/../user/main.c:31 (discriminator 1)
    while (1)
    {
        LOS_EvbLedControl(LOS_LED2, LED_ON);
200002f0:	2101      	movs	r1, #1
200002f2:	2001      	movs	r0, #1
200002f4:	f003 ff6c 	bl	200041d0 <LOS_EvbLedControl>
C:\Users\nitin.deshpande\Documents\GitHub\microsemi-huawei-liteos\microsemi-liteos\mscc-huawei-wsp\sc-gd450i-board-test\Debug/../user/main.c:32 (discriminator 1)
        LOS_EvbUartWriteStr("SoftConsole running on GD450 board\n");
200002f8:	4807      	ldr	r0, [pc, #28]	; (20000318 <LOS_BoadExampleTskfunc+0x2c>)
200002fa:	f003 ffb3 	bl	20004264 <LOS_EvbUartWriteStr>
C:\Users\nitin.deshpande\Documents\GitHub\microsemi-huawei-liteos\microsemi-liteos\mscc-huawei-wsp\sc-gd450i-board-test\Debug/../user/main.c:33 (discriminator 1)
        LOS_TaskDelay(500);
200002fe:	f44f 70fa 	mov.w	r0, #500	; 0x1f4
20000302:	f002 fe53 	bl	20002fac <LOS_TaskDelay>
C:\Users\nitin.deshpande\Documents\GitHub\microsemi-huawei-liteos\microsemi-liteos\mscc-huawei-wsp\sc-gd450i-board-test\Debug/../user/main.c:34 (discriminator 1)
        LOS_EvbLedControl(LOS_LED2, LED_OFF);
20000306:	2100      	movs	r1, #0
20000308:	2001      	movs	r0, #1
2000030a:	f003 ff61 	bl	200041d0 <LOS_EvbLedControl>
C:\Users\nitin.deshpande\Documents\GitHub\microsemi-huawei-liteos\microsemi-liteos\mscc-huawei-wsp\sc-gd450i-board-test\Debug/../user/main.c:35 (discriminator 1)
        LOS_TaskDelay(500);
2000030e:	f44f 70fa 	mov.w	r0, #500	; 0x1f4
20000312:	f002 fe4b 	bl	20002fac <LOS_TaskDelay>
C:\Users\nitin.deshpande\Documents\GitHub\microsemi-huawei-liteos\microsemi-liteos\mscc-huawei-wsp\sc-gd450i-board-test\Debug/../user/main.c:31 (discriminator 1)
        LOS_EvbLedControl(LOS_LED2, LED_ON);
20000316:	e7eb      	b.n	200002f0 <LOS_BoadExampleTskfunc+0x4>
20000318:	200042d0 	.word	0x200042d0

2000031c <LOS_BoadExampleEntry>:
LOS_BoadExampleEntry():
C:\Users\nitin.deshpande\Documents\GitHub\microsemi-huawei-liteos\microsemi-liteos\mscc-huawei-wsp\sc-gd450i-board-test\Debug/../user/main.c:39
    }
}
void LOS_BoadExampleEntry(void)
{
2000031c:	b580      	push	{r7, lr}
2000031e:	b08a      	sub	sp, #40	; 0x28
20000320:	af00      	add	r7, sp, #0
C:\Users\nitin.deshpande\Documents\GitHub\microsemi-huawei-liteos\microsemi-liteos\mscc-huawei-wsp\sc-gd450i-board-test\Debug/../user/main.c:43
    UINT32 uwRet;
    TSK_INIT_PARAM_S stTaskInitParam;

    (VOID)memset((void *)(&stTaskInitParam), 0, sizeof(TSK_INIT_PARAM_S));
20000322:	463b      	mov	r3, r7
20000324:	2224      	movs	r2, #36	; 0x24
20000326:	2100      	movs	r1, #0
20000328:	4618      	mov	r0, r3
2000032a:	f003 ffc5 	bl	200042b8 <memset>
C:\Users\nitin.deshpande\Documents\GitHub\microsemi-huawei-liteos\microsemi-liteos\mscc-huawei-wsp\sc-gd450i-board-test\Debug/../user/main.c:44
    stTaskInitParam.pfnTaskEntry = (TSK_ENTRY_FUNC)LOS_BoadExampleTskfunc;
2000032e:	4b0a      	ldr	r3, [pc, #40]	; (20000358 <LOS_BoadExampleEntry+0x3c>)
20000330:	603b      	str	r3, [r7, #0]
C:\Users\nitin.deshpande\Documents\GitHub\microsemi-huawei-liteos\microsemi-liteos\mscc-huawei-wsp\sc-gd450i-board-test\Debug/../user/main.c:45
    stTaskInitParam.uwStackSize = LOSCFG_BASE_CORE_TSK_IDLE_STACK_SIZE;
20000332:	f44f 63a0 	mov.w	r3, #1280	; 0x500
20000336:	61bb      	str	r3, [r7, #24]
C:\Users\nitin.deshpande\Documents\GitHub\microsemi-huawei-liteos\microsemi-liteos\mscc-huawei-wsp\sc-gd450i-board-test\Debug/../user/main.c:46
    stTaskInitParam.pcName = "BoardDemo";
20000338:	4b08      	ldr	r3, [pc, #32]	; (2000035c <LOS_BoadExampleEntry+0x40>)
2000033a:	61fb      	str	r3, [r7, #28]
C:\Users\nitin.deshpande\Documents\GitHub\microsemi-huawei-liteos\microsemi-liteos\mscc-huawei-wsp\sc-gd450i-board-test\Debug/../user/main.c:47
    stTaskInitParam.usTaskPrio = 10;
2000033c:	230a      	movs	r3, #10
2000033e:	80bb      	strh	r3, [r7, #4]
C:\Users\nitin.deshpande\Documents\GitHub\microsemi-huawei-liteos\microsemi-liteos\mscc-huawei-wsp\sc-gd450i-board-test\Debug/../user/main.c:48
    uwRet = LOS_TaskCreate(&g_uwboadTaskID, &stTaskInitParam);
20000340:	463b      	mov	r3, r7
20000342:	4619      	mov	r1, r3
20000344:	4806      	ldr	r0, [pc, #24]	; (20000360 <LOS_BoadExampleEntry+0x44>)
20000346:	f002 fdcd 	bl	20002ee4 <LOS_TaskCreate>
2000034a:	6278      	str	r0, [r7, #36]	; 0x24
C:\Users\nitin.deshpande\Documents\GitHub\microsemi-huawei-liteos\microsemi-liteos\mscc-huawei-wsp\sc-gd450i-board-test\Debug/../user/main.c:50

    if (uwRet != LOS_OK)
2000034c:	6a7b      	ldr	r3, [r7, #36]	; 0x24
2000034e:	2b00      	cmp	r3, #0
C:\Users\nitin.deshpande\Documents\GitHub\microsemi-huawei-liteos\microsemi-liteos\mscc-huawei-wsp\sc-gd450i-board-test\Debug/../user/main.c:54
    {
        return;
    }
    return;
20000350:	bf00      	nop
C:\Users\nitin.deshpande\Documents\GitHub\microsemi-huawei-liteos\microsemi-liteos\mscc-huawei-wsp\sc-gd450i-board-test\Debug/../user/main.c:55
}
20000352:	3728      	adds	r7, #40	; 0x28
20000354:	46bd      	mov	sp, r7
20000356:	bd80      	pop	{r7, pc}
20000358:	200002ed 	.word	0x200002ed
2000035c:	200042f4 	.word	0x200042f4
20000360:	200047ec 	.word	0x200047ec

20000364 <main>:
main():
C:\Users\nitin.deshpande\Documents\GitHub\microsemi-huawei-liteos\microsemi-liteos\mscc-huawei-wsp\sc-gd450i-board-test\Debug/../user/main.c:66
Output      : None
Return      : None
 *****************************************************************************/
LITE_OS_SEC_TEXT_INIT
int main(void)
{
20000364:	b580      	push	{r7, lr}
20000366:	b082      	sub	sp, #8
20000368:	af00      	add	r7, sp, #0
C:\Users\nitin.deshpande\Documents\GitHub\microsemi-huawei-liteos\microsemi-liteos\mscc-huawei-wsp\sc-gd450i-board-test\Debug/../user/main.c:75
        for example flash, i2c , system clock ....
     */
    //HAL_init();....

    /*Init LiteOS kernel */
    uwRet = LOS_KernelInit();
2000036a:	f000 fadd 	bl	20000928 <LOS_KernelInit>
2000036e:	4603      	mov	r3, r0
20000370:	607b      	str	r3, [r7, #4]
C:\Users\nitin.deshpande\Documents\GitHub\microsemi-huawei-liteos\microsemi-liteos\mscc-huawei-wsp\sc-gd450i-board-test\Debug/../user/main.c:76
    if (uwRet != LOS_OK) {
20000372:	687b      	ldr	r3, [r7, #4]
20000374:	2b00      	cmp	r3, #0
20000376:	d001      	beq.n	2000037c <main+0x18>
C:\Users\nitin.deshpande\Documents\GitHub\microsemi-huawei-liteos\microsemi-liteos\mscc-huawei-wsp\sc-gd450i-board-test\Debug/../user/main.c:77
        return LOS_NOK;
20000378:	2301      	movs	r3, #1
2000037a:	e008      	b.n	2000038e <main+0x2a>
C:\Users\nitin.deshpande\Documents\GitHub\microsemi-huawei-liteos\microsemi-liteos\mscc-huawei-wsp\sc-gd450i-board-test\Debug/../user/main.c:80
    }
    /* Enable LiteOS system tick interrupt */
    LOS_EnableTick();
2000037c:	f000 fa70 	bl	20000860 <LOS_EnableTick>
C:\Users\nitin.deshpande\Documents\GitHub\microsemi-huawei-liteos\microsemi-liteos\mscc-huawei-wsp\sc-gd450i-board-test\Debug/../user/main.c:82

    LOS_EvbSetup();//init the device on the dev baord
20000380:	f003 ff04 	bl	2000418c <LOS_EvbSetup>
C:\Users\nitin.deshpande\Documents\GitHub\microsemi-huawei-liteos\microsemi-liteos\mscc-huawei-wsp\sc-gd450i-board-test\Debug/../user/main.c:84

    LOS_BoadExampleEntry();
20000384:	f7ff ffca 	bl	2000031c <LOS_BoadExampleEntry>
C:\Users\nitin.deshpande\Documents\GitHub\microsemi-huawei-liteos\microsemi-liteos\mscc-huawei-wsp\sc-gd450i-board-test\Debug/../user/main.c:87

    /* Kernel start to run */
    LOS_Start();
20000388:	f000 fa75 	bl	20000876 <LOS_Start>
C:\Users\nitin.deshpande\Documents\GitHub\microsemi-huawei-liteos\microsemi-liteos\mscc-huawei-wsp\sc-gd450i-board-test\Debug/../user/main.c:88 (discriminator 1)
    for (;;);
2000038c:	e7fe      	b.n	2000038c <main+0x28>
C:\Users\nitin.deshpande\Documents\GitHub\microsemi-huawei-liteos\microsemi-liteos\mscc-huawei-wsp\sc-gd450i-board-test\Debug/../user/main.c:90
    /* Replace the dots (...) with your own code. */
}
2000038e:	4618      	mov	r0, r3
20000390:	3708      	adds	r7, #8
20000392:	46bd      	mov	sp, r7
20000394:	bd80      	pop	{r7, pc}
	...

20000398 <LOS_StartToRun>:
LOS_StartToRun():
C:\Users\nitin.deshpande\Documents\GitHub\microsemi-huawei-liteos\microsemi-liteos\mscc-huawei-wsp\sc-gd450i-board-test\Debug/../kernel/cpu/arm/cortex-m4/los_dispatch_gcc.S:30

	.section .text
    .thumb

LOS_StartToRun:
    ldr     r4, =OS_NVIC_SYSPRI2
20000398:	4c40      	ldr	r4, [pc, #256]	; (2000049c <TaskSwitch+0x50>)
C:\Users\nitin.deshpande\Documents\GitHub\microsemi-huawei-liteos\microsemi-liteos\mscc-huawei-wsp\sc-gd450i-board-test\Debug/../kernel/cpu/arm/cortex-m4/los_dispatch_gcc.S:31
    ldr     r5, =OS_NVIC_PENDSV_PRI
2000039a:	4d41      	ldr	r5, [pc, #260]	; (200004a0 <TaskSwitch+0x54>)
C:\Users\nitin.deshpande\Documents\GitHub\microsemi-huawei-liteos\microsemi-liteos\mscc-huawei-wsp\sc-gd450i-board-test\Debug/../kernel/cpu/arm/cortex-m4/los_dispatch_gcc.S:32
    str     r5, [r4]
2000039c:	6025      	str	r5, [r4, #0]
C:\Users\nitin.deshpande\Documents\GitHub\microsemi-huawei-liteos\microsemi-liteos\mscc-huawei-wsp\sc-gd450i-board-test\Debug/../kernel/cpu/arm/cortex-m4/los_dispatch_gcc.S:34

    ldr     r0, =g_bTaskScheduled
2000039e:	4841      	ldr	r0, [pc, #260]	; (200004a4 <TaskSwitch+0x58>)
C:\Users\nitin.deshpande\Documents\GitHub\microsemi-huawei-liteos\microsemi-liteos\mscc-huawei-wsp\sc-gd450i-board-test\Debug/../kernel/cpu/arm/cortex-m4/los_dispatch_gcc.S:35
    mov     r1, #1
200003a0:	f04f 0101 	mov.w	r1, #1
C:\Users\nitin.deshpande\Documents\GitHub\microsemi-huawei-liteos\microsemi-liteos\mscc-huawei-wsp\sc-gd450i-board-test\Debug/../kernel/cpu/arm/cortex-m4/los_dispatch_gcc.S:36
    str     r1, [r0]
200003a4:	6001      	str	r1, [r0, #0]
C:\Users\nitin.deshpande\Documents\GitHub\microsemi-huawei-liteos\microsemi-liteos\mscc-huawei-wsp\sc-gd450i-board-test\Debug/../kernel/cpu/arm/cortex-m4/los_dispatch_gcc.S:38

    mov     r0, #2
200003a6:	f04f 0002 	mov.w	r0, #2
C:\Users\nitin.deshpande\Documents\GitHub\microsemi-huawei-liteos\microsemi-liteos\mscc-huawei-wsp\sc-gd450i-board-test\Debug/../kernel/cpu/arm/cortex-m4/los_dispatch_gcc.S:39
    msr     CONTROL, r0
200003aa:	f380 8814 	msr	CONTROL, r0
C:\Users\nitin.deshpande\Documents\GitHub\microsemi-huawei-liteos\microsemi-liteos\mscc-huawei-wsp\sc-gd450i-board-test\Debug/../kernel/cpu/arm/cortex-m4/los_dispatch_gcc.S:42


    ldr     r0, =g_stLosTask
200003ae:	483e      	ldr	r0, [pc, #248]	; (200004a8 <TaskSwitch+0x5c>)
C:\Users\nitin.deshpande\Documents\GitHub\microsemi-huawei-liteos\microsemi-liteos\mscc-huawei-wsp\sc-gd450i-board-test\Debug/../kernel/cpu/arm/cortex-m4/los_dispatch_gcc.S:43
    ldr     r2, [r0, #4]
200003b0:	6842      	ldr	r2, [r0, #4]
C:\Users\nitin.deshpande\Documents\GitHub\microsemi-huawei-liteos\microsemi-liteos\mscc-huawei-wsp\sc-gd450i-board-test\Debug/../kernel/cpu/arm/cortex-m4/los_dispatch_gcc.S:44
    ldr     r0, =g_stLosTask
200003b2:	483d      	ldr	r0, [pc, #244]	; (200004a8 <TaskSwitch+0x5c>)
C:\Users\nitin.deshpande\Documents\GitHub\microsemi-huawei-liteos\microsemi-liteos\mscc-huawei-wsp\sc-gd450i-board-test\Debug/../kernel/cpu/arm/cortex-m4/los_dispatch_gcc.S:45
    str     r2, [r0]
200003b4:	6002      	str	r2, [r0, #0]
C:\Users\nitin.deshpande\Documents\GitHub\microsemi-huawei-liteos\microsemi-liteos\mscc-huawei-wsp\sc-gd450i-board-test\Debug/../kernel/cpu/arm/cortex-m4/los_dispatch_gcc.S:47

    ldr     r3, =g_stLosTask
200003b6:	4b3c      	ldr	r3, [pc, #240]	; (200004a8 <TaskSwitch+0x5c>)
C:\Users\nitin.deshpande\Documents\GitHub\microsemi-huawei-liteos\microsemi-liteos\mscc-huawei-wsp\sc-gd450i-board-test\Debug/../kernel/cpu/arm/cortex-m4/los_dispatch_gcc.S:48
    ldr     r0, [r3]
200003b8:	6818      	ldr	r0, [r3, #0]
C:\Users\nitin.deshpande\Documents\GitHub\microsemi-huawei-liteos\microsemi-liteos\mscc-huawei-wsp\sc-gd450i-board-test\Debug/../kernel/cpu/arm/cortex-m4/los_dispatch_gcc.S:49
    ldrh    r7, [r0 , #4]
200003ba:	8887      	ldrh	r7, [r0, #4]
C:\Users\nitin.deshpande\Documents\GitHub\microsemi-huawei-liteos\microsemi-liteos\mscc-huawei-wsp\sc-gd450i-board-test\Debug/../kernel/cpu/arm/cortex-m4/los_dispatch_gcc.S:50
    mov     r8,  #OS_TASK_STATUS_RUNNING
200003bc:	f04f 0810 	mov.w	r8, #16
C:\Users\nitin.deshpande\Documents\GitHub\microsemi-huawei-liteos\microsemi-liteos\mscc-huawei-wsp\sc-gd450i-board-test\Debug/../kernel/cpu/arm/cortex-m4/los_dispatch_gcc.S:51
    orr     r7,  r7,  r8
200003c0:	ea47 0708 	orr.w	r7, r7, r8
C:\Users\nitin.deshpande\Documents\GitHub\microsemi-huawei-liteos\microsemi-liteos\mscc-huawei-wsp\sc-gd450i-board-test\Debug/../kernel/cpu/arm/cortex-m4/los_dispatch_gcc.S:52
    strh    r7,  [r0 , #4]
200003c4:	8087      	strh	r7, [r0, #4]
C:\Users\nitin.deshpande\Documents\GitHub\microsemi-huawei-liteos\microsemi-liteos\mscc-huawei-wsp\sc-gd450i-board-test\Debug/../kernel/cpu/arm/cortex-m4/los_dispatch_gcc.S:54

    ldr     r12, [r0]
200003c6:	f8d0 c000 	ldr.w	ip, [r0]
C:\Users\nitin.deshpande\Documents\GitHub\microsemi-huawei-liteos\microsemi-liteos\mscc-huawei-wsp\sc-gd450i-board-test\Debug/../kernel/cpu/arm/cortex-m4/los_dispatch_gcc.S:55
    add     r12, r12, #100
200003ca:	f10c 0c64 	add.w	ip, ip, #100	; 0x64
C:\Users\nitin.deshpande\Documents\GitHub\microsemi-huawei-liteos\microsemi-liteos\mscc-huawei-wsp\sc-gd450i-board-test\Debug/../kernel/cpu/arm/cortex-m4/los_dispatch_gcc.S:57

    ldmfd   r12!, {r0-r7}
200003ce:	e8bc 00ff 	ldmia.w	ip!, {r0, r1, r2, r3, r4, r5, r6, r7}
C:\Users\nitin.deshpande\Documents\GitHub\microsemi-huawei-liteos\microsemi-liteos\mscc-huawei-wsp\sc-gd450i-board-test\Debug/../kernel/cpu/arm/cortex-m4/los_dispatch_gcc.S:58
    add     r12, r12, #72
200003d2:	f10c 0c48 	add.w	ip, ip, #72	; 0x48
C:\Users\nitin.deshpande\Documents\GitHub\microsemi-huawei-liteos\microsemi-liteos\mscc-huawei-wsp\sc-gd450i-board-test\Debug/../kernel/cpu/arm/cortex-m4/los_dispatch_gcc.S:59
    msr     psp, r12
200003d6:	f38c 8809 	msr	PSP, ip
C:\Users\nitin.deshpande\Documents\GitHub\microsemi-huawei-liteos\microsemi-liteos\mscc-huawei-wsp\sc-gd450i-board-test\Debug/../kernel/cpu/arm/cortex-m4/los_dispatch_gcc.S:60
    push    {r0}
200003da:	b401      	push	{r0}
C:\Users\nitin.deshpande\Documents\GitHub\microsemi-huawei-liteos\microsemi-liteos\mscc-huawei-wsp\sc-gd450i-board-test\Debug/../kernel/cpu/arm/cortex-m4/los_dispatch_gcc.S:61
    mov     r0, #3
200003dc:	f04f 0003 	mov.w	r0, #3
C:\Users\nitin.deshpande\Documents\GitHub\microsemi-huawei-liteos\microsemi-liteos\mscc-huawei-wsp\sc-gd450i-board-test\Debug/../kernel/cpu/arm/cortex-m4/los_dispatch_gcc.S:62
    msr     CONTROL, r0
200003e0:	f380 8814 	msr	CONTROL, r0
C:\Users\nitin.deshpande\Documents\GitHub\microsemi-huawei-liteos\microsemi-liteos\mscc-huawei-wsp\sc-gd450i-board-test\Debug/../kernel/cpu/arm/cortex-m4/los_dispatch_gcc.S:63
    pop     {r0}
200003e4:	bc01      	pop	{r0}
C:\Users\nitin.deshpande\Documents\GitHub\microsemi-huawei-liteos\microsemi-liteos\mscc-huawei-wsp\sc-gd450i-board-test\Debug/../kernel/cpu/arm/cortex-m4/los_dispatch_gcc.S:64
    vpush    {s0}
200003e6:	ed2d 0a01 	vpush	{s0}
C:\Users\nitin.deshpande\Documents\GitHub\microsemi-huawei-liteos\microsemi-liteos\mscc-huawei-wsp\sc-gd450i-board-test\Debug/../kernel/cpu/arm/cortex-m4/los_dispatch_gcc.S:65
    vpop     {s0}
200003ea:	ecbd 0a01 	vpop	{s0}
C:\Users\nitin.deshpande\Documents\GitHub\microsemi-huawei-liteos\microsemi-liteos\mscc-huawei-wsp\sc-gd450i-board-test\Debug/../kernel/cpu/arm/cortex-m4/los_dispatch_gcc.S:67

    mov     lr, r5
200003ee:	46ae      	mov	lr, r5
C:\Users\nitin.deshpande\Documents\GitHub\microsemi-huawei-liteos\microsemi-liteos\mscc-huawei-wsp\sc-gd450i-board-test\Debug/../kernel/cpu/arm/cortex-m4/los_dispatch_gcc.S:70
    /*MSR     xPSR, R7*/

    cpsie   I
200003f0:	b662      	cpsie	i
C:\Users\nitin.deshpande\Documents\GitHub\microsemi-huawei-liteos\microsemi-liteos\mscc-huawei-wsp\sc-gd450i-board-test\Debug/../kernel/cpu/arm/cortex-m4/los_dispatch_gcc.S:71
    bx      r6
200003f2:	4730      	bx	r6

200003f4 <LOS_IntNumGet>:
LOS_IntNumGet():
C:\Users\nitin.deshpande\Documents\GitHub\microsemi-huawei-liteos\microsemi-liteos\mscc-huawei-wsp\sc-gd450i-board-test\Debug/../kernel/cpu/arm/cortex-m4/los_dispatch_gcc.S:74

LOS_IntNumGet:
    mrs     r0, ipsr
200003f4:	f3ef 8005 	mrs	r0, IPSR
C:\Users\nitin.deshpande\Documents\GitHub\microsemi-huawei-liteos\microsemi-liteos\mscc-huawei-wsp\sc-gd450i-board-test\Debug/../kernel/cpu/arm/cortex-m4/los_dispatch_gcc.S:75
    bx      lr
200003f8:	4770      	bx	lr

200003fa <osDisableIRQ>:
osDisableIRQ():
C:\Users\nitin.deshpande\Documents\GitHub\microsemi-huawei-liteos\microsemi-liteos\mscc-huawei-wsp\sc-gd450i-board-test\Debug/../kernel/cpu/arm/cortex-m4/los_dispatch_gcc.S:78

osDisableIRQ:
    cpsid   I
200003fa:	b672      	cpsid	i
C:\Users\nitin.deshpande\Documents\GitHub\microsemi-huawei-liteos\microsemi-liteos\mscc-huawei-wsp\sc-gd450i-board-test\Debug/../kernel/cpu/arm/cortex-m4/los_dispatch_gcc.S:79
    bx      lr
200003fc:	4770      	bx	lr

200003fe <LOS_IntLock>:
LOS_IntLock():
C:\Users\nitin.deshpande\Documents\GitHub\microsemi-huawei-liteos\microsemi-liteos\mscc-huawei-wsp\sc-gd450i-board-test\Debug/../kernel/cpu/arm/cortex-m4/los_dispatch_gcc.S:82

LOS_IntLock:
    mrs     r0, PRIMASK
200003fe:	f3ef 8010 	mrs	r0, PRIMASK
C:\Users\nitin.deshpande\Documents\GitHub\microsemi-huawei-liteos\microsemi-liteos\mscc-huawei-wsp\sc-gd450i-board-test\Debug/../kernel/cpu/arm/cortex-m4/los_dispatch_gcc.S:83
    cpsid   I
20000402:	b672      	cpsid	i
C:\Users\nitin.deshpande\Documents\GitHub\microsemi-huawei-liteos\microsemi-liteos\mscc-huawei-wsp\sc-gd450i-board-test\Debug/../kernel/cpu/arm/cortex-m4/los_dispatch_gcc.S:84
    bx      lr
20000404:	4770      	bx	lr

20000406 <LOS_IntUnLock>:
LOS_IntUnLock():
C:\Users\nitin.deshpande\Documents\GitHub\microsemi-huawei-liteos\microsemi-liteos\mscc-huawei-wsp\sc-gd450i-board-test\Debug/../kernel/cpu/arm/cortex-m4/los_dispatch_gcc.S:87

LOS_IntUnLock:
    mrs     r0, PRIMASK
20000406:	f3ef 8010 	mrs	r0, PRIMASK
C:\Users\nitin.deshpande\Documents\GitHub\microsemi-huawei-liteos\microsemi-liteos\mscc-huawei-wsp\sc-gd450i-board-test\Debug/../kernel/cpu/arm/cortex-m4/los_dispatch_gcc.S:88
    cpsie   I
2000040a:	b662      	cpsie	i
C:\Users\nitin.deshpande\Documents\GitHub\microsemi-huawei-liteos\microsemi-liteos\mscc-huawei-wsp\sc-gd450i-board-test\Debug/../kernel/cpu/arm/cortex-m4/los_dispatch_gcc.S:89
    bx      lr
2000040c:	4770      	bx	lr

2000040e <LOS_IntRestore>:
LOS_IntRestore():
C:\Users\nitin.deshpande\Documents\GitHub\microsemi-huawei-liteos\microsemi-liteos\mscc-huawei-wsp\sc-gd450i-board-test\Debug/../kernel/cpu/arm/cortex-m4/los_dispatch_gcc.S:92

LOS_IntRestore:
    msr     PRIMASK, r0
2000040e:	f380 8810 	msr	PRIMASK, r0
C:\Users\nitin.deshpande\Documents\GitHub\microsemi-huawei-liteos\microsemi-liteos\mscc-huawei-wsp\sc-gd450i-board-test\Debug/../kernel/cpu/arm/cortex-m4/los_dispatch_gcc.S:93
    bx      lr
20000412:	4770      	bx	lr

20000414 <osTaskSchedule>:
osTaskSchedule():
C:\Users\nitin.deshpande\Documents\GitHub\microsemi-huawei-liteos\microsemi-liteos\mscc-huawei-wsp\sc-gd450i-board-test\Debug/../kernel/cpu/arm/cortex-m4/los_dispatch_gcc.S:96

osTaskSchedule:
    svc     #0
20000414:	df00      	svc	0
C:\Users\nitin.deshpande\Documents\GitHub\microsemi-huawei-liteos\microsemi-liteos\mscc-huawei-wsp\sc-gd450i-board-test\Debug/../kernel/cpu/arm/cortex-m4/los_dispatch_gcc.S:97
    ldr     r0, =OS_NVIC_INT_CTRL
20000416:	4825      	ldr	r0, [pc, #148]	; (200004ac <TaskSwitch+0x60>)
C:\Users\nitin.deshpande\Documents\GitHub\microsemi-huawei-liteos\microsemi-liteos\mscc-huawei-wsp\sc-gd450i-board-test\Debug/../kernel/cpu/arm/cortex-m4/los_dispatch_gcc.S:98
    ldr     r1, =OS_NVIC_PENDSVSET
20000418:	f04f 5180 	mov.w	r1, #268435456	; 0x10000000
C:\Users\nitin.deshpande\Documents\GitHub\microsemi-huawei-liteos\microsemi-liteos\mscc-huawei-wsp\sc-gd450i-board-test\Debug/../kernel/cpu/arm/cortex-m4/los_dispatch_gcc.S:99
    str     r1, [r0]
2000041c:	6001      	str	r1, [r0, #0]
C:\Users\nitin.deshpande\Documents\GitHub\microsemi-huawei-liteos\microsemi-liteos\mscc-huawei-wsp\sc-gd450i-board-test\Debug/../kernel/cpu/arm/cortex-m4/los_dispatch_gcc.S:100
    bx      lr
2000041e:	4770      	bx	lr

20000420 <SVC_Handler>:
SVC_Handler():
C:\Users\nitin.deshpande\Documents\GitHub\microsemi-huawei-liteos\microsemi-liteos\mscc-huawei-wsp\sc-gd450i-board-test\Debug/../kernel/cpu/arm/cortex-m4/los_dispatch_gcc.S:105


    .type SVC_Handler, %function
SVC_Handler:
    tst     lr, #(1 << 2)
20000420:	f01e 0f04 	tst.w	lr, #4
C:\Users\nitin.deshpande\Documents\GitHub\microsemi-huawei-liteos\microsemi-liteos\mscc-huawei-wsp\sc-gd450i-board-test\Debug/../kernel/cpu/arm/cortex-m4/los_dispatch_gcc.S:106
    bne     1f
20000424:	d100      	bne.n	20000428 <SVC_Handler+0x8>
C:\Users\nitin.deshpande\Documents\GitHub\microsemi-huawei-liteos\microsemi-liteos\mscc-huawei-wsp\sc-gd450i-board-test\Debug/../kernel/cpu/arm/cortex-m4/los_dispatch_gcc.S:108

    bx      lr
20000426:	4770      	bx	lr
C:\Users\nitin.deshpande\Documents\GitHub\microsemi-huawei-liteos\microsemi-liteos\mscc-huawei-wsp\sc-gd450i-board-test\Debug/../kernel/cpu/arm/cortex-m4/los_dispatch_gcc.S:109
1:  mrs     r0, CONTROL
20000428:	f3ef 8014 	mrs	r0, CONTROL
C:\Users\nitin.deshpande\Documents\GitHub\microsemi-huawei-liteos\microsemi-liteos\mscc-huawei-wsp\sc-gd450i-board-test\Debug/../kernel/cpu/arm/cortex-m4/los_dispatch_gcc.S:110
    bics    r0, r0, #1
2000042c:	f030 0001 	bics.w	r0, r0, #1
C:\Users\nitin.deshpande\Documents\GitHub\microsemi-huawei-liteos\microsemi-liteos\mscc-huawei-wsp\sc-gd450i-board-test\Debug/../kernel/cpu/arm/cortex-m4/los_dispatch_gcc.S:111
    msr     CONTROL, r0
20000430:	f380 8814 	msr	CONTROL, r0
C:\Users\nitin.deshpande\Documents\GitHub\microsemi-huawei-liteos\microsemi-liteos\mscc-huawei-wsp\sc-gd450i-board-test\Debug/../kernel/cpu/arm/cortex-m4/los_dispatch_gcc.S:112
    bx     lr
20000434:	4770      	bx	lr

20000436 <PendSV_Handler>:
PendSV_Handler():
C:\Users\nitin.deshpande\Documents\GitHub\microsemi-huawei-liteos\microsemi-liteos\mscc-huawei-wsp\sc-gd450i-board-test\Debug/../kernel/cpu/arm/cortex-m4/los_dispatch_gcc.S:120


  
    .type PendSV_Handler, %function
PendSV_Handler:
    mrs     r12, PRIMASK
20000436:	f3ef 8c10 	mrs	ip, PRIMASK
C:\Users\nitin.deshpande\Documents\GitHub\microsemi-huawei-liteos\microsemi-liteos\mscc-huawei-wsp\sc-gd450i-board-test\Debug/../kernel/cpu/arm/cortex-m4/los_dispatch_gcc.S:121
    cpsid   I
2000043a:	b672      	cpsid	i
C:\Users\nitin.deshpande\Documents\GitHub\microsemi-huawei-liteos\microsemi-liteos\mscc-huawei-wsp\sc-gd450i-board-test\Debug/../kernel/cpu/arm/cortex-m4/los_dispatch_gcc.S:123

    ldr     r2, =g_pfnTskSwitchHook
2000043c:	4a1c      	ldr	r2, [pc, #112]	; (200004b0 <TaskSwitch+0x64>)
C:\Users\nitin.deshpande\Documents\GitHub\microsemi-huawei-liteos\microsemi-liteos\mscc-huawei-wsp\sc-gd450i-board-test\Debug/../kernel/cpu/arm/cortex-m4/los_dispatch_gcc.S:124
    ldr     r2, [r2]
2000043e:	6812      	ldr	r2, [r2, #0]
C:\Users\nitin.deshpande\Documents\GitHub\microsemi-huawei-liteos\microsemi-liteos\mscc-huawei-wsp\sc-gd450i-board-test\Debug/../kernel/cpu/arm/cortex-m4/los_dispatch_gcc.S:125
    cbz     r2, TaskSwitch
20000440:	b122      	cbz	r2, 2000044c <TaskSwitch>
C:\Users\nitin.deshpande\Documents\GitHub\microsemi-huawei-liteos\microsemi-liteos\mscc-huawei-wsp\sc-gd450i-board-test\Debug/../kernel/cpu/arm/cortex-m4/los_dispatch_gcc.S:126
    push    {r12, lr}
20000442:	e92d 5000 	stmdb	sp!, {ip, lr}
C:\Users\nitin.deshpande\Documents\GitHub\microsemi-huawei-liteos\microsemi-liteos\mscc-huawei-wsp\sc-gd450i-board-test\Debug/../kernel/cpu/arm/cortex-m4/los_dispatch_gcc.S:127
    blx     r2
20000446:	4790      	blx	r2
C:\Users\nitin.deshpande\Documents\GitHub\microsemi-huawei-liteos\microsemi-liteos\mscc-huawei-wsp\sc-gd450i-board-test\Debug/../kernel/cpu/arm/cortex-m4/los_dispatch_gcc.S:128
    pop     {r12, lr}
20000448:	e8bd 5000 	ldmia.w	sp!, {ip, lr}

2000044c <TaskSwitch>:
TaskSwitch():
C:\Users\nitin.deshpande\Documents\GitHub\microsemi-huawei-liteos\microsemi-liteos\mscc-huawei-wsp\sc-gd450i-board-test\Debug/../kernel/cpu/arm/cortex-m4/los_dispatch_gcc.S:131

TaskSwitch:
    mrs     r0, psp
2000044c:	f3ef 8009 	mrs	r0, PSP
C:\Users\nitin.deshpande\Documents\GitHub\microsemi-huawei-liteos\microsemi-liteos\mscc-huawei-wsp\sc-gd450i-board-test\Debug/../kernel/cpu/arm/cortex-m4/los_dispatch_gcc.S:133

    stmfd   r0!, {r4-r12}
20000450:	e920 1ff0 	stmdb	r0!, {r4, r5, r6, r7, r8, r9, sl, fp, ip}
C:\Users\nitin.deshpande\Documents\GitHub\microsemi-huawei-liteos\microsemi-liteos\mscc-huawei-wsp\sc-gd450i-board-test\Debug/../kernel/cpu/arm/cortex-m4/los_dispatch_gcc.S:134
    vstmdb  r0!, {d8-d15}
20000454:	ed20 8b10 	vstmdb	r0!, {d8-d15}
C:\Users\nitin.deshpande\Documents\GitHub\microsemi-huawei-liteos\microsemi-liteos\mscc-huawei-wsp\sc-gd450i-board-test\Debug/../kernel/cpu/arm/cortex-m4/los_dispatch_gcc.S:136

    ldr     r5, =g_stLosTask
20000458:	4d13      	ldr	r5, [pc, #76]	; (200004a8 <TaskSwitch+0x5c>)
C:\Users\nitin.deshpande\Documents\GitHub\microsemi-huawei-liteos\microsemi-liteos\mscc-huawei-wsp\sc-gd450i-board-test\Debug/../kernel/cpu/arm/cortex-m4/los_dispatch_gcc.S:137
    ldr     r6, [r5]
2000045a:	682e      	ldr	r6, [r5, #0]
C:\Users\nitin.deshpande\Documents\GitHub\microsemi-huawei-liteos\microsemi-liteos\mscc-huawei-wsp\sc-gd450i-board-test\Debug/../kernel/cpu/arm/cortex-m4/los_dispatch_gcc.S:138
    str     r0, [r6]
2000045c:	6030      	str	r0, [r6, #0]
C:\Users\nitin.deshpande\Documents\GitHub\microsemi-huawei-liteos\microsemi-liteos\mscc-huawei-wsp\sc-gd450i-board-test\Debug/../kernel/cpu/arm/cortex-m4/los_dispatch_gcc.S:141


    ldrh    r7, [r6 , #4]
2000045e:	88b7      	ldrh	r7, [r6, #4]
C:\Users\nitin.deshpande\Documents\GitHub\microsemi-huawei-liteos\microsemi-liteos\mscc-huawei-wsp\sc-gd450i-board-test\Debug/../kernel/cpu/arm/cortex-m4/los_dispatch_gcc.S:142
    mov     r8,#OS_TASK_STATUS_RUNNING
20000460:	f04f 0810 	mov.w	r8, #16
C:\Users\nitin.deshpande\Documents\GitHub\microsemi-huawei-liteos\microsemi-liteos\mscc-huawei-wsp\sc-gd450i-board-test\Debug/../kernel/cpu/arm/cortex-m4/los_dispatch_gcc.S:143
    bic     r7, r7, r8
20000464:	ea27 0708 	bic.w	r7, r7, r8
C:\Users\nitin.deshpande\Documents\GitHub\microsemi-huawei-liteos\microsemi-liteos\mscc-huawei-wsp\sc-gd450i-board-test\Debug/../kernel/cpu/arm/cortex-m4/los_dispatch_gcc.S:144
    strh    r7, [r6 , #4]
20000468:	80b7      	strh	r7, [r6, #4]
C:\Users\nitin.deshpande\Documents\GitHub\microsemi-huawei-liteos\microsemi-liteos\mscc-huawei-wsp\sc-gd450i-board-test\Debug/../kernel/cpu/arm/cortex-m4/los_dispatch_gcc.S:147


    ldr     r0, =g_stLosTask
2000046a:	480f      	ldr	r0, [pc, #60]	; (200004a8 <TaskSwitch+0x5c>)
C:\Users\nitin.deshpande\Documents\GitHub\microsemi-huawei-liteos\microsemi-liteos\mscc-huawei-wsp\sc-gd450i-board-test\Debug/../kernel/cpu/arm/cortex-m4/los_dispatch_gcc.S:148
    ldr     r0, [r0, #4]
2000046c:	6840      	ldr	r0, [r0, #4]
C:\Users\nitin.deshpande\Documents\GitHub\microsemi-huawei-liteos\microsemi-liteos\mscc-huawei-wsp\sc-gd450i-board-test\Debug/../kernel/cpu/arm/cortex-m4/los_dispatch_gcc.S:149
    str     r0, [r5]
2000046e:	6028      	str	r0, [r5, #0]
C:\Users\nitin.deshpande\Documents\GitHub\microsemi-huawei-liteos\microsemi-liteos\mscc-huawei-wsp\sc-gd450i-board-test\Debug/../kernel/cpu/arm/cortex-m4/los_dispatch_gcc.S:152


    ldrh    r7, [r0 , #4]
20000470:	8887      	ldrh	r7, [r0, #4]
C:\Users\nitin.deshpande\Documents\GitHub\microsemi-huawei-liteos\microsemi-liteos\mscc-huawei-wsp\sc-gd450i-board-test\Debug/../kernel/cpu/arm/cortex-m4/los_dispatch_gcc.S:153
    mov     r8,  #OS_TASK_STATUS_RUNNING
20000472:	f04f 0810 	mov.w	r8, #16
C:\Users\nitin.deshpande\Documents\GitHub\microsemi-huawei-liteos\microsemi-liteos\mscc-huawei-wsp\sc-gd450i-board-test\Debug/../kernel/cpu/arm/cortex-m4/los_dispatch_gcc.S:154
    orr     r7, r7, r8
20000476:	ea47 0708 	orr.w	r7, r7, r8
C:\Users\nitin.deshpande\Documents\GitHub\microsemi-huawei-liteos\microsemi-liteos\mscc-huawei-wsp\sc-gd450i-board-test\Debug/../kernel/cpu/arm/cortex-m4/los_dispatch_gcc.S:155
    strh    r7,  [r0 , #4]
2000047a:	8087      	strh	r7, [r0, #4]
C:\Users\nitin.deshpande\Documents\GitHub\microsemi-huawei-liteos\microsemi-liteos\mscc-huawei-wsp\sc-gd450i-board-test\Debug/../kernel/cpu/arm/cortex-m4/los_dispatch_gcc.S:157

    ldr     r1,   [r0]
2000047c:	6801      	ldr	r1, [r0, #0]
C:\Users\nitin.deshpande\Documents\GitHub\microsemi-huawei-liteos\microsemi-liteos\mscc-huawei-wsp\sc-gd450i-board-test\Debug/../kernel/cpu/arm/cortex-m4/los_dispatch_gcc.S:158
    vldmia  r1!, {d8-d15}
2000047e:	ecb1 8b10 	vldmia	r1!, {d8-d15}
C:\Users\nitin.deshpande\Documents\GitHub\microsemi-huawei-liteos\microsemi-liteos\mscc-huawei-wsp\sc-gd450i-board-test\Debug/../kernel/cpu/arm/cortex-m4/los_dispatch_gcc.S:159
    ldmfd   r1!, {r4-r12}
20000482:	e8b1 1ff0 	ldmia.w	r1!, {r4, r5, r6, r7, r8, r9, sl, fp, ip}
C:\Users\nitin.deshpande\Documents\GitHub\microsemi-huawei-liteos\microsemi-liteos\mscc-huawei-wsp\sc-gd450i-board-test\Debug/../kernel/cpu/arm/cortex-m4/los_dispatch_gcc.S:160
    msr     psp,  r1
20000486:	f381 8809 	msr	PSP, r1
C:\Users\nitin.deshpande\Documents\GitHub\microsemi-huawei-liteos\microsemi-liteos\mscc-huawei-wsp\sc-gd450i-board-test\Debug/../kernel/cpu/arm/cortex-m4/los_dispatch_gcc.S:162

    msr     PRIMASK, r12
2000048a:	f38c 8810 	msr	PRIMASK, ip
C:\Users\nitin.deshpande\Documents\GitHub\microsemi-huawei-liteos\microsemi-liteos\mscc-huawei-wsp\sc-gd450i-board-test\Debug/../kernel/cpu/arm/cortex-m4/los_dispatch_gcc.S:164

    mrs     r0, CONTROL
2000048e:	f3ef 8014 	mrs	r0, CONTROL
C:\Users\nitin.deshpande\Documents\GitHub\microsemi-huawei-liteos\microsemi-liteos\mscc-huawei-wsp\sc-gd450i-board-test\Debug/../kernel/cpu/arm/cortex-m4/los_dispatch_gcc.S:165
    orr     r0, r0, #1
20000492:	f040 0001 	orr.w	r0, r0, #1
C:\Users\nitin.deshpande\Documents\GitHub\microsemi-huawei-liteos\microsemi-liteos\mscc-huawei-wsp\sc-gd450i-board-test\Debug/../kernel/cpu/arm/cortex-m4/los_dispatch_gcc.S:166
    msr     CONTROL, r0
20000496:	f380 8814 	msr	CONTROL, r0
C:\Users\nitin.deshpande\Documents\GitHub\microsemi-huawei-liteos\microsemi-liteos\mscc-huawei-wsp\sc-gd450i-board-test\Debug/../kernel/cpu/arm/cortex-m4/los_dispatch_gcc.S:168
    
    bx      lr
2000049a:	4770      	bx	lr
C:\Users\nitin.deshpande\Documents\GitHub\microsemi-huawei-liteos\microsemi-liteos\mscc-huawei-wsp\sc-gd450i-board-test\Debug/../kernel/cpu/arm/cortex-m4/los_dispatch_gcc.S:30
    ldr     r4, =OS_NVIC_SYSPRI2
2000049c:	e000ed20 	.word	0xe000ed20
C:\Users\nitin.deshpande\Documents\GitHub\microsemi-huawei-liteos\microsemi-liteos\mscc-huawei-wsp\sc-gd450i-board-test\Debug/../kernel/cpu/arm/cortex-m4/los_dispatch_gcc.S:31
    ldr     r5, =OS_NVIC_PENDSV_PRI
200004a0:	f0f00000 	.word	0xf0f00000
C:\Users\nitin.deshpande\Documents\GitHub\microsemi-huawei-liteos\microsemi-liteos\mscc-huawei-wsp\sc-gd450i-board-test\Debug/../kernel/cpu/arm/cortex-m4/los_dispatch_gcc.S:34
    ldr     r0, =g_bTaskScheduled
200004a4:	20004974 	.word	0x20004974
C:\Users\nitin.deshpande\Documents\GitHub\microsemi-huawei-liteos\microsemi-liteos\mscc-huawei-wsp\sc-gd450i-board-test\Debug/../kernel/cpu/arm/cortex-m4/los_dispatch_gcc.S:42
    ldr     r0, =g_stLosTask
200004a8:	2000496c 	.word	0x2000496c
C:\Users\nitin.deshpande\Documents\GitHub\microsemi-huawei-liteos\microsemi-liteos\mscc-huawei-wsp\sc-gd450i-board-test\Debug/../kernel/cpu/arm/cortex-m4/los_dispatch_gcc.S:97
    ldr     r0, =OS_NVIC_INT_CTRL
200004ac:	e000ed04 	.word	0xe000ed04
C:\Users\nitin.deshpande\Documents\GitHub\microsemi-huawei-liteos\microsemi-liteos\mscc-huawei-wsp\sc-gd450i-board-test\Debug/../kernel/cpu/arm/cortex-m4/los_dispatch_gcc.S:123
    ldr     r2, =g_pfnTskSwitchHook
200004b0:	200047fc 	.word	0x200047fc

200004b4 <osSchedule>:
osSchedule():
C:\Users\nitin.deshpande\Documents\GitHub\microsemi-huawei-liteos\microsemi-liteos\mscc-huawei-wsp\sc-gd450i-board-test\Debug/../kernel/cpu/arm/cortex-m4/los_hw.c:56
 Input       : None
 Output      : None
 Return      : None
 *****************************************************************************/
VOID osSchedule(VOID)
{
200004b4:	b580      	push	{r7, lr}
200004b6:	af00      	add	r7, sp, #0
C:\Users\nitin.deshpande\Documents\GitHub\microsemi-huawei-liteos\microsemi-liteos\mscc-huawei-wsp\sc-gd450i-board-test\Debug/../kernel/cpu/arm/cortex-m4/los_hw.c:57
    osTaskSchedule();
200004b8:	f7ff ffac 	bl	20000414 <osTaskSchedule>
C:\Users\nitin.deshpande\Documents\GitHub\microsemi-huawei-liteos\microsemi-liteos\mscc-huawei-wsp\sc-gd450i-board-test\Debug/../kernel/cpu/arm/cortex-m4/los_hw.c:58
}
200004bc:	bf00      	nop
200004be:	bd80      	pop	{r7, pc}

200004c0 <LOS_Schedule>:
LOS_Schedule():
C:\Users\nitin.deshpande\Documents\GitHub\microsemi-huawei-liteos\microsemi-liteos\mscc-huawei-wsp\sc-gd450i-board-test\Debug/../kernel/cpu/arm/cortex-m4/los_hw.c:68
 Input       : None
 Output      : None
 Return      : None
 *****************************************************************************/
VOID LOS_Schedule(VOID)
{
200004c0:	b580      	push	{r7, lr}
200004c2:	b082      	sub	sp, #8
200004c4:	af00      	add	r7, sp, #0
C:\Users\nitin.deshpande\Documents\GitHub\microsemi-huawei-liteos\microsemi-liteos\mscc-huawei-wsp\sc-gd450i-board-test\Debug/../kernel/cpu/arm/cortex-m4/los_hw.c:70
    UINTPTR uvIntSave;
    uvIntSave = LOS_IntLock();
200004c6:	f7ff ff9a 	bl	200003fe <LOS_IntLock>
200004ca:	6078      	str	r0, [r7, #4]
C:\Users\nitin.deshpande\Documents\GitHub\microsemi-huawei-liteos\microsemi-liteos\mscc-huawei-wsp\sc-gd450i-board-test\Debug/../kernel/cpu/arm/cortex-m4/los_hw.c:73

    /* Find the highest task */
    g_stLosTask.pstNewTask = LOS_DL_LIST_ENTRY(LOS_PriqueueTop(), LOS_TASK_CB, stPendList);
200004cc:	f001 fe3a 	bl	20002144 <LOS_PriqueueTop>
200004d0:	4603      	mov	r3, r0
200004d2:	3b3c      	subs	r3, #60	; 0x3c
200004d4:	4a0b      	ldr	r2, [pc, #44]	; (20000504 <LOS_Schedule+0x44>)
200004d6:	6053      	str	r3, [r2, #4]
C:\Users\nitin.deshpande\Documents\GitHub\microsemi-huawei-liteos\microsemi-liteos\mscc-huawei-wsp\sc-gd450i-board-test\Debug/../kernel/cpu/arm/cortex-m4/los_hw.c:76

    /* In case that running is not highest then reschedule */
    if (g_stLosTask.pstRunTask != g_stLosTask.pstNewTask)
200004d8:	4b0a      	ldr	r3, [pc, #40]	; (20000504 <LOS_Schedule+0x44>)
200004da:	681a      	ldr	r2, [r3, #0]
200004dc:	4b09      	ldr	r3, [pc, #36]	; (20000504 <LOS_Schedule+0x44>)
200004de:	685b      	ldr	r3, [r3, #4]
200004e0:	429a      	cmp	r2, r3
200004e2:	d009      	beq.n	200004f8 <LOS_Schedule+0x38>
C:\Users\nitin.deshpande\Documents\GitHub\microsemi-huawei-liteos\microsemi-liteos\mscc-huawei-wsp\sc-gd450i-board-test\Debug/../kernel/cpu/arm/cortex-m4/los_hw.c:78
    {
        if ((!g_usLosTaskLock))
200004e4:	4b08      	ldr	r3, [pc, #32]	; (20000508 <LOS_Schedule+0x48>)
200004e6:	881b      	ldrh	r3, [r3, #0]
200004e8:	2b00      	cmp	r3, #0
200004ea:	d105      	bne.n	200004f8 <LOS_Schedule+0x38>
C:\Users\nitin.deshpande\Documents\GitHub\microsemi-huawei-liteos\microsemi-liteos\mscc-huawei-wsp\sc-gd450i-board-test\Debug/../kernel/cpu/arm/cortex-m4/los_hw.c:80
        {
            (VOID)LOS_IntRestore(uvIntSave);
200004ec:	6878      	ldr	r0, [r7, #4]
200004ee:	f7ff ff8e 	bl	2000040e <LOS_IntRestore>
C:\Users\nitin.deshpande\Documents\GitHub\microsemi-huawei-liteos\microsemi-liteos\mscc-huawei-wsp\sc-gd450i-board-test\Debug/../kernel/cpu/arm/cortex-m4/los_hw.c:82

            osTaskSchedule();
200004f2:	f7ff ff8f 	bl	20000414 <osTaskSchedule>
C:\Users\nitin.deshpande\Documents\GitHub\microsemi-huawei-liteos\microsemi-liteos\mscc-huawei-wsp\sc-gd450i-board-test\Debug/../kernel/cpu/arm/cortex-m4/los_hw.c:84

            return;
200004f6:	e002      	b.n	200004fe <LOS_Schedule+0x3e>
C:\Users\nitin.deshpande\Documents\GitHub\microsemi-huawei-liteos\microsemi-liteos\mscc-huawei-wsp\sc-gd450i-board-test\Debug/../kernel/cpu/arm/cortex-m4/los_hw.c:88
        }
    }

    (VOID)LOS_IntRestore(uvIntSave);
200004f8:	6878      	ldr	r0, [r7, #4]
200004fa:	f7ff ff88 	bl	2000040e <LOS_IntRestore>
C:\Users\nitin.deshpande\Documents\GitHub\microsemi-huawei-liteos\microsemi-liteos\mscc-huawei-wsp\sc-gd450i-board-test\Debug/../kernel/cpu/arm/cortex-m4/los_hw.c:89
}
200004fe:	3708      	adds	r7, #8
20000500:	46bd      	mov	sp, r7
20000502:	bd80      	pop	{r7, pc}
20000504:	2000496c 	.word	0x2000496c
20000508:	20004968 	.word	0x20004968

2000050c <osTaskExit>:
osTaskExit():
C:\Users\nitin.deshpande\Documents\GitHub\microsemi-huawei-liteos\microsemi-liteos\mscc-huawei-wsp\sc-gd450i-board-test\Debug/../kernel/cpu/arm/cortex-m4/los_hw.c:99
 Input       : None
 Output      : None
 Return      : None
 *****************************************************************************/
LITE_OS_SEC_TEXT_MINOR VOID osTaskExit(VOID)
{
2000050c:	b580      	push	{r7, lr}
2000050e:	af00      	add	r7, sp, #0
C:\Users\nitin.deshpande\Documents\GitHub\microsemi-huawei-liteos\microsemi-liteos\mscc-huawei-wsp\sc-gd450i-board-test\Debug/../kernel/cpu/arm/cortex-m4/los_hw.c:100
    osDisableIRQ();
20000510:	f7ff ff73 	bl	200003fa <osDisableIRQ>
C:\Users\nitin.deshpande\Documents\GitHub\microsemi-huawei-liteos\microsemi-liteos\mscc-huawei-wsp\sc-gd450i-board-test\Debug/../kernel/cpu/arm/cortex-m4/los_hw.c:101 (discriminator 1)
    while(1);
20000514:	e7fe      	b.n	20000514 <osTaskExit+0x8>
	...

20000518 <osTskStackInit>:
osTskStackInit():
C:\Users\nitin.deshpande\Documents\GitHub\microsemi-huawei-liteos\microsemi-liteos\mscc-huawei-wsp\sc-gd450i-board-test\Debug/../kernel/cpu/arm/cortex-m4/los_hw.c:114
               pTopStack    --- Top of task's stack
 Output      : None
 Return      : Context pointer
 *****************************************************************************/
LITE_OS_SEC_TEXT_INIT VOID *osTskStackInit(UINT32 uwTaskID, UINT32 uwStackSize, VOID *pTopStack)
{
20000518:	b480      	push	{r7}
2000051a:	b087      	sub	sp, #28
2000051c:	af00      	add	r7, sp, #0
2000051e:	60f8      	str	r0, [r7, #12]
20000520:	60b9      	str	r1, [r7, #8]
20000522:	607a      	str	r2, [r7, #4]
C:\Users\nitin.deshpande\Documents\GitHub\microsemi-huawei-liteos\microsemi-liteos\mscc-huawei-wsp\sc-gd450i-board-test\Debug/../kernel/cpu/arm/cortex-m4/los_hw.c:119
    UINT32 uwIdx;
    TSK_CONTEXT_S  *pstContext;

    /*initialize the task stack, write magic num to stack top*/
    for (uwIdx = 1; uwIdx < (uwStackSize/sizeof(UINT32)); uwIdx++)
20000524:	2301      	movs	r3, #1
20000526:	617b      	str	r3, [r7, #20]
20000528:	e009      	b.n	2000053e <osTskStackInit+0x26>
C:\Users\nitin.deshpande\Documents\GitHub\microsemi-huawei-liteos\microsemi-liteos\mscc-huawei-wsp\sc-gd450i-board-test\Debug/../kernel/cpu/arm/cortex-m4/los_hw.c:121 (discriminator 3)
    {
        *((UINT32 *)pTopStack + uwIdx) = OS_TASK_STACK_INIT;
2000052a:	697b      	ldr	r3, [r7, #20]
2000052c:	009b      	lsls	r3, r3, #2
2000052e:	687a      	ldr	r2, [r7, #4]
20000530:	4413      	add	r3, r2
20000532:	f04f 32ca 	mov.w	r2, #3402287818	; 0xcacacaca
20000536:	601a      	str	r2, [r3, #0]
C:\Users\nitin.deshpande\Documents\GitHub\microsemi-huawei-liteos\microsemi-liteos\mscc-huawei-wsp\sc-gd450i-board-test\Debug/../kernel/cpu/arm/cortex-m4/los_hw.c:119 (discriminator 3)
    for (uwIdx = 1; uwIdx < (uwStackSize/sizeof(UINT32)); uwIdx++)
20000538:	697b      	ldr	r3, [r7, #20]
2000053a:	3301      	adds	r3, #1
2000053c:	617b      	str	r3, [r7, #20]
C:\Users\nitin.deshpande\Documents\GitHub\microsemi-huawei-liteos\microsemi-liteos\mscc-huawei-wsp\sc-gd450i-board-test\Debug/../kernel/cpu/arm/cortex-m4/los_hw.c:119 (discriminator 1)
2000053e:	68bb      	ldr	r3, [r7, #8]
20000540:	089a      	lsrs	r2, r3, #2
20000542:	697b      	ldr	r3, [r7, #20]
20000544:	429a      	cmp	r2, r3
20000546:	d8f0      	bhi.n	2000052a <osTskStackInit+0x12>
C:\Users\nitin.deshpande\Documents\GitHub\microsemi-huawei-liteos\microsemi-liteos\mscc-huawei-wsp\sc-gd450i-board-test\Debug/../kernel/cpu/arm/cortex-m4/los_hw.c:123
    }
    *((UINT32 *)(pTopStack)) = OS_TASK_MAGIC_WORD;
20000548:	687b      	ldr	r3, [r7, #4]
2000054a:	f04f 32cc 	mov.w	r2, #3435973836	; 0xcccccccc
2000054e:	601a      	str	r2, [r3, #0]
C:\Users\nitin.deshpande\Documents\GitHub\microsemi-huawei-liteos\microsemi-liteos\mscc-huawei-wsp\sc-gd450i-board-test\Debug/../kernel/cpu/arm/cortex-m4/los_hw.c:125

    pstContext    = (TSK_CONTEXT_S *)(((UINT32)pTopStack + uwStackSize) - sizeof(TSK_CONTEXT_S));
20000550:	687a      	ldr	r2, [r7, #4]
20000552:	68bb      	ldr	r3, [r7, #8]
20000554:	4413      	add	r3, r2
20000556:	3bcc      	subs	r3, #204	; 0xcc
20000558:	613b      	str	r3, [r7, #16]
C:\Users\nitin.deshpande\Documents\GitHub\microsemi-huawei-liteos\microsemi-liteos\mscc-huawei-wsp\sc-gd450i-board-test\Debug/../kernel/cpu/arm/cortex-m4/los_hw.c:127
#if 1
    pstContext->S16 = 0xAA000010;
2000055a:	693b      	ldr	r3, [r7, #16]
2000055c:	4a5f      	ldr	r2, [pc, #380]	; (200006dc <osTskStackInit+0x1c4>)
2000055e:	601a      	str	r2, [r3, #0]
C:\Users\nitin.deshpande\Documents\GitHub\microsemi-huawei-liteos\microsemi-liteos\mscc-huawei-wsp\sc-gd450i-board-test\Debug/../kernel/cpu/arm/cortex-m4/los_hw.c:128
    pstContext->S17 = 0xAA000011;
20000560:	693b      	ldr	r3, [r7, #16]
20000562:	4a5f      	ldr	r2, [pc, #380]	; (200006e0 <osTskStackInit+0x1c8>)
20000564:	605a      	str	r2, [r3, #4]
C:\Users\nitin.deshpande\Documents\GitHub\microsemi-huawei-liteos\microsemi-liteos\mscc-huawei-wsp\sc-gd450i-board-test\Debug/../kernel/cpu/arm/cortex-m4/los_hw.c:129
    pstContext->S18 = 0xAA000012;
20000566:	693b      	ldr	r3, [r7, #16]
20000568:	4a5e      	ldr	r2, [pc, #376]	; (200006e4 <osTskStackInit+0x1cc>)
2000056a:	609a      	str	r2, [r3, #8]
C:\Users\nitin.deshpande\Documents\GitHub\microsemi-huawei-liteos\microsemi-liteos\mscc-huawei-wsp\sc-gd450i-board-test\Debug/../kernel/cpu/arm/cortex-m4/los_hw.c:130
    pstContext->S19 = 0xAA000013;
2000056c:	693b      	ldr	r3, [r7, #16]
2000056e:	4a5e      	ldr	r2, [pc, #376]	; (200006e8 <osTskStackInit+0x1d0>)
20000570:	60da      	str	r2, [r3, #12]
C:\Users\nitin.deshpande\Documents\GitHub\microsemi-huawei-liteos\microsemi-liteos\mscc-huawei-wsp\sc-gd450i-board-test\Debug/../kernel/cpu/arm/cortex-m4/los_hw.c:131
    pstContext->S20 = 0xAA000014;
20000572:	693b      	ldr	r3, [r7, #16]
20000574:	4a5d      	ldr	r2, [pc, #372]	; (200006ec <osTskStackInit+0x1d4>)
20000576:	611a      	str	r2, [r3, #16]
C:\Users\nitin.deshpande\Documents\GitHub\microsemi-huawei-liteos\microsemi-liteos\mscc-huawei-wsp\sc-gd450i-board-test\Debug/../kernel/cpu/arm/cortex-m4/los_hw.c:132
    pstContext->S21 = 0xAA000015;
20000578:	693b      	ldr	r3, [r7, #16]
2000057a:	4a5d      	ldr	r2, [pc, #372]	; (200006f0 <osTskStackInit+0x1d8>)
2000057c:	615a      	str	r2, [r3, #20]
C:\Users\nitin.deshpande\Documents\GitHub\microsemi-huawei-liteos\microsemi-liteos\mscc-huawei-wsp\sc-gd450i-board-test\Debug/../kernel/cpu/arm/cortex-m4/los_hw.c:133
    pstContext->S22 = 0xAA000016;
2000057e:	693b      	ldr	r3, [r7, #16]
20000580:	4a5c      	ldr	r2, [pc, #368]	; (200006f4 <osTskStackInit+0x1dc>)
20000582:	619a      	str	r2, [r3, #24]
C:\Users\nitin.deshpande\Documents\GitHub\microsemi-huawei-liteos\microsemi-liteos\mscc-huawei-wsp\sc-gd450i-board-test\Debug/../kernel/cpu/arm/cortex-m4/los_hw.c:134
    pstContext->S23 = 0xAA000017;
20000584:	693b      	ldr	r3, [r7, #16]
20000586:	4a5c      	ldr	r2, [pc, #368]	; (200006f8 <osTskStackInit+0x1e0>)
20000588:	61da      	str	r2, [r3, #28]
C:\Users\nitin.deshpande\Documents\GitHub\microsemi-huawei-liteos\microsemi-liteos\mscc-huawei-wsp\sc-gd450i-board-test\Debug/../kernel/cpu/arm/cortex-m4/los_hw.c:135
    pstContext->S24 = 0xAA000018;
2000058a:	693b      	ldr	r3, [r7, #16]
2000058c:	4a5b      	ldr	r2, [pc, #364]	; (200006fc <osTskStackInit+0x1e4>)
2000058e:	621a      	str	r2, [r3, #32]
C:\Users\nitin.deshpande\Documents\GitHub\microsemi-huawei-liteos\microsemi-liteos\mscc-huawei-wsp\sc-gd450i-board-test\Debug/../kernel/cpu/arm/cortex-m4/los_hw.c:136
    pstContext->S25 = 0xAA000019;
20000590:	693b      	ldr	r3, [r7, #16]
20000592:	4a5b      	ldr	r2, [pc, #364]	; (20000700 <osTskStackInit+0x1e8>)
20000594:	625a      	str	r2, [r3, #36]	; 0x24
C:\Users\nitin.deshpande\Documents\GitHub\microsemi-huawei-liteos\microsemi-liteos\mscc-huawei-wsp\sc-gd450i-board-test\Debug/../kernel/cpu/arm/cortex-m4/los_hw.c:137
    pstContext->S26 = 0xAA00001A;
20000596:	693b      	ldr	r3, [r7, #16]
20000598:	4a5a      	ldr	r2, [pc, #360]	; (20000704 <osTskStackInit+0x1ec>)
2000059a:	629a      	str	r2, [r3, #40]	; 0x28
C:\Users\nitin.deshpande\Documents\GitHub\microsemi-huawei-liteos\microsemi-liteos\mscc-huawei-wsp\sc-gd450i-board-test\Debug/../kernel/cpu/arm/cortex-m4/los_hw.c:138
    pstContext->S27 = 0xAA00001B;
2000059c:	693b      	ldr	r3, [r7, #16]
2000059e:	4a5a      	ldr	r2, [pc, #360]	; (20000708 <osTskStackInit+0x1f0>)
200005a0:	62da      	str	r2, [r3, #44]	; 0x2c
C:\Users\nitin.deshpande\Documents\GitHub\microsemi-huawei-liteos\microsemi-liteos\mscc-huawei-wsp\sc-gd450i-board-test\Debug/../kernel/cpu/arm/cortex-m4/los_hw.c:139
    pstContext->S28 = 0xAA00001C;
200005a2:	693b      	ldr	r3, [r7, #16]
200005a4:	4a59      	ldr	r2, [pc, #356]	; (2000070c <osTskStackInit+0x1f4>)
200005a6:	631a      	str	r2, [r3, #48]	; 0x30
C:\Users\nitin.deshpande\Documents\GitHub\microsemi-huawei-liteos\microsemi-liteos\mscc-huawei-wsp\sc-gd450i-board-test\Debug/../kernel/cpu/arm/cortex-m4/los_hw.c:140
    pstContext->S29 = 0xAA00001D;
200005a8:	693b      	ldr	r3, [r7, #16]
200005aa:	4a59      	ldr	r2, [pc, #356]	; (20000710 <osTskStackInit+0x1f8>)
200005ac:	635a      	str	r2, [r3, #52]	; 0x34
C:\Users\nitin.deshpande\Documents\GitHub\microsemi-huawei-liteos\microsemi-liteos\mscc-huawei-wsp\sc-gd450i-board-test\Debug/../kernel/cpu/arm/cortex-m4/los_hw.c:141
    pstContext->S30 = 0xAA00001E;
200005ae:	693b      	ldr	r3, [r7, #16]
200005b0:	4a58      	ldr	r2, [pc, #352]	; (20000714 <osTskStackInit+0x1fc>)
200005b2:	639a      	str	r2, [r3, #56]	; 0x38
C:\Users\nitin.deshpande\Documents\GitHub\microsemi-huawei-liteos\microsemi-liteos\mscc-huawei-wsp\sc-gd450i-board-test\Debug/../kernel/cpu/arm/cortex-m4/los_hw.c:142
    pstContext->S31 = 0xAA00001F;
200005b4:	693b      	ldr	r3, [r7, #16]
200005b6:	4a58      	ldr	r2, [pc, #352]	; (20000718 <osTskStackInit+0x200>)
200005b8:	63da      	str	r2, [r3, #60]	; 0x3c
C:\Users\nitin.deshpande\Documents\GitHub\microsemi-huawei-liteos\microsemi-liteos\mscc-huawei-wsp\sc-gd450i-board-test\Debug/../kernel/cpu/arm/cortex-m4/los_hw.c:144
#endif
    pstContext->uwR4  = 0x04040404L;
200005ba:	693b      	ldr	r3, [r7, #16]
200005bc:	f04f 3204 	mov.w	r2, #67372036	; 0x4040404
200005c0:	641a      	str	r2, [r3, #64]	; 0x40
C:\Users\nitin.deshpande\Documents\GitHub\microsemi-huawei-liteos\microsemi-liteos\mscc-huawei-wsp\sc-gd450i-board-test\Debug/../kernel/cpu/arm/cortex-m4/los_hw.c:145
    pstContext->uwR5  = 0x05050505L;
200005c2:	693b      	ldr	r3, [r7, #16]
200005c4:	f04f 3205 	mov.w	r2, #84215045	; 0x5050505
200005c8:	645a      	str	r2, [r3, #68]	; 0x44
C:\Users\nitin.deshpande\Documents\GitHub\microsemi-huawei-liteos\microsemi-liteos\mscc-huawei-wsp\sc-gd450i-board-test\Debug/../kernel/cpu/arm/cortex-m4/los_hw.c:146
    pstContext->uwR6  = 0x06060606L;
200005ca:	693b      	ldr	r3, [r7, #16]
200005cc:	f04f 3206 	mov.w	r2, #101058054	; 0x6060606
200005d0:	649a      	str	r2, [r3, #72]	; 0x48
C:\Users\nitin.deshpande\Documents\GitHub\microsemi-huawei-liteos\microsemi-liteos\mscc-huawei-wsp\sc-gd450i-board-test\Debug/../kernel/cpu/arm/cortex-m4/los_hw.c:147
    pstContext->uwR7  = 0x07070707L;
200005d2:	693b      	ldr	r3, [r7, #16]
200005d4:	f04f 3207 	mov.w	r2, #117901063	; 0x7070707
200005d8:	64da      	str	r2, [r3, #76]	; 0x4c
C:\Users\nitin.deshpande\Documents\GitHub\microsemi-huawei-liteos\microsemi-liteos\mscc-huawei-wsp\sc-gd450i-board-test\Debug/../kernel/cpu/arm/cortex-m4/los_hw.c:148
    pstContext->uwR8  = 0x08080808L;
200005da:	693b      	ldr	r3, [r7, #16]
200005dc:	f04f 3208 	mov.w	r2, #134744072	; 0x8080808
200005e0:	651a      	str	r2, [r3, #80]	; 0x50
C:\Users\nitin.deshpande\Documents\GitHub\microsemi-huawei-liteos\microsemi-liteos\mscc-huawei-wsp\sc-gd450i-board-test\Debug/../kernel/cpu/arm/cortex-m4/los_hw.c:149
    pstContext->uwR9  = 0x09090909L;
200005e2:	693b      	ldr	r3, [r7, #16]
200005e4:	f04f 3209 	mov.w	r2, #151587081	; 0x9090909
200005e8:	655a      	str	r2, [r3, #84]	; 0x54
C:\Users\nitin.deshpande\Documents\GitHub\microsemi-huawei-liteos\microsemi-liteos\mscc-huawei-wsp\sc-gd450i-board-test\Debug/../kernel/cpu/arm/cortex-m4/los_hw.c:150
    pstContext->uwR10 = 0x10101010L;
200005ea:	693b      	ldr	r3, [r7, #16]
200005ec:	f04f 3210 	mov.w	r2, #269488144	; 0x10101010
200005f0:	659a      	str	r2, [r3, #88]	; 0x58
C:\Users\nitin.deshpande\Documents\GitHub\microsemi-huawei-liteos\microsemi-liteos\mscc-huawei-wsp\sc-gd450i-board-test\Debug/../kernel/cpu/arm/cortex-m4/los_hw.c:151
    pstContext->uwR11 = 0x11111111L;
200005f2:	693b      	ldr	r3, [r7, #16]
200005f4:	f04f 3211 	mov.w	r2, #286331153	; 0x11111111
200005f8:	65da      	str	r2, [r3, #92]	; 0x5c
C:\Users\nitin.deshpande\Documents\GitHub\microsemi-huawei-liteos\microsemi-liteos\mscc-huawei-wsp\sc-gd450i-board-test\Debug/../kernel/cpu/arm/cortex-m4/los_hw.c:152
    pstContext->uwPriMask = 0;
200005fa:	693b      	ldr	r3, [r7, #16]
200005fc:	2200      	movs	r2, #0
200005fe:	661a      	str	r2, [r3, #96]	; 0x60
C:\Users\nitin.deshpande\Documents\GitHub\microsemi-huawei-liteos\microsemi-liteos\mscc-huawei-wsp\sc-gd450i-board-test\Debug/../kernel/cpu/arm/cortex-m4/los_hw.c:153
    pstContext->uwR0  = uwTaskID;
20000600:	693b      	ldr	r3, [r7, #16]
20000602:	68fa      	ldr	r2, [r7, #12]
20000604:	665a      	str	r2, [r3, #100]	; 0x64
C:\Users\nitin.deshpande\Documents\GitHub\microsemi-huawei-liteos\microsemi-liteos\mscc-huawei-wsp\sc-gd450i-board-test\Debug/../kernel/cpu/arm/cortex-m4/los_hw.c:154
    pstContext->uwR1  = 0x01010101L;
20000606:	693b      	ldr	r3, [r7, #16]
20000608:	f04f 3201 	mov.w	r2, #16843009	; 0x1010101
2000060c:	669a      	str	r2, [r3, #104]	; 0x68
C:\Users\nitin.deshpande\Documents\GitHub\microsemi-huawei-liteos\microsemi-liteos\mscc-huawei-wsp\sc-gd450i-board-test\Debug/../kernel/cpu/arm/cortex-m4/los_hw.c:155
    pstContext->uwR2  = 0x02020202L;
2000060e:	693b      	ldr	r3, [r7, #16]
20000610:	f04f 3202 	mov.w	r2, #33686018	; 0x2020202
20000614:	66da      	str	r2, [r3, #108]	; 0x6c
C:\Users\nitin.deshpande\Documents\GitHub\microsemi-huawei-liteos\microsemi-liteos\mscc-huawei-wsp\sc-gd450i-board-test\Debug/../kernel/cpu/arm/cortex-m4/los_hw.c:156
    pstContext->uwR3  = 0x03030303L;
20000616:	693b      	ldr	r3, [r7, #16]
20000618:	f04f 3203 	mov.w	r2, #50529027	; 0x3030303
2000061c:	671a      	str	r2, [r3, #112]	; 0x70
C:\Users\nitin.deshpande\Documents\GitHub\microsemi-huawei-liteos\microsemi-liteos\mscc-huawei-wsp\sc-gd450i-board-test\Debug/../kernel/cpu/arm/cortex-m4/los_hw.c:157
    pstContext->uwR12 = 0x12121212L;
2000061e:	693b      	ldr	r3, [r7, #16]
20000620:	f04f 3212 	mov.w	r2, #303174162	; 0x12121212
20000624:	675a      	str	r2, [r3, #116]	; 0x74
C:\Users\nitin.deshpande\Documents\GitHub\microsemi-huawei-liteos\microsemi-liteos\mscc-huawei-wsp\sc-gd450i-board-test\Debug/../kernel/cpu/arm/cortex-m4/los_hw.c:158
    pstContext->uwLR  = (UINT32)osTaskExit;
20000626:	4a3d      	ldr	r2, [pc, #244]	; (2000071c <osTskStackInit+0x204>)
20000628:	693b      	ldr	r3, [r7, #16]
2000062a:	679a      	str	r2, [r3, #120]	; 0x78
C:\Users\nitin.deshpande\Documents\GitHub\microsemi-huawei-liteos\microsemi-liteos\mscc-huawei-wsp\sc-gd450i-board-test\Debug/../kernel/cpu/arm/cortex-m4/los_hw.c:159
    pstContext->uwPC  = (UINT32)osTaskEntry;
2000062c:	4a3c      	ldr	r2, [pc, #240]	; (20000720 <osTskStackInit+0x208>)
2000062e:	693b      	ldr	r3, [r7, #16]
20000630:	67da      	str	r2, [r3, #124]	; 0x7c
C:\Users\nitin.deshpande\Documents\GitHub\microsemi-huawei-liteos\microsemi-liteos\mscc-huawei-wsp\sc-gd450i-board-test\Debug/../kernel/cpu/arm/cortex-m4/los_hw.c:160
    pstContext->uwxPSR = 0x01000000L;
20000632:	693b      	ldr	r3, [r7, #16]
20000634:	f04f 7280 	mov.w	r2, #16777216	; 0x1000000
20000638:	f8c3 2080 	str.w	r2, [r3, #128]	; 0x80
C:\Users\nitin.deshpande\Documents\GitHub\microsemi-huawei-liteos\microsemi-liteos\mscc-huawei-wsp\sc-gd450i-board-test\Debug/../kernel/cpu/arm/cortex-m4/los_hw.c:162
#if 1
    pstContext->S0 = 0xAA000000;
2000063c:	693b      	ldr	r3, [r7, #16]
2000063e:	f04f 422a 	mov.w	r2, #2852126720	; 0xaa000000
20000642:	f8c3 2084 	str.w	r2, [r3, #132]	; 0x84
C:\Users\nitin.deshpande\Documents\GitHub\microsemi-huawei-liteos\microsemi-liteos\mscc-huawei-wsp\sc-gd450i-board-test\Debug/../kernel/cpu/arm/cortex-m4/los_hw.c:163
    pstContext->S1 = 0xAA000001;
20000646:	693b      	ldr	r3, [r7, #16]
20000648:	4a36      	ldr	r2, [pc, #216]	; (20000724 <osTskStackInit+0x20c>)
2000064a:	f8c3 2088 	str.w	r2, [r3, #136]	; 0x88
C:\Users\nitin.deshpande\Documents\GitHub\microsemi-huawei-liteos\microsemi-liteos\mscc-huawei-wsp\sc-gd450i-board-test\Debug/../kernel/cpu/arm/cortex-m4/los_hw.c:164
    pstContext->S2 = 0xAA000002;
2000064e:	693b      	ldr	r3, [r7, #16]
20000650:	4a35      	ldr	r2, [pc, #212]	; (20000728 <osTskStackInit+0x210>)
20000652:	f8c3 208c 	str.w	r2, [r3, #140]	; 0x8c
C:\Users\nitin.deshpande\Documents\GitHub\microsemi-huawei-liteos\microsemi-liteos\mscc-huawei-wsp\sc-gd450i-board-test\Debug/../kernel/cpu/arm/cortex-m4/los_hw.c:165
    pstContext->S3 = 0xAA000003;
20000656:	693b      	ldr	r3, [r7, #16]
20000658:	4a34      	ldr	r2, [pc, #208]	; (2000072c <osTskStackInit+0x214>)
2000065a:	f8c3 2090 	str.w	r2, [r3, #144]	; 0x90
C:\Users\nitin.deshpande\Documents\GitHub\microsemi-huawei-liteos\microsemi-liteos\mscc-huawei-wsp\sc-gd450i-board-test\Debug/../kernel/cpu/arm/cortex-m4/los_hw.c:166
    pstContext->S4 = 0xAA000004;
2000065e:	693b      	ldr	r3, [r7, #16]
20000660:	4a33      	ldr	r2, [pc, #204]	; (20000730 <osTskStackInit+0x218>)
20000662:	f8c3 2094 	str.w	r2, [r3, #148]	; 0x94
C:\Users\nitin.deshpande\Documents\GitHub\microsemi-huawei-liteos\microsemi-liteos\mscc-huawei-wsp\sc-gd450i-board-test\Debug/../kernel/cpu/arm/cortex-m4/los_hw.c:167
    pstContext->S5 = 0xAA000005;
20000666:	693b      	ldr	r3, [r7, #16]
20000668:	4a32      	ldr	r2, [pc, #200]	; (20000734 <osTskStackInit+0x21c>)
2000066a:	f8c3 2098 	str.w	r2, [r3, #152]	; 0x98
C:\Users\nitin.deshpande\Documents\GitHub\microsemi-huawei-liteos\microsemi-liteos\mscc-huawei-wsp\sc-gd450i-board-test\Debug/../kernel/cpu/arm/cortex-m4/los_hw.c:168
    pstContext->S6 = 0xAA000006;
2000066e:	693b      	ldr	r3, [r7, #16]
20000670:	4a31      	ldr	r2, [pc, #196]	; (20000738 <osTskStackInit+0x220>)
20000672:	f8c3 209c 	str.w	r2, [r3, #156]	; 0x9c
C:\Users\nitin.deshpande\Documents\GitHub\microsemi-huawei-liteos\microsemi-liteos\mscc-huawei-wsp\sc-gd450i-board-test\Debug/../kernel/cpu/arm/cortex-m4/los_hw.c:169
    pstContext->S7 = 0xAA000007;
20000676:	693b      	ldr	r3, [r7, #16]
20000678:	4a30      	ldr	r2, [pc, #192]	; (2000073c <osTskStackInit+0x224>)
2000067a:	f8c3 20a0 	str.w	r2, [r3, #160]	; 0xa0
C:\Users\nitin.deshpande\Documents\GitHub\microsemi-huawei-liteos\microsemi-liteos\mscc-huawei-wsp\sc-gd450i-board-test\Debug/../kernel/cpu/arm/cortex-m4/los_hw.c:170
    pstContext->S8 = 0xAA000008;
2000067e:	693b      	ldr	r3, [r7, #16]
20000680:	4a2f      	ldr	r2, [pc, #188]	; (20000740 <osTskStackInit+0x228>)
20000682:	f8c3 20a4 	str.w	r2, [r3, #164]	; 0xa4
C:\Users\nitin.deshpande\Documents\GitHub\microsemi-huawei-liteos\microsemi-liteos\mscc-huawei-wsp\sc-gd450i-board-test\Debug/../kernel/cpu/arm/cortex-m4/los_hw.c:171
    pstContext->S9 = 0xAA000009;
20000686:	693b      	ldr	r3, [r7, #16]
20000688:	4a2e      	ldr	r2, [pc, #184]	; (20000744 <osTskStackInit+0x22c>)
2000068a:	f8c3 20a8 	str.w	r2, [r3, #168]	; 0xa8
C:\Users\nitin.deshpande\Documents\GitHub\microsemi-huawei-liteos\microsemi-liteos\mscc-huawei-wsp\sc-gd450i-board-test\Debug/../kernel/cpu/arm/cortex-m4/los_hw.c:172
    pstContext->S10 = 0xAA00000A;
2000068e:	693b      	ldr	r3, [r7, #16]
20000690:	4a2d      	ldr	r2, [pc, #180]	; (20000748 <osTskStackInit+0x230>)
20000692:	f8c3 20ac 	str.w	r2, [r3, #172]	; 0xac
C:\Users\nitin.deshpande\Documents\GitHub\microsemi-huawei-liteos\microsemi-liteos\mscc-huawei-wsp\sc-gd450i-board-test\Debug/../kernel/cpu/arm/cortex-m4/los_hw.c:173
    pstContext->S11 = 0xAA00000B;
20000696:	693b      	ldr	r3, [r7, #16]
20000698:	4a2c      	ldr	r2, [pc, #176]	; (2000074c <osTskStackInit+0x234>)
2000069a:	f8c3 20b0 	str.w	r2, [r3, #176]	; 0xb0
C:\Users\nitin.deshpande\Documents\GitHub\microsemi-huawei-liteos\microsemi-liteos\mscc-huawei-wsp\sc-gd450i-board-test\Debug/../kernel/cpu/arm/cortex-m4/los_hw.c:174
    pstContext->S12 = 0xAA00000C;
2000069e:	693b      	ldr	r3, [r7, #16]
200006a0:	4a2b      	ldr	r2, [pc, #172]	; (20000750 <osTskStackInit+0x238>)
200006a2:	f8c3 20b4 	str.w	r2, [r3, #180]	; 0xb4
C:\Users\nitin.deshpande\Documents\GitHub\microsemi-huawei-liteos\microsemi-liteos\mscc-huawei-wsp\sc-gd450i-board-test\Debug/../kernel/cpu/arm/cortex-m4/los_hw.c:175
    pstContext->S13 = 0xAA00000D;
200006a6:	693b      	ldr	r3, [r7, #16]
200006a8:	4a2a      	ldr	r2, [pc, #168]	; (20000754 <osTskStackInit+0x23c>)
200006aa:	f8c3 20b8 	str.w	r2, [r3, #184]	; 0xb8
C:\Users\nitin.deshpande\Documents\GitHub\microsemi-huawei-liteos\microsemi-liteos\mscc-huawei-wsp\sc-gd450i-board-test\Debug/../kernel/cpu/arm/cortex-m4/los_hw.c:176
    pstContext->S14 = 0xAA00000E;
200006ae:	693b      	ldr	r3, [r7, #16]
200006b0:	4a29      	ldr	r2, [pc, #164]	; (20000758 <osTskStackInit+0x240>)
200006b2:	f8c3 20bc 	str.w	r2, [r3, #188]	; 0xbc
C:\Users\nitin.deshpande\Documents\GitHub\microsemi-huawei-liteos\microsemi-liteos\mscc-huawei-wsp\sc-gd450i-board-test\Debug/../kernel/cpu/arm/cortex-m4/los_hw.c:177
    pstContext->S15 = 0xAA00000F;
200006b6:	693b      	ldr	r3, [r7, #16]
200006b8:	4a28      	ldr	r2, [pc, #160]	; (2000075c <osTskStackInit+0x244>)
200006ba:	f8c3 20c0 	str.w	r2, [r3, #192]	; 0xc0
C:\Users\nitin.deshpande\Documents\GitHub\microsemi-huawei-liteos\microsemi-liteos\mscc-huawei-wsp\sc-gd450i-board-test\Debug/../kernel/cpu/arm/cortex-m4/los_hw.c:178
    pstContext->FPSCR = 0x00000000;
200006be:	693b      	ldr	r3, [r7, #16]
200006c0:	2200      	movs	r2, #0
200006c2:	f8c3 20c4 	str.w	r2, [r3, #196]	; 0xc4
C:\Users\nitin.deshpande\Documents\GitHub\microsemi-huawei-liteos\microsemi-liteos\mscc-huawei-wsp\sc-gd450i-board-test\Debug/../kernel/cpu/arm/cortex-m4/los_hw.c:179
    pstContext->NO_NAME = 0xAA000011;
200006c6:	693b      	ldr	r3, [r7, #16]
200006c8:	4a05      	ldr	r2, [pc, #20]	; (200006e0 <osTskStackInit+0x1c8>)
200006ca:	f8c3 20c8 	str.w	r2, [r3, #200]	; 0xc8
C:\Users\nitin.deshpande\Documents\GitHub\microsemi-huawei-liteos\microsemi-liteos\mscc-huawei-wsp\sc-gd450i-board-test\Debug/../kernel/cpu/arm/cortex-m4/los_hw.c:181
#endif
    return (VOID *)pstContext;
200006ce:	693b      	ldr	r3, [r7, #16]
C:\Users\nitin.deshpande\Documents\GitHub\microsemi-huawei-liteos\microsemi-liteos\mscc-huawei-wsp\sc-gd450i-board-test\Debug/../kernel/cpu/arm/cortex-m4/los_hw.c:182
}
200006d0:	4618      	mov	r0, r3
200006d2:	371c      	adds	r7, #28
200006d4:	46bd      	mov	sp, r7
200006d6:	f85d 7b04 	ldr.w	r7, [sp], #4
200006da:	4770      	bx	lr
200006dc:	aa000010 	.word	0xaa000010
200006e0:	aa000011 	.word	0xaa000011
200006e4:	aa000012 	.word	0xaa000012
200006e8:	aa000013 	.word	0xaa000013
200006ec:	aa000014 	.word	0xaa000014
200006f0:	aa000015 	.word	0xaa000015
200006f4:	aa000016 	.word	0xaa000016
200006f8:	aa000017 	.word	0xaa000017
200006fc:	aa000018 	.word	0xaa000018
20000700:	aa000019 	.word	0xaa000019
20000704:	aa00001a 	.word	0xaa00001a
20000708:	aa00001b 	.word	0xaa00001b
2000070c:	aa00001c 	.word	0xaa00001c
20000710:	aa00001d 	.word	0xaa00001d
20000714:	aa00001e 	.word	0xaa00001e
20000718:	aa00001f 	.word	0xaa00001f
2000071c:	2000050d 	.word	0x2000050d
20000720:	20002bd5 	.word	0x20002bd5
20000724:	aa000001 	.word	0xaa000001
20000728:	aa000002 	.word	0xaa000002
2000072c:	aa000003 	.word	0xaa000003
20000730:	aa000004 	.word	0xaa000004
20000734:	aa000005 	.word	0xaa000005
20000738:	aa000006 	.word	0xaa000006
2000073c:	aa000007 	.word	0xaa000007
20000740:	aa000008 	.word	0xaa000008
20000744:	aa000009 	.word	0xaa000009
20000748:	aa00000a 	.word	0xaa00000a
2000074c:	aa00000b 	.word	0xaa00000b
20000750:	aa00000c 	.word	0xaa00000c
20000754:	aa00000d 	.word	0xaa00000d
20000758:	aa00000e 	.word	0xaa00000e
2000075c:	aa00000f 	.word	0xaa00000f

20000760 <LOS_TickHandler>:
LOS_TickHandler():
C:\Users\nitin.deshpande\Documents\GitHub\microsemi-huawei-liteos\microsemi-liteos\mscc-huawei-wsp\sc-gd450i-board-test\Debug/../kernel/cpu/arm/cortex-m4/los_hw_tick.c:59
Input   : none
output  : none
return  : none
*****************************************************************************/
void LOS_TickHandler(void)
{
20000760:	b580      	push	{r7, lr}
20000762:	b082      	sub	sp, #8
20000764:	af00      	add	r7, sp, #0
C:\Users\nitin.deshpande\Documents\GitHub\microsemi-huawei-liteos\microsemi-liteos\mscc-huawei-wsp\sc-gd450i-board-test\Debug/../kernel/cpu/arm/cortex-m4/los_hw_tick.c:62
    UINT32 uwIntSave;

    uwIntSave = LOS_IntLock();
20000766:	f7ff fe4a 	bl	200003fe <LOS_IntLock>
2000076a:	6078      	str	r0, [r7, #4]
C:\Users\nitin.deshpande\Documents\GitHub\microsemi-huawei-liteos\microsemi-liteos\mscc-huawei-wsp\sc-gd450i-board-test\Debug/../kernel/cpu/arm/cortex-m4/los_hw_tick.c:63
    g_vuwIntCount++;
2000076c:	4b0c      	ldr	r3, [pc, #48]	; (200007a0 <LOS_TickHandler+0x40>)
2000076e:	681b      	ldr	r3, [r3, #0]
20000770:	3301      	adds	r3, #1
20000772:	4a0b      	ldr	r2, [pc, #44]	; (200007a0 <LOS_TickHandler+0x40>)
20000774:	6013      	str	r3, [r2, #0]
C:\Users\nitin.deshpande\Documents\GitHub\microsemi-huawei-liteos\microsemi-liteos\mscc-huawei-wsp\sc-gd450i-board-test\Debug/../kernel/cpu/arm/cortex-m4/los_hw_tick.c:64
    LOS_IntRestore(uwIntSave);
20000776:	6878      	ldr	r0, [r7, #4]
20000778:	f7ff fe49 	bl	2000040e <LOS_IntRestore>
C:\Users\nitin.deshpande\Documents\GitHub\microsemi-huawei-liteos\microsemi-liteos\mscc-huawei-wsp\sc-gd450i-board-test\Debug/../kernel/cpu/arm/cortex-m4/los_hw_tick.c:66

    osTickHandler();
2000077c:	f002 fce6 	bl	2000314c <osTickHandler>
C:\Users\nitin.deshpande\Documents\GitHub\microsemi-huawei-liteos\microsemi-liteos\mscc-huawei-wsp\sc-gd450i-board-test\Debug/../kernel/cpu/arm/cortex-m4/los_hw_tick.c:68
	
    uwIntSave = LOS_IntLock();
20000780:	f7ff fe3d 	bl	200003fe <LOS_IntLock>
20000784:	6078      	str	r0, [r7, #4]
C:\Users\nitin.deshpande\Documents\GitHub\microsemi-huawei-liteos\microsemi-liteos\mscc-huawei-wsp\sc-gd450i-board-test\Debug/../kernel/cpu/arm/cortex-m4/los_hw_tick.c:69
    g_vuwIntCount--;
20000786:	4b06      	ldr	r3, [pc, #24]	; (200007a0 <LOS_TickHandler+0x40>)
20000788:	681b      	ldr	r3, [r3, #0]
2000078a:	3b01      	subs	r3, #1
2000078c:	4a04      	ldr	r2, [pc, #16]	; (200007a0 <LOS_TickHandler+0x40>)
2000078e:	6013      	str	r3, [r2, #0]
C:\Users\nitin.deshpande\Documents\GitHub\microsemi-huawei-liteos\microsemi-liteos\mscc-huawei-wsp\sc-gd450i-board-test\Debug/../kernel/cpu/arm/cortex-m4/los_hw_tick.c:70
    LOS_IntRestore(uwIntSave);
20000790:	6878      	ldr	r0, [r7, #4]
20000792:	f7ff fe3c 	bl	2000040e <LOS_IntRestore>
C:\Users\nitin.deshpande\Documents\GitHub\microsemi-huawei-liteos\microsemi-liteos\mscc-huawei-wsp\sc-gd450i-board-test\Debug/../kernel/cpu/arm/cortex-m4/los_hw_tick.c:72
	
    return ;
20000796:	bf00      	nop
C:\Users\nitin.deshpande\Documents\GitHub\microsemi-huawei-liteos\microsemi-liteos\mscc-huawei-wsp\sc-gd450i-board-test\Debug/../kernel/cpu/arm/cortex-m4/los_hw_tick.c:73
}
20000798:	3708      	adds	r7, #8
2000079a:	46bd      	mov	sp, r7
2000079c:	bd80      	pop	{r7, pc}
2000079e:	bf00      	nop
200007a0:	200047f0 	.word	0x200047f0

200007a4 <LOS_SetTickSycle>:
LOS_SetTickSycle():
C:\Users\nitin.deshpande\Documents\GitHub\microsemi-huawei-liteos\microsemi-liteos\mscc-huawei-wsp\sc-gd450i-board-test\Debug/../kernel/cpu/arm/cortex-m4/los_hw_tick.c:83
Input   : ticks, the cpu Sycles per tick
output  : none
return  : none
*****************************************************************************/
void LOS_SetTickSycle(UINT32 ticks)
{
200007a4:	b480      	push	{r7}
200007a6:	b083      	sub	sp, #12
200007a8:	af00      	add	r7, sp, #0
200007aa:	6078      	str	r0, [r7, #4]
C:\Users\nitin.deshpande\Documents\GitHub\microsemi-huawei-liteos\microsemi-liteos\mscc-huawei-wsp\sc-gd450i-board-test\Debug/../kernel/cpu/arm/cortex-m4/los_hw_tick.c:84
	g_uwCyclesPerTick = ticks;
200007ac:	4a04      	ldr	r2, [pc, #16]	; (200007c0 <LOS_SetTickSycle+0x1c>)
200007ae:	687b      	ldr	r3, [r7, #4]
200007b0:	6013      	str	r3, [r2, #0]
C:\Users\nitin.deshpande\Documents\GitHub\microsemi-huawei-liteos\microsemi-liteos\mscc-huawei-wsp\sc-gd450i-board-test\Debug/../kernel/cpu/arm/cortex-m4/los_hw_tick.c:85
	return ;
200007b2:	bf00      	nop
C:\Users\nitin.deshpande\Documents\GitHub\microsemi-huawei-liteos\microsemi-liteos\mscc-huawei-wsp\sc-gd450i-board-test\Debug/../kernel/cpu/arm/cortex-m4/los_hw_tick.c:86
}
200007b4:	370c      	adds	r7, #12
200007b6:	46bd      	mov	sp, r7
200007b8:	f85d 7b04 	ldr.w	r7, [sp], #4
200007bc:	4770      	bx	lr
200007be:	bf00      	nop
200007c0:	20004804 	.word	0x20004804

200007c4 <osIntNumGet>:
osIntNumGet():
C:\Users\nitin.deshpande\Documents\GitHub\microsemi-huawei-liteos\microsemi-liteos\mscc-huawei-wsp\sc-gd450i-board-test\Debug/../kernel/cpu/arm/cortex-m4/los_hwi.c:85
 Input       : None
 Output      : None
 Return      : Interrupt Indexes number
 *****************************************************************************/
LITE_OS_SEC_TEXT_MINOR UINT32 osIntNumGet(VOID)
{
200007c4:	b580      	push	{r7, lr}
200007c6:	b082      	sub	sp, #8
200007c8:	af00      	add	r7, sp, #0
C:\Users\nitin.deshpande\Documents\GitHub\microsemi-huawei-liteos\microsemi-liteos\mscc-huawei-wsp\sc-gd450i-board-test\Debug/../kernel/cpu/arm/cortex-m4/los_hwi.c:88
   UINT32 uwIntNum;

  uwIntNum = LOS_IntNumGet();
200007ca:	f7ff fe13 	bl	200003f4 <LOS_IntNumGet>
200007ce:	6078      	str	r0, [r7, #4]
C:\Users\nitin.deshpande\Documents\GitHub\microsemi-huawei-liteos\microsemi-liteos\mscc-huawei-wsp\sc-gd450i-board-test\Debug/../kernel/cpu/arm/cortex-m4/los_hwi.c:89
  return uwIntNum;
200007d0:	687b      	ldr	r3, [r7, #4]
C:\Users\nitin.deshpande\Documents\GitHub\microsemi-huawei-liteos\microsemi-liteos\mscc-huawei-wsp\sc-gd450i-board-test\Debug/../kernel/cpu/arm/cortex-m4/los_hwi.c:90
}
200007d2:	4618      	mov	r0, r3
200007d4:	3708      	adds	r7, #8
200007d6:	46bd      	mov	sp, r7
200007d8:	bd80      	pop	{r7, pc}

200007da <osHwiDefaultHandler>:
osHwiDefaultHandler():
C:\Users\nitin.deshpande\Documents\GitHub\microsemi-huawei-liteos\microsemi-liteos\mscc-huawei-wsp\sc-gd450i-board-test\Debug/../kernel/cpu/arm/cortex-m4/los_hwi.c:100
 Input       : None
 Output      : None
 Return      : None
 *****************************************************************************/
LITE_OS_SEC_TEXT_MINOR VOID  osHwiDefaultHandler(VOID)
{
200007da:	b580      	push	{r7, lr}
200007dc:	b082      	sub	sp, #8
200007de:	af00      	add	r7, sp, #0
C:\Users\nitin.deshpande\Documents\GitHub\microsemi-huawei-liteos\microsemi-liteos\mscc-huawei-wsp\sc-gd450i-board-test\Debug/../kernel/cpu/arm/cortex-m4/los_hwi.c:101
    UINT32 irq_num = osIntNumGet();
200007e0:	f7ff fff0 	bl	200007c4 <osIntNumGet>
200007e4:	6078      	str	r0, [r7, #4]
C:\Users\nitin.deshpande\Documents\GitHub\microsemi-huawei-liteos\microsemi-liteos\mscc-huawei-wsp\sc-gd450i-board-test\Debug/../kernel/cpu/arm/cortex-m4/los_hwi.c:102 (discriminator 1)
    while(1);
200007e6:	e7fe      	b.n	200007e6 <osHwiDefaultHandler+0xc>

200007e8 <osGetVectorAddr>:
osGetVectorAddr():
C:\Users\nitin.deshpande\Documents\GitHub\microsemi-huawei-liteos\microsemi-liteos\mscc-huawei-wsp\sc-gd450i-board-test\Debug/../kernel/cpu/arm/cortex-m4/los_hwi.c:141
 Input       : None
 Output      : None
 Return      : OS_SUCCESS
 *****************************************************************************/
LITE_OS_SEC_TEXT_INIT unsigned int osGetVectorAddr(void)
{
200007e8:	b480      	push	{r7}
200007ea:	af00      	add	r7, sp, #0
C:\Users\nitin.deshpande\Documents\GitHub\microsemi-huawei-liteos\microsemi-liteos\mscc-huawei-wsp\sc-gd450i-board-test\Debug/../kernel/cpu/arm/cortex-m4/los_hwi.c:142
	return (UINT32)m_pstHwiForm;
200007ec:	4b02      	ldr	r3, [pc, #8]	; (200007f8 <osGetVectorAddr+0x10>)
C:\Users\nitin.deshpande\Documents\GitHub\microsemi-huawei-liteos\microsemi-liteos\mscc-huawei-wsp\sc-gd450i-board-test\Debug/../kernel/cpu/arm/cortex-m4/los_hwi.c:143
}
200007ee:	4618      	mov	r0, r3
200007f0:	46bd      	mov	sp, r7
200007f2:	f85d 7b04 	ldr.w	r7, [sp], #4
200007f6:	4770      	bx	lr
200007f8:	200043d0 	.word	0x200043d0

200007fc <osHwiInit>:
osHwiInit():
C:\Users\nitin.deshpande\Documents\GitHub\microsemi-huawei-liteos\microsemi-liteos\mscc-huawei-wsp\sc-gd450i-board-test\Debug/../kernel/cpu/arm/cortex-m4/los_hwi.c:153
 Input       : None
 Output      : None
 Return      : OS_SUCCESS
 *****************************************************************************/
LITE_OS_SEC_TEXT_INIT VOID osHwiInit()
{
200007fc:	b580      	push	{r7, lr}
200007fe:	b082      	sub	sp, #8
20000800:	af00      	add	r7, sp, #0
C:\Users\nitin.deshpande\Documents\GitHub\microsemi-huawei-liteos\microsemi-liteos\mscc-huawei-wsp\sc-gd450i-board-test\Debug/../kernel/cpu/arm/cortex-m4/los_hwi.c:155
    UINT32 uwIndex;
    for(uwIndex = OS_M4_SYS_VECTOR_CNT; uwIndex < OS_M4_VECTOR_CNT; uwIndex++)
20000802:	2310      	movs	r3, #16
20000804:	607b      	str	r3, [r7, #4]
20000806:	e007      	b.n	20000818 <osHwiInit+0x1c>
C:\Users\nitin.deshpande\Documents\GitHub\microsemi-huawei-liteos\microsemi-liteos\mscc-huawei-wsp\sc-gd450i-board-test\Debug/../kernel/cpu/arm/cortex-m4/los_hwi.c:157 (discriminator 3)
    {
        m_pstHwiForm[uwIndex] = osHwiDefaultHandler;
20000808:	4a08      	ldr	r2, [pc, #32]	; (2000082c <osHwiInit+0x30>)
2000080a:	687b      	ldr	r3, [r7, #4]
2000080c:	4908      	ldr	r1, [pc, #32]	; (20000830 <osHwiInit+0x34>)
2000080e:	f842 1023 	str.w	r1, [r2, r3, lsl #2]
C:\Users\nitin.deshpande\Documents\GitHub\microsemi-huawei-liteos\microsemi-liteos\mscc-huawei-wsp\sc-gd450i-board-test\Debug/../kernel/cpu/arm/cortex-m4/los_hwi.c:155 (discriminator 3)
    for(uwIndex = OS_M4_SYS_VECTOR_CNT; uwIndex < OS_M4_VECTOR_CNT; uwIndex++)
20000812:	687b      	ldr	r3, [r7, #4]
20000814:	3301      	adds	r3, #1
20000816:	607b      	str	r3, [r7, #4]
C:\Users\nitin.deshpande\Documents\GitHub\microsemi-huawei-liteos\microsemi-liteos\mscc-huawei-wsp\sc-gd450i-board-test\Debug/../kernel/cpu/arm/cortex-m4/los_hwi.c:155 (discriminator 1)
20000818:	687b      	ldr	r3, [r7, #4]
2000081a:	2bff      	cmp	r3, #255	; 0xff
2000081c:	d9f4      	bls.n	20000808 <osHwiInit+0xc>
C:\Users\nitin.deshpande\Documents\GitHub\microsemi-huawei-liteos\microsemi-liteos\mscc-huawei-wsp\sc-gd450i-board-test\Debug/../kernel/cpu/arm/cortex-m4/los_hwi.c:159
    }
    LosAdapIntInit();
2000081e:	f003 fc9f 	bl	20004160 <LosAdapIntInit>
C:\Users\nitin.deshpande\Documents\GitHub\microsemi-huawei-liteos\microsemi-liteos\mscc-huawei-wsp\sc-gd450i-board-test\Debug/../kernel/cpu/arm/cortex-m4/los_hwi.c:161

}
20000822:	bf00      	nop
20000824:	3708      	adds	r7, #8
20000826:	46bd      	mov	sp, r7
20000828:	bd80      	pop	{r7, pc}
2000082a:	bf00      	nop
2000082c:	200043d0 	.word	0x200043d0
20000830:	200007db 	.word	0x200007db

20000834 <osRegister>:
osRegister():
C:\Users\nitin.deshpande\Documents\GitHub\microsemi-huawei-liteos\microsemi-liteos\mscc-huawei-wsp\sc-gd450i-board-test\Debug/../kernel/config/los_config.c:76
 Input       : None
 Output      : None
 Return      : None
 *****************************************************************************/
LITE_OS_SEC_TEXT_INIT VOID osRegister(VOID)
{
20000834:	b480      	push	{r7}
20000836:	af00      	add	r7, sp, #0
C:\Users\nitin.deshpande\Documents\GitHub\microsemi-huawei-liteos\microsemi-liteos\mscc-huawei-wsp\sc-gd450i-board-test\Debug/../kernel/config/los_config.c:77
    g_uwTskMaxNum = LOSCFG_BASE_CORE_TSK_LIMIT + 1; /* Reserved 1 for IDLE */
20000838:	4b06      	ldr	r3, [pc, #24]	; (20000854 <osRegister+0x20>)
2000083a:	2210      	movs	r2, #16
2000083c:	601a      	str	r2, [r3, #0]
C:\Users\nitin.deshpande\Documents\GitHub\microsemi-huawei-liteos\microsemi-liteos\mscc-huawei-wsp\sc-gd450i-board-test\Debug/../kernel/config/los_config.c:78
    g_sys_mem_addr_end = (UINT32)g_ucMemStart + OS_SYS_MEM_SIZE;
2000083e:	4b06      	ldr	r3, [pc, #24]	; (20000858 <osRegister+0x24>)
20000840:	f503 4330 	add.w	r3, r3, #45056	; 0xb000
20000844:	4a05      	ldr	r2, [pc, #20]	; (2000085c <osRegister+0x28>)
20000846:	6013      	str	r3, [r2, #0]
C:\Users\nitin.deshpande\Documents\GitHub\microsemi-huawei-liteos\microsemi-liteos\mscc-huawei-wsp\sc-gd450i-board-test\Debug/../kernel/config/los_config.c:79
    return;
20000848:	bf00      	nop
C:\Users\nitin.deshpande\Documents\GitHub\microsemi-huawei-liteos\microsemi-liteos\mscc-huawei-wsp\sc-gd450i-board-test\Debug/../kernel/config/los_config.c:80
}
2000084a:	46bd      	mov	sp, r7
2000084c:	f85d 7b04 	ldr.w	r7, [sp], #4
20000850:	4770      	bx	lr
20000852:	bf00      	nop
20000854:	20004964 	.word	0x20004964
20000858:	10000000 	.word	0x10000000
2000085c:	200047f4 	.word	0x200047f4

20000860 <LOS_EnableTick>:
LOS_EnableTick():
C:\Users\nitin.deshpande\Documents\GitHub\microsemi-huawei-liteos\microsemi-liteos\mscc-huawei-wsp\sc-gd450i-board-test\Debug/../kernel/config/los_config.c:90
 Input       : None
 Output      : None
 Return      : LOS_OK
 *****************************************************************************/
LITE_OS_SEC_TEXT_INIT UINT32 LOS_EnableTick(void)
{
20000860:	b580      	push	{r7, lr}
20000862:	b082      	sub	sp, #8
20000864:	af00      	add	r7, sp, #0
C:\Users\nitin.deshpande\Documents\GitHub\microsemi-huawei-liteos\microsemi-liteos\mscc-huawei-wsp\sc-gd450i-board-test\Debug/../kernel/config/los_config.c:93
    UINT32 uwRet;

    uwRet = osTickStart();
20000866:	f003 fc55 	bl	20004114 <osTickStart>
2000086a:	6078      	str	r0, [r7, #4]
C:\Users\nitin.deshpande\Documents\GitHub\microsemi-huawei-liteos\microsemi-liteos\mscc-huawei-wsp\sc-gd450i-board-test\Debug/../kernel/config/los_config.c:100
    if (uwRet != LOS_OK)
    {
        PRINT_ERR("osTickStart error\n");
    }
		
    return uwRet;
2000086c:	687b      	ldr	r3, [r7, #4]
C:\Users\nitin.deshpande\Documents\GitHub\microsemi-huawei-liteos\microsemi-liteos\mscc-huawei-wsp\sc-gd450i-board-test\Debug/../kernel/config/los_config.c:101
}
2000086e:	4618      	mov	r0, r3
20000870:	3708      	adds	r7, #8
20000872:	46bd      	mov	sp, r7
20000874:	bd80      	pop	{r7, pc}

20000876 <LOS_Start>:
LOS_Start():
C:\Users\nitin.deshpande\Documents\GitHub\microsemi-huawei-liteos\microsemi-liteos\mscc-huawei-wsp\sc-gd450i-board-test\Debug/../kernel/config/los_config.c:110
 Input       : None
 Output      : None
 Return      : LOS_OK
 *****************************************************************************/
LITE_OS_SEC_TEXT_INIT UINT32 LOS_Start(void)
{
20000876:	b580      	push	{r7, lr}
20000878:	b082      	sub	sp, #8
2000087a:	af00      	add	r7, sp, #0
C:\Users\nitin.deshpande\Documents\GitHub\microsemi-huawei-liteos\microsemi-liteos\mscc-huawei-wsp\sc-gd450i-board-test\Debug/../kernel/config/los_config.c:111
    UINT32 uwRet = LOS_OK;
2000087c:	2300      	movs	r3, #0
2000087e:	607b      	str	r3, [r7, #4]
C:\Users\nitin.deshpande\Documents\GitHub\microsemi-huawei-liteos\microsemi-liteos\mscc-huawei-wsp\sc-gd450i-board-test\Debug/../kernel/config/los_config.c:113

    LOS_StartToRun();
20000880:	f7ff fd8a 	bl	20000398 <LOS_StartToRun>
C:\Users\nitin.deshpande\Documents\GitHub\microsemi-huawei-liteos\microsemi-liteos\mscc-huawei-wsp\sc-gd450i-board-test\Debug/../kernel/config/los_config.c:115

    return uwRet;
20000884:	687b      	ldr	r3, [r7, #4]
C:\Users\nitin.deshpande\Documents\GitHub\microsemi-huawei-liteos\microsemi-liteos\mscc-huawei-wsp\sc-gd450i-board-test\Debug/../kernel/config/los_config.c:116
}
20000886:	4618      	mov	r0, r3
20000888:	3708      	adds	r7, #8
2000088a:	46bd      	mov	sp, r7
2000088c:	bd80      	pop	{r7, pc}
	...

20000890 <osMain>:
osMain():
C:\Users\nitin.deshpande\Documents\GitHub\microsemi-huawei-liteos\microsemi-liteos\mscc-huawei-wsp\sc-gd450i-board-test\Debug/../kernel/config/los_config.c:126
 Input       : None
 Output      : None
 Return      : LOS_OK
 *****************************************************************************/
LITE_OS_SEC_TEXT_INIT int osMain(void)
{
20000890:	b580      	push	{r7, lr}
20000892:	b082      	sub	sp, #8
20000894:	af00      	add	r7, sp, #0
C:\Users\nitin.deshpande\Documents\GitHub\microsemi-huawei-liteos\microsemi-liteos\mscc-huawei-wsp\sc-gd450i-board-test\Debug/../kernel/config/los_config.c:129
    UINT32 uwRet;

    osRegister();
20000896:	f7ff ffcd 	bl	20000834 <osRegister>
C:\Users\nitin.deshpande\Documents\GitHub\microsemi-huawei-liteos\microsemi-liteos\mscc-huawei-wsp\sc-gd450i-board-test\Debug/../kernel/config/los_config.c:131

    uwRet = osMemSystemInit();
2000089a:	f000 f9c5 	bl	20000c28 <osMemSystemInit>
2000089e:	6078      	str	r0, [r7, #4]
C:\Users\nitin.deshpande\Documents\GitHub\microsemi-huawei-liteos\microsemi-liteos\mscc-huawei-wsp\sc-gd450i-board-test\Debug/../kernel/config/los_config.c:132
    if (uwRet != LOS_OK)
200008a0:	687b      	ldr	r3, [r7, #4]
200008a2:	2b00      	cmp	r3, #0
200008a4:	d001      	beq.n	200008aa <osMain+0x1a>
C:\Users\nitin.deshpande\Documents\GitHub\microsemi-huawei-liteos\microsemi-liteos\mscc-huawei-wsp\sc-gd450i-board-test\Debug/../kernel/config/los_config.c:135
    {
        PRINT_ERR("osMemSystemInit error %d\n", uwRet);
        return uwRet;
200008a6:	687b      	ldr	r3, [r7, #4]
200008a8:	e038      	b.n	2000091c <osMain+0x8c>
C:\Users\nitin.deshpande\Documents\GitHub\microsemi-huawei-liteos\microsemi-liteos\mscc-huawei-wsp\sc-gd450i-board-test\Debug/../kernel/config/los_config.c:140
    }

#if (LOSCFG_PLATFORM_HWI == YES)
    {
        if (g_use_ram_vect)
200008aa:	4b1e      	ldr	r3, [pc, #120]	; (20000924 <osMain+0x94>)
200008ac:	781b      	ldrb	r3, [r3, #0]
200008ae:	2b00      	cmp	r3, #0
200008b0:	d001      	beq.n	200008b6 <osMain+0x26>
C:\Users\nitin.deshpande\Documents\GitHub\microsemi-huawei-liteos\microsemi-liteos\mscc-huawei-wsp\sc-gd450i-board-test\Debug/../kernel/config/los_config.c:142
        {
            osHwiInit();
200008b2:	f7ff ffa3 	bl	200007fc <osHwiInit>
C:\Users\nitin.deshpande\Documents\GitHub\microsemi-huawei-liteos\microsemi-liteos\mscc-huawei-wsp\sc-gd450i-board-test\Debug/../kernel/config/los_config.c:147
        }
    }
#endif

    uwRet =osTaskInit();
200008b6:	f002 f80f 	bl	200028d8 <osTaskInit>
200008ba:	6078      	str	r0, [r7, #4]
C:\Users\nitin.deshpande\Documents\GitHub\microsemi-huawei-liteos\microsemi-liteos\mscc-huawei-wsp\sc-gd450i-board-test\Debug/../kernel/config/los_config.c:148
    if (uwRet != LOS_OK)
200008bc:	687b      	ldr	r3, [r7, #4]
200008be:	2b00      	cmp	r3, #0
200008c0:	d001      	beq.n	200008c6 <osMain+0x36>
C:\Users\nitin.deshpande\Documents\GitHub\microsemi-huawei-liteos\microsemi-liteos\mscc-huawei-wsp\sc-gd450i-board-test\Debug/../kernel/config/los_config.c:151
    {
        PRINT_ERR("osTaskInit error\n");
        return uwRet;
200008c2:	687b      	ldr	r3, [r7, #4]
200008c4:	e02a      	b.n	2000091c <osMain+0x8c>
C:\Users\nitin.deshpande\Documents\GitHub\microsemi-huawei-liteos\microsemi-liteos\mscc-huawei-wsp\sc-gd450i-board-test\Debug/../kernel/config/los_config.c:156
    }

#if (LOSCFG_BASE_IPC_SEM == YES)
    {
        uwRet = osSemInit();
200008c6:	f001 fac7 	bl	20001e58 <osSemInit>
200008ca:	6078      	str	r0, [r7, #4]
C:\Users\nitin.deshpande\Documents\GitHub\microsemi-huawei-liteos\microsemi-liteos\mscc-huawei-wsp\sc-gd450i-board-test\Debug/../kernel/config/los_config.c:157
        if (uwRet != LOS_OK)
200008cc:	687b      	ldr	r3, [r7, #4]
200008ce:	2b00      	cmp	r3, #0
200008d0:	d001      	beq.n	200008d6 <osMain+0x46>
C:\Users\nitin.deshpande\Documents\GitHub\microsemi-huawei-liteos\microsemi-liteos\mscc-huawei-wsp\sc-gd450i-board-test\Debug/../kernel/config/los_config.c:159
        {
            return uwRet;
200008d2:	687b      	ldr	r3, [r7, #4]
200008d4:	e022      	b.n	2000091c <osMain+0x8c>
C:\Users\nitin.deshpande\Documents\GitHub\microsemi-huawei-liteos\microsemi-liteos\mscc-huawei-wsp\sc-gd450i-board-test\Debug/../kernel/config/los_config.c:166
    }
#endif

#if (LOSCFG_BASE_IPC_MUX == YES)
    {
        uwRet = osMuxInit();
200008d6:	f000 feb5 	bl	20001644 <osMuxInit>
200008da:	6078      	str	r0, [r7, #4]
C:\Users\nitin.deshpande\Documents\GitHub\microsemi-huawei-liteos\microsemi-liteos\mscc-huawei-wsp\sc-gd450i-board-test\Debug/../kernel/config/los_config.c:167
        if (uwRet != LOS_OK)
200008dc:	687b      	ldr	r3, [r7, #4]
200008de:	2b00      	cmp	r3, #0
200008e0:	d001      	beq.n	200008e6 <osMain+0x56>
C:\Users\nitin.deshpande\Documents\GitHub\microsemi-huawei-liteos\microsemi-liteos\mscc-huawei-wsp\sc-gd450i-board-test\Debug/../kernel/config/los_config.c:169
        {
            return uwRet;
200008e2:	687b      	ldr	r3, [r7, #4]
200008e4:	e01a      	b.n	2000091c <osMain+0x8c>
C:\Users\nitin.deshpande\Documents\GitHub\microsemi-huawei-liteos\microsemi-liteos\mscc-huawei-wsp\sc-gd450i-board-test\Debug/../kernel/config/los_config.c:176
    }
#endif

#if (LOSCFG_BASE_IPC_QUEUE == YES)
    {
        uwRet = osQueueInit();
200008e6:	f000 ff51 	bl	2000178c <osQueueInit>
200008ea:	6078      	str	r0, [r7, #4]
C:\Users\nitin.deshpande\Documents\GitHub\microsemi-huawei-liteos\microsemi-liteos\mscc-huawei-wsp\sc-gd450i-board-test\Debug/../kernel/config/los_config.c:177
        if (uwRet != LOS_OK)
200008ec:	687b      	ldr	r3, [r7, #4]
200008ee:	2b00      	cmp	r3, #0
200008f0:	d001      	beq.n	200008f6 <osMain+0x66>
C:\Users\nitin.deshpande\Documents\GitHub\microsemi-huawei-liteos\microsemi-liteos\mscc-huawei-wsp\sc-gd450i-board-test\Debug/../kernel/config/los_config.c:180
        {
            PRINT_ERR("osQueueInit error\n");
            return uwRet;
200008f2:	687b      	ldr	r3, [r7, #4]
200008f4:	e012      	b.n	2000091c <osMain+0x8c>
C:\Users\nitin.deshpande\Documents\GitHub\microsemi-huawei-liteos\microsemi-liteos\mscc-huawei-wsp\sc-gd450i-board-test\Debug/../kernel/config/los_config.c:187
    }
#endif

#if (LOSCFG_BASE_CORE_SWTMR == YES)
    {
        uwRet = osSwTmrInit();
200008f6:	f001 fcc7 	bl	20002288 <osSwTmrInit>
200008fa:	6078      	str	r0, [r7, #4]
C:\Users\nitin.deshpande\Documents\GitHub\microsemi-huawei-liteos\microsemi-liteos\mscc-huawei-wsp\sc-gd450i-board-test\Debug/../kernel/config/los_config.c:188
        if (uwRet != LOS_OK)
200008fc:	687b      	ldr	r3, [r7, #4]
200008fe:	2b00      	cmp	r3, #0
20000900:	d001      	beq.n	20000906 <osMain+0x76>
C:\Users\nitin.deshpande\Documents\GitHub\microsemi-huawei-liteos\microsemi-liteos\mscc-huawei-wsp\sc-gd450i-board-test\Debug/../kernel/config/los_config.c:191
        {
            PRINT_ERR("osSwTmrInit error\n");
            return uwRet;
20000902:	687b      	ldr	r3, [r7, #4]
20000904:	e00a      	b.n	2000091c <osMain+0x8c>
C:\Users\nitin.deshpande\Documents\GitHub\microsemi-huawei-liteos\microsemi-liteos\mscc-huawei-wsp\sc-gd450i-board-test\Debug/../kernel/config/los_config.c:197
        }
    }
#endif

    #if(LOSCFG_BASE_CORE_TIMESLICE == YES)
    osTimesliceInit();
20000906:	f002 fc37 	bl	20003178 <osTimesliceInit>
C:\Users\nitin.deshpande\Documents\GitHub\microsemi-huawei-liteos\microsemi-liteos\mscc-huawei-wsp\sc-gd450i-board-test\Debug/../kernel/config/los_config.c:200
    #endif

    uwRet = osIdleTaskCreate();
2000090a:	f002 f893 	bl	20002a34 <osIdleTaskCreate>
2000090e:	6078      	str	r0, [r7, #4]
C:\Users\nitin.deshpande\Documents\GitHub\microsemi-huawei-liteos\microsemi-liteos\mscc-huawei-wsp\sc-gd450i-board-test\Debug/../kernel/config/los_config.c:201
    if (uwRet != LOS_OK) {
20000910:	687b      	ldr	r3, [r7, #4]
20000912:	2b00      	cmp	r3, #0
20000914:	d001      	beq.n	2000091a <osMain+0x8a>
C:\Users\nitin.deshpande\Documents\GitHub\microsemi-huawei-liteos\microsemi-liteos\mscc-huawei-wsp\sc-gd450i-board-test\Debug/../kernel/config/los_config.c:202
        return uwRet;
20000916:	687b      	ldr	r3, [r7, #4]
20000918:	e000      	b.n	2000091c <osMain+0x8c>
C:\Users\nitin.deshpande\Documents\GitHub\microsemi-huawei-liteos\microsemi-liteos\mscc-huawei-wsp\sc-gd450i-board-test\Debug/../kernel/config/los_config.c:205
    }

    return LOS_OK;
2000091a:	2300      	movs	r3, #0
C:\Users\nitin.deshpande\Documents\GitHub\microsemi-huawei-liteos\microsemi-liteos\mscc-huawei-wsp\sc-gd450i-board-test\Debug/../kernel/config/los_config.c:206
}
2000091c:	4618      	mov	r0, r3
2000091e:	3708      	adds	r7, #8
20000920:	46bd      	mov	sp, r7
20000922:	bd80      	pop	{r7, pc}
20000924:	20004330 	.word	0x20004330

20000928 <LOS_KernelInit>:
LOS_KernelInit():
C:\Users\nitin.deshpande\Documents\GitHub\microsemi-huawei-liteos\microsemi-liteos\mscc-huawei-wsp\sc-gd450i-board-test\Debug/../kernel/config/los_config.c:209

LITE_OS_SEC_TEXT_INIT int LOS_KernelInit(void)
{
20000928:	b580      	push	{r7, lr}
2000092a:	b082      	sub	sp, #8
2000092c:	af00      	add	r7, sp, #0
C:\Users\nitin.deshpande\Documents\GitHub\microsemi-huawei-liteos\microsemi-liteos\mscc-huawei-wsp\sc-gd450i-board-test\Debug/../kernel/config/los_config.c:211
    UINT32 uwRet;
    uwRet = osMain();
2000092e:	f7ff ffaf 	bl	20000890 <osMain>
20000932:	4603      	mov	r3, r0
20000934:	607b      	str	r3, [r7, #4]
C:\Users\nitin.deshpande\Documents\GitHub\microsemi-huawei-liteos\microsemi-liteos\mscc-huawei-wsp\sc-gd450i-board-test\Debug/../kernel/config/los_config.c:212
    if (uwRet != LOS_OK) {
20000936:	687b      	ldr	r3, [r7, #4]
20000938:	2b00      	cmp	r3, #0
2000093a:	d001      	beq.n	20000940 <LOS_KernelInit+0x18>
C:\Users\nitin.deshpande\Documents\GitHub\microsemi-huawei-liteos\microsemi-liteos\mscc-huawei-wsp\sc-gd450i-board-test\Debug/../kernel/config/los_config.c:213
        return LOS_NOK;
2000093c:	2301      	movs	r3, #1
2000093e:	e000      	b.n	20000942 <LOS_KernelInit+0x1a>
C:\Users\nitin.deshpande\Documents\GitHub\microsemi-huawei-liteos\microsemi-liteos\mscc-huawei-wsp\sc-gd450i-board-test\Debug/../kernel/config/los_config.c:215
    }
    return LOS_OK;
20000940:	2300      	movs	r3, #0
C:\Users\nitin.deshpande\Documents\GitHub\microsemi-huawei-liteos\microsemi-liteos\mscc-huawei-wsp\sc-gd450i-board-test\Debug/../kernel/config/los_config.c:216
}
20000942:	4618      	mov	r0, r3
20000944:	3708      	adds	r7, #8
20000946:	46bd      	mov	sp, r7
20000948:	bd80      	pop	{r7, pc}

2000094a <LOS_Align>:
LOS_Align():
C:\Users\nitin.deshpande\Documents\GitHub\microsemi-huawei-liteos\microsemi-liteos\mscc-huawei-wsp\sc-gd450i-board-test\Debug/../kernel/base/misc/los_misc.c:42
#include "los_task.ph"

#include "los_hwi.h"

LITE_OS_SEC_TEXT UINT32 LOS_Align(UINT32 uwAddr, UINT32 uwBoundary)
{
2000094a:	b480      	push	{r7}
2000094c:	b083      	sub	sp, #12
2000094e:	af00      	add	r7, sp, #0
20000950:	6078      	str	r0, [r7, #4]
20000952:	6039      	str	r1, [r7, #0]
C:\Users\nitin.deshpande\Documents\GitHub\microsemi-huawei-liteos\microsemi-liteos\mscc-huawei-wsp\sc-gd450i-board-test\Debug/../kernel/base/misc/los_misc.c:43
    if (uwAddr + uwBoundary - 1 > uwAddr) {
20000954:	687a      	ldr	r2, [r7, #4]
20000956:	683b      	ldr	r3, [r7, #0]
20000958:	4413      	add	r3, r2
2000095a:	1e5a      	subs	r2, r3, #1
2000095c:	687b      	ldr	r3, [r7, #4]
2000095e:	429a      	cmp	r2, r3
20000960:	d907      	bls.n	20000972 <LOS_Align+0x28>
C:\Users\nitin.deshpande\Documents\GitHub\microsemi-huawei-liteos\microsemi-liteos\mscc-huawei-wsp\sc-gd450i-board-test\Debug/../kernel/base/misc/los_misc.c:44
        return (uwAddr + uwBoundary - 1) & ~(uwBoundary - 1);
20000962:	687a      	ldr	r2, [r7, #4]
20000964:	683b      	ldr	r3, [r7, #0]
20000966:	4413      	add	r3, r2
20000968:	1e5a      	subs	r2, r3, #1
2000096a:	683b      	ldr	r3, [r7, #0]
2000096c:	425b      	negs	r3, r3
2000096e:	4013      	ands	r3, r2
20000970:	e003      	b.n	2000097a <LOS_Align+0x30>
C:\Users\nitin.deshpande\Documents\GitHub\microsemi-huawei-liteos\microsemi-liteos\mscc-huawei-wsp\sc-gd450i-board-test\Debug/../kernel/base/misc/los_misc.c:46
    } else {
        return uwAddr & ~(uwBoundary - 1);
20000972:	683b      	ldr	r3, [r7, #0]
20000974:	425a      	negs	r2, r3
20000976:	687b      	ldr	r3, [r7, #4]
20000978:	4013      	ands	r3, r2
C:\Users\nitin.deshpande\Documents\GitHub\microsemi-huawei-liteos\microsemi-liteos\mscc-huawei-wsp\sc-gd450i-board-test\Debug/../kernel/base/misc/los_misc.c:48
    }
}
2000097a:	4618      	mov	r0, r3
2000097c:	370c      	adds	r7, #12
2000097e:	46bd      	mov	sp, r7
20000980:	f85d 7b04 	ldr.w	r7, [sp], #4
20000984:	4770      	bx	lr
	...

20000988 <osCheckBoxMem>:
osCheckBoxMem():
C:\Users\nitin.deshpande\Documents\GitHub\microsemi-huawei-liteos\microsemi-liteos\mscc-huawei-wsp\sc-gd450i-board-test\Debug/../kernel/base/mem/los_membox.c:58
#define OS_MEMBOX_USER_ADDR(addr) ((VOID *)((UINT8 *)(addr) + LOS_MEMBOX_MAGIC_SIZE))
#define OS_MEMBOX_NODE_ADDR(addr) ((LOS_MEMBOX_NODE *)((UINT8 *)(addr) - LOS_MEMBOX_MAGIC_SIZE))


INLINE UINT32 osCheckBoxMem(const LOS_MEMBOX_INFO *pstBoxInfo, const VOID *pNode)
{
20000988:	b480      	push	{r7}
2000098a:	b085      	sub	sp, #20
2000098c:	af00      	add	r7, sp, #0
2000098e:	6078      	str	r0, [r7, #4]
20000990:	6039      	str	r1, [r7, #0]
C:\Users\nitin.deshpande\Documents\GitHub\microsemi-huawei-liteos\microsemi-liteos\mscc-huawei-wsp\sc-gd450i-board-test\Debug/../kernel/base/mem/los_membox.c:61
    UINT32 uwOffSet;

    if (pstBoxInfo->uwBlkSize == 0)
20000992:	687b      	ldr	r3, [r7, #4]
20000994:	681b      	ldr	r3, [r3, #0]
20000996:	2b00      	cmp	r3, #0
20000998:	d101      	bne.n	2000099e <osCheckBoxMem+0x16>
C:\Users\nitin.deshpande\Documents\GitHub\microsemi-huawei-liteos\microsemi-liteos\mscc-huawei-wsp\sc-gd450i-board-test\Debug/../kernel/base/mem/los_membox.c:63
    {
        return LOS_NOK;
2000099a:	2301      	movs	r3, #1
2000099c:	e023      	b.n	200009e6 <osCheckBoxMem+0x5e>
C:\Users\nitin.deshpande\Documents\GitHub\microsemi-huawei-liteos\microsemi-liteos\mscc-huawei-wsp\sc-gd450i-board-test\Debug/../kernel/base/mem/los_membox.c:66
    }

    uwOffSet = ((UINT32)pNode - (UINT32)(pstBoxInfo + 1));
2000099e:	683b      	ldr	r3, [r7, #0]
200009a0:	687a      	ldr	r2, [r7, #4]
200009a2:	320c      	adds	r2, #12
200009a4:	1a9b      	subs	r3, r3, r2
200009a6:	60fb      	str	r3, [r7, #12]
C:\Users\nitin.deshpande\Documents\GitHub\microsemi-huawei-liteos\microsemi-liteos\mscc-huawei-wsp\sc-gd450i-board-test\Debug/../kernel/base/mem/los_membox.c:67
    if ((uwOffSet % pstBoxInfo->uwBlkSize) != 0)
200009a8:	687b      	ldr	r3, [r7, #4]
200009aa:	681a      	ldr	r2, [r3, #0]
200009ac:	68fb      	ldr	r3, [r7, #12]
200009ae:	fbb3 f1f2 	udiv	r1, r3, r2
200009b2:	fb02 f201 	mul.w	r2, r2, r1
200009b6:	1a9b      	subs	r3, r3, r2
200009b8:	2b00      	cmp	r3, #0
200009ba:	d001      	beq.n	200009c0 <osCheckBoxMem+0x38>
C:\Users\nitin.deshpande\Documents\GitHub\microsemi-huawei-liteos\microsemi-liteos\mscc-huawei-wsp\sc-gd450i-board-test\Debug/../kernel/base/mem/los_membox.c:69
    {
        return LOS_NOK;
200009bc:	2301      	movs	r3, #1
200009be:	e012      	b.n	200009e6 <osCheckBoxMem+0x5e>
C:\Users\nitin.deshpande\Documents\GitHub\microsemi-huawei-liteos\microsemi-liteos\mscc-huawei-wsp\sc-gd450i-board-test\Debug/../kernel/base/mem/los_membox.c:72
    }

    if ((uwOffSet / pstBoxInfo->uwBlkSize) >= pstBoxInfo->uwBlkNum)
200009c0:	687b      	ldr	r3, [r7, #4]
200009c2:	681b      	ldr	r3, [r3, #0]
200009c4:	68fa      	ldr	r2, [r7, #12]
200009c6:	fbb2 f2f3 	udiv	r2, r2, r3
200009ca:	687b      	ldr	r3, [r7, #4]
200009cc:	685b      	ldr	r3, [r3, #4]
200009ce:	429a      	cmp	r2, r3
200009d0:	d301      	bcc.n	200009d6 <osCheckBoxMem+0x4e>
C:\Users\nitin.deshpande\Documents\GitHub\microsemi-huawei-liteos\microsemi-liteos\mscc-huawei-wsp\sc-gd450i-board-test\Debug/../kernel/base/mem/los_membox.c:74
    {
        return LOS_NOK;
200009d2:	2301      	movs	r3, #1
200009d4:	e007      	b.n	200009e6 <osCheckBoxMem+0x5e>
C:\Users\nitin.deshpande\Documents\GitHub\microsemi-huawei-liteos\microsemi-liteos\mscc-huawei-wsp\sc-gd450i-board-test\Debug/../kernel/base/mem/los_membox.c:77
    }

    return OS_MEMBOX_CHECK_MAGIC(pNode);
200009d6:	683b      	ldr	r3, [r7, #0]
200009d8:	681b      	ldr	r3, [r3, #0]
200009da:	4a06      	ldr	r2, [pc, #24]	; (200009f4 <osCheckBoxMem+0x6c>)
200009dc:	4293      	cmp	r3, r2
200009de:	bf14      	ite	ne
200009e0:	2301      	movne	r3, #1
200009e2:	2300      	moveq	r3, #0
200009e4:	b2db      	uxtb	r3, r3
C:\Users\nitin.deshpande\Documents\GitHub\microsemi-huawei-liteos\microsemi-liteos\mscc-huawei-wsp\sc-gd450i-board-test\Debug/../kernel/base/mem/los_membox.c:78
}
200009e6:	4618      	mov	r0, r3
200009e8:	3714      	adds	r7, #20
200009ea:	46bd      	mov	sp, r7
200009ec:	f85d 7b04 	ldr.w	r7, [sp], #4
200009f0:	4770      	bx	lr
200009f2:	bf00      	nop
200009f4:	a55a5aa5 	.word	0xa55a5aa5

200009f8 <LOS_MemboxInit>:
LOS_MemboxInit():
C:\Users\nitin.deshpande\Documents\GitHub\microsemi-huawei-liteos\microsemi-liteos\mscc-huawei-wsp\sc-gd450i-board-test\Debug/../kernel/base/mem/los_membox.c:81

LITE_OS_SEC_TEXT_INIT UINT32 LOS_MemboxInit(VOID *pPool, UINT32 uwBoxSize, UINT32 uwBlkSize)
 {
200009f8:	b580      	push	{r7, lr}
200009fa:	b088      	sub	sp, #32
200009fc:	af00      	add	r7, sp, #0
200009fe:	60f8      	str	r0, [r7, #12]
20000a00:	60b9      	str	r1, [r7, #8]
20000a02:	607a      	str	r2, [r7, #4]
C:\Users\nitin.deshpande\Documents\GitHub\microsemi-huawei-liteos\microsemi-liteos\mscc-huawei-wsp\sc-gd450i-board-test\Debug/../kernel/base/mem/los_membox.c:82
    LOS_MEMBOX_INFO *pstBoxInfo = (LOS_MEMBOX_INFO *)pPool;
20000a04:	68fb      	ldr	r3, [r7, #12]
20000a06:	617b      	str	r3, [r7, #20]
C:\Users\nitin.deshpande\Documents\GitHub\microsemi-huawei-liteos\microsemi-liteos\mscc-huawei-wsp\sc-gd450i-board-test\Debug/../kernel/base/mem/los_membox.c:83
    LOS_MEMBOX_NODE *pstNode = (LOS_MEMBOX_NODE *)NULL;
20000a08:	2300      	movs	r3, #0
20000a0a:	61fb      	str	r3, [r7, #28]
C:\Users\nitin.deshpande\Documents\GitHub\microsemi-huawei-liteos\microsemi-liteos\mscc-huawei-wsp\sc-gd450i-board-test\Debug/../kernel/base/mem/los_membox.c:87
    UINT32 i;
    UINTPTR uvIntSave;

    if (pPool == NULL)
20000a0c:	68fb      	ldr	r3, [r7, #12]
20000a0e:	2b00      	cmp	r3, #0
20000a10:	d101      	bne.n	20000a16 <LOS_MemboxInit+0x1e>
C:\Users\nitin.deshpande\Documents\GitHub\microsemi-huawei-liteos\microsemi-liteos\mscc-huawei-wsp\sc-gd450i-board-test\Debug/../kernel/base/mem/los_membox.c:89
    {
        return LOS_NOK;
20000a12:	2301      	movs	r3, #1
20000a14:	e046      	b.n	20000aa4 <LOS_MemboxInit+0xac>
C:\Users\nitin.deshpande\Documents\GitHub\microsemi-huawei-liteos\microsemi-liteos\mscc-huawei-wsp\sc-gd450i-board-test\Debug/../kernel/base/mem/los_membox.c:92
    }

    if (uwBlkSize == 0)
20000a16:	687b      	ldr	r3, [r7, #4]
20000a18:	2b00      	cmp	r3, #0
20000a1a:	d101      	bne.n	20000a20 <LOS_MemboxInit+0x28>
C:\Users\nitin.deshpande\Documents\GitHub\microsemi-huawei-liteos\microsemi-liteos\mscc-huawei-wsp\sc-gd450i-board-test\Debug/../kernel/base/mem/los_membox.c:94
    {
        return LOS_NOK;
20000a1c:	2301      	movs	r3, #1
20000a1e:	e041      	b.n	20000aa4 <LOS_MemboxInit+0xac>
C:\Users\nitin.deshpande\Documents\GitHub\microsemi-huawei-liteos\microsemi-liteos\mscc-huawei-wsp\sc-gd450i-board-test\Debug/../kernel/base/mem/los_membox.c:97
    }

    if (uwBoxSize < sizeof(LOS_MEMBOX_INFO))
20000a20:	68bb      	ldr	r3, [r7, #8]
20000a22:	2b0b      	cmp	r3, #11
20000a24:	d801      	bhi.n	20000a2a <LOS_MemboxInit+0x32>
C:\Users\nitin.deshpande\Documents\GitHub\microsemi-huawei-liteos\microsemi-liteos\mscc-huawei-wsp\sc-gd450i-board-test\Debug/../kernel/base/mem/los_membox.c:99
    {
        return LOS_NOK;
20000a26:	2301      	movs	r3, #1
20000a28:	e03c      	b.n	20000aa4 <LOS_MemboxInit+0xac>
C:\Users\nitin.deshpande\Documents\GitHub\microsemi-huawei-liteos\microsemi-liteos\mscc-huawei-wsp\sc-gd450i-board-test\Debug/../kernel/base/mem/los_membox.c:102
    }

    uvIntSave = LOS_IntLock();
20000a2a:	f7ff fce8 	bl	200003fe <LOS_IntLock>
20000a2e:	6138      	str	r0, [r7, #16]
C:\Users\nitin.deshpande\Documents\GitHub\microsemi-huawei-liteos\microsemi-liteos\mscc-huawei-wsp\sc-gd450i-board-test\Debug/../kernel/base/mem/los_membox.c:103
    pstBoxInfo->uwBlkSize = LOS_MEMBOX_ALLIGNED(uwBlkSize + LOS_MEMBOX_MAGIC_SIZE);
20000a30:	687b      	ldr	r3, [r7, #4]
20000a32:	3307      	adds	r3, #7
20000a34:	f023 0203 	bic.w	r2, r3, #3
20000a38:	697b      	ldr	r3, [r7, #20]
20000a3a:	601a      	str	r2, [r3, #0]
C:\Users\nitin.deshpande\Documents\GitHub\microsemi-huawei-liteos\microsemi-liteos\mscc-huawei-wsp\sc-gd450i-board-test\Debug/../kernel/base/mem/los_membox.c:104
    pstBoxInfo->uwBlkNum = ((uwBoxSize - sizeof(LOS_MEMBOX_INFO)) /pstBoxInfo->uwBlkSize);
20000a3c:	68bb      	ldr	r3, [r7, #8]
20000a3e:	f1a3 020c 	sub.w	r2, r3, #12
20000a42:	697b      	ldr	r3, [r7, #20]
20000a44:	681b      	ldr	r3, [r3, #0]
20000a46:	fbb2 f2f3 	udiv	r2, r2, r3
20000a4a:	697b      	ldr	r3, [r7, #20]
20000a4c:	605a      	str	r2, [r3, #4]
C:\Users\nitin.deshpande\Documents\GitHub\microsemi-huawei-liteos\microsemi-liteos\mscc-huawei-wsp\sc-gd450i-board-test\Debug/../kernel/base/mem/los_membox.c:106

    if (pstBoxInfo->uwBlkNum == 0)
20000a4e:	697b      	ldr	r3, [r7, #20]
20000a50:	685b      	ldr	r3, [r3, #4]
20000a52:	2b00      	cmp	r3, #0
20000a54:	d104      	bne.n	20000a60 <LOS_MemboxInit+0x68>
C:\Users\nitin.deshpande\Documents\GitHub\microsemi-huawei-liteos\microsemi-liteos\mscc-huawei-wsp\sc-gd450i-board-test\Debug/../kernel/base/mem/los_membox.c:108
    {
        LOS_IntRestore(uvIntSave);
20000a56:	6938      	ldr	r0, [r7, #16]
20000a58:	f7ff fcd9 	bl	2000040e <LOS_IntRestore>
C:\Users\nitin.deshpande\Documents\GitHub\microsemi-huawei-liteos\microsemi-liteos\mscc-huawei-wsp\sc-gd450i-board-test\Debug/../kernel/base/mem/los_membox.c:109
        return LOS_NOK;
20000a5c:	2301      	movs	r3, #1
20000a5e:	e021      	b.n	20000aa4 <LOS_MemboxInit+0xac>
C:\Users\nitin.deshpande\Documents\GitHub\microsemi-huawei-liteos\microsemi-liteos\mscc-huawei-wsp\sc-gd450i-board-test\Debug/../kernel/base/mem/los_membox.c:112
    }

    pstNode = (LOS_MEMBOX_NODE *)(pstBoxInfo + 1);
20000a60:	697b      	ldr	r3, [r7, #20]
20000a62:	330c      	adds	r3, #12
20000a64:	61fb      	str	r3, [r7, #28]
C:\Users\nitin.deshpande\Documents\GitHub\microsemi-huawei-liteos\microsemi-liteos\mscc-huawei-wsp\sc-gd450i-board-test\Debug/../kernel/base/mem/los_membox.c:114

    pstBoxInfo->stFreeList.pstNext = pstNode;
20000a66:	697b      	ldr	r3, [r7, #20]
20000a68:	69fa      	ldr	r2, [r7, #28]
20000a6a:	609a      	str	r2, [r3, #8]
C:\Users\nitin.deshpande\Documents\GitHub\microsemi-huawei-liteos\microsemi-liteos\mscc-huawei-wsp\sc-gd450i-board-test\Debug/../kernel/base/mem/los_membox.c:116

    for (i = 0; i < pstBoxInfo->uwBlkNum - 1; ++i)
20000a6c:	2300      	movs	r3, #0
20000a6e:	61bb      	str	r3, [r7, #24]
20000a70:	e00b      	b.n	20000a8a <LOS_MemboxInit+0x92>
C:\Users\nitin.deshpande\Documents\GitHub\microsemi-huawei-liteos\microsemi-liteos\mscc-huawei-wsp\sc-gd450i-board-test\Debug/../kernel/base/mem/los_membox.c:118 (discriminator 3)
    {
        pstNode->pstNext = OS_MEMBOX_NEXT(pstNode, pstBoxInfo->uwBlkSize);
20000a72:	697b      	ldr	r3, [r7, #20]
20000a74:	681b      	ldr	r3, [r3, #0]
20000a76:	69fa      	ldr	r2, [r7, #28]
20000a78:	441a      	add	r2, r3
20000a7a:	69fb      	ldr	r3, [r7, #28]
20000a7c:	601a      	str	r2, [r3, #0]
C:\Users\nitin.deshpande\Documents\GitHub\microsemi-huawei-liteos\microsemi-liteos\mscc-huawei-wsp\sc-gd450i-board-test\Debug/../kernel/base/mem/los_membox.c:119 (discriminator 3)
        pstNode = pstNode->pstNext;
20000a7e:	69fb      	ldr	r3, [r7, #28]
20000a80:	681b      	ldr	r3, [r3, #0]
20000a82:	61fb      	str	r3, [r7, #28]
C:\Users\nitin.deshpande\Documents\GitHub\microsemi-huawei-liteos\microsemi-liteos\mscc-huawei-wsp\sc-gd450i-board-test\Debug/../kernel/base/mem/los_membox.c:116 (discriminator 3)
    for (i = 0; i < pstBoxInfo->uwBlkNum - 1; ++i)
20000a84:	69bb      	ldr	r3, [r7, #24]
20000a86:	3301      	adds	r3, #1
20000a88:	61bb      	str	r3, [r7, #24]
C:\Users\nitin.deshpande\Documents\GitHub\microsemi-huawei-liteos\microsemi-liteos\mscc-huawei-wsp\sc-gd450i-board-test\Debug/../kernel/base/mem/los_membox.c:116 (discriminator 1)
20000a8a:	697b      	ldr	r3, [r7, #20]
20000a8c:	685b      	ldr	r3, [r3, #4]
20000a8e:	1e5a      	subs	r2, r3, #1
20000a90:	69bb      	ldr	r3, [r7, #24]
20000a92:	429a      	cmp	r2, r3
20000a94:	d8ed      	bhi.n	20000a72 <LOS_MemboxInit+0x7a>
C:\Users\nitin.deshpande\Documents\GitHub\microsemi-huawei-liteos\microsemi-liteos\mscc-huawei-wsp\sc-gd450i-board-test\Debug/../kernel/base/mem/los_membox.c:122
    }

    pstNode->pstNext = (LOS_MEMBOX_NODE *)NULL;
20000a96:	69fb      	ldr	r3, [r7, #28]
20000a98:	2200      	movs	r2, #0
20000a9a:	601a      	str	r2, [r3, #0]
C:\Users\nitin.deshpande\Documents\GitHub\microsemi-huawei-liteos\microsemi-liteos\mscc-huawei-wsp\sc-gd450i-board-test\Debug/../kernel/base/mem/los_membox.c:124

    LOS_IntRestore(uvIntSave);
20000a9c:	6938      	ldr	r0, [r7, #16]
20000a9e:	f7ff fcb6 	bl	2000040e <LOS_IntRestore>
C:\Users\nitin.deshpande\Documents\GitHub\microsemi-huawei-liteos\microsemi-liteos\mscc-huawei-wsp\sc-gd450i-board-test\Debug/../kernel/base/mem/los_membox.c:126

    return LOS_OK;
20000aa2:	2300      	movs	r3, #0
C:\Users\nitin.deshpande\Documents\GitHub\microsemi-huawei-liteos\microsemi-liteos\mscc-huawei-wsp\sc-gd450i-board-test\Debug/../kernel/base/mem/los_membox.c:127
}
20000aa4:	4618      	mov	r0, r3
20000aa6:	3720      	adds	r7, #32
20000aa8:	46bd      	mov	sp, r7
20000aaa:	bd80      	pop	{r7, pc}

20000aac <LOS_MemboxAlloc>:
LOS_MemboxAlloc():
C:\Users\nitin.deshpande\Documents\GitHub\microsemi-huawei-liteos\microsemi-liteos\mscc-huawei-wsp\sc-gd450i-board-test\Debug/../kernel/base/mem/los_membox.c:130

LITE_OS_SEC_TEXT VOID *LOS_MemboxAlloc(VOID *pPool)
{
20000aac:	b580      	push	{r7, lr}
20000aae:	b086      	sub	sp, #24
20000ab0:	af00      	add	r7, sp, #0
20000ab2:	6078      	str	r0, [r7, #4]
C:\Users\nitin.deshpande\Documents\GitHub\microsemi-huawei-liteos\microsemi-liteos\mscc-huawei-wsp\sc-gd450i-board-test\Debug/../kernel/base/mem/los_membox.c:131
    LOS_MEMBOX_INFO *pstBoxInfo = (LOS_MEMBOX_INFO *)pPool;
20000ab4:	687b      	ldr	r3, [r7, #4]
20000ab6:	613b      	str	r3, [r7, #16]
C:\Users\nitin.deshpande\Documents\GitHub\microsemi-huawei-liteos\microsemi-liteos\mscc-huawei-wsp\sc-gd450i-board-test\Debug/../kernel/base/mem/los_membox.c:132
    LOS_MEMBOX_NODE *pstNode = (LOS_MEMBOX_NODE *)NULL;
20000ab8:	2300      	movs	r3, #0
20000aba:	60fb      	str	r3, [r7, #12]
C:\Users\nitin.deshpande\Documents\GitHub\microsemi-huawei-liteos\microsemi-liteos\mscc-huawei-wsp\sc-gd450i-board-test\Debug/../kernel/base/mem/los_membox.c:133
    LOS_MEMBOX_NODE *pstRet = (LOS_MEMBOX_NODE *)NULL;
20000abc:	2300      	movs	r3, #0
20000abe:	617b      	str	r3, [r7, #20]
C:\Users\nitin.deshpande\Documents\GitHub\microsemi-huawei-liteos\microsemi-liteos\mscc-huawei-wsp\sc-gd450i-board-test\Debug/../kernel/base/mem/los_membox.c:136
    UINTPTR uvIntSave;

    if (pPool == NULL)
20000ac0:	687b      	ldr	r3, [r7, #4]
20000ac2:	2b00      	cmp	r3, #0
20000ac4:	d101      	bne.n	20000aca <LOS_MemboxAlloc+0x1e>
C:\Users\nitin.deshpande\Documents\GitHub\microsemi-huawei-liteos\microsemi-liteos\mscc-huawei-wsp\sc-gd450i-board-test\Debug/../kernel/base/mem/los_membox.c:138
    {
        return NULL;
20000ac6:	2300      	movs	r3, #0
20000ac8:	e01d      	b.n	20000b06 <LOS_MemboxAlloc+0x5a>
C:\Users\nitin.deshpande\Documents\GitHub\microsemi-huawei-liteos\microsemi-liteos\mscc-huawei-wsp\sc-gd450i-board-test\Debug/../kernel/base/mem/los_membox.c:141
    }

    uvIntSave = LOS_IntLock();
20000aca:	f7ff fc98 	bl	200003fe <LOS_IntLock>
20000ace:	60b8      	str	r0, [r7, #8]
C:\Users\nitin.deshpande\Documents\GitHub\microsemi-huawei-liteos\microsemi-liteos\mscc-huawei-wsp\sc-gd450i-board-test\Debug/../kernel/base/mem/los_membox.c:142
    pstNode = &(pstBoxInfo->stFreeList);
20000ad0:	693b      	ldr	r3, [r7, #16]
20000ad2:	3308      	adds	r3, #8
20000ad4:	60fb      	str	r3, [r7, #12]
C:\Users\nitin.deshpande\Documents\GitHub\microsemi-huawei-liteos\microsemi-liteos\mscc-huawei-wsp\sc-gd450i-board-test\Debug/../kernel/base/mem/los_membox.c:143
    if (pstNode->pstNext != NULL)
20000ad6:	68fb      	ldr	r3, [r7, #12]
20000ad8:	681b      	ldr	r3, [r3, #0]
20000ada:	2b00      	cmp	r3, #0
20000adc:	d009      	beq.n	20000af2 <LOS_MemboxAlloc+0x46>
C:\Users\nitin.deshpande\Documents\GitHub\microsemi-huawei-liteos\microsemi-liteos\mscc-huawei-wsp\sc-gd450i-board-test\Debug/../kernel/base/mem/los_membox.c:145
    {
        pstRet = pstNode->pstNext;
20000ade:	68fb      	ldr	r3, [r7, #12]
20000ae0:	681b      	ldr	r3, [r3, #0]
20000ae2:	617b      	str	r3, [r7, #20]
C:\Users\nitin.deshpande\Documents\GitHub\microsemi-huawei-liteos\microsemi-liteos\mscc-huawei-wsp\sc-gd450i-board-test\Debug/../kernel/base/mem/los_membox.c:146
        pstNode->pstNext = pstRet->pstNext;
20000ae4:	697b      	ldr	r3, [r7, #20]
20000ae6:	681a      	ldr	r2, [r3, #0]
20000ae8:	68fb      	ldr	r3, [r7, #12]
20000aea:	601a      	str	r2, [r3, #0]
C:\Users\nitin.deshpande\Documents\GitHub\microsemi-huawei-liteos\microsemi-liteos\mscc-huawei-wsp\sc-gd450i-board-test\Debug/../kernel/base/mem/los_membox.c:147
        OS_MEMBOX_SET_MAGIC(pstRet);
20000aec:	697b      	ldr	r3, [r7, #20]
20000aee:	4a08      	ldr	r2, [pc, #32]	; (20000b10 <LOS_MemboxAlloc+0x64>)
20000af0:	601a      	str	r2, [r3, #0]
C:\Users\nitin.deshpande\Documents\GitHub\microsemi-huawei-liteos\microsemi-liteos\mscc-huawei-wsp\sc-gd450i-board-test\Debug/../kernel/base/mem/los_membox.c:150
    }

    LOS_IntRestore(uvIntSave);
20000af2:	68b8      	ldr	r0, [r7, #8]
20000af4:	f7ff fc8b 	bl	2000040e <LOS_IntRestore>
C:\Users\nitin.deshpande\Documents\GitHub\microsemi-huawei-liteos\microsemi-liteos\mscc-huawei-wsp\sc-gd450i-board-test\Debug/../kernel/base/mem/los_membox.c:152

    return pstRet == NULL ?  NULL : OS_MEMBOX_USER_ADDR(pstRet);
20000af8:	697b      	ldr	r3, [r7, #20]
20000afa:	2b00      	cmp	r3, #0
20000afc:	d002      	beq.n	20000b04 <LOS_MemboxAlloc+0x58>
C:\Users\nitin.deshpande\Documents\GitHub\microsemi-huawei-liteos\microsemi-liteos\mscc-huawei-wsp\sc-gd450i-board-test\Debug/../kernel/base/mem/los_membox.c:152 (discriminator 1)
20000afe:	697b      	ldr	r3, [r7, #20]
20000b00:	3304      	adds	r3, #4
20000b02:	e000      	b.n	20000b06 <LOS_MemboxAlloc+0x5a>
C:\Users\nitin.deshpande\Documents\GitHub\microsemi-huawei-liteos\microsemi-liteos\mscc-huawei-wsp\sc-gd450i-board-test\Debug/../kernel/base/mem/los_membox.c:152 (discriminator 2)
20000b04:	2300      	movs	r3, #0
C:\Users\nitin.deshpande\Documents\GitHub\microsemi-huawei-liteos\microsemi-liteos\mscc-huawei-wsp\sc-gd450i-board-test\Debug/../kernel/base/mem/los_membox.c:153
}
20000b06:	4618      	mov	r0, r3
20000b08:	3718      	adds	r7, #24
20000b0a:	46bd      	mov	sp, r7
20000b0c:	bd80      	pop	{r7, pc}
20000b0e:	bf00      	nop
20000b10:	a55a5aa5 	.word	0xa55a5aa5

20000b14 <LOS_MemboxFree>:
LOS_MemboxFree():
C:\Users\nitin.deshpande\Documents\GitHub\microsemi-huawei-liteos\microsemi-liteos\mscc-huawei-wsp\sc-gd450i-board-test\Debug/../kernel/base/mem/los_membox.c:156

LITE_OS_SEC_TEXT UINT32 LOS_MemboxFree(VOID *pPool, VOID *pBox)
{
20000b14:	b580      	push	{r7, lr}
20000b16:	b086      	sub	sp, #24
20000b18:	af00      	add	r7, sp, #0
20000b1a:	6078      	str	r0, [r7, #4]
20000b1c:	6039      	str	r1, [r7, #0]
C:\Users\nitin.deshpande\Documents\GitHub\microsemi-huawei-liteos\microsemi-liteos\mscc-huawei-wsp\sc-gd450i-board-test\Debug/../kernel/base/mem/los_membox.c:157
    LOS_MEMBOX_INFO *pstBoxInfo = (LOS_MEMBOX_INFO *)pPool;
20000b1e:	687b      	ldr	r3, [r7, #4]
20000b20:	613b      	str	r3, [r7, #16]
C:\Users\nitin.deshpande\Documents\GitHub\microsemi-huawei-liteos\microsemi-liteos\mscc-huawei-wsp\sc-gd450i-board-test\Debug/../kernel/base/mem/los_membox.c:158
    UINT32 uwRet = LOS_NOK;
20000b22:	2301      	movs	r3, #1
20000b24:	617b      	str	r3, [r7, #20]
C:\Users\nitin.deshpande\Documents\GitHub\microsemi-huawei-liteos\microsemi-liteos\mscc-huawei-wsp\sc-gd450i-board-test\Debug/../kernel/base/mem/los_membox.c:161
    UINTPTR uvIntSave;

    if (pPool == NULL || pBox == NULL)
20000b26:	687b      	ldr	r3, [r7, #4]
20000b28:	2b00      	cmp	r3, #0
20000b2a:	d002      	beq.n	20000b32 <LOS_MemboxFree+0x1e>
C:\Users\nitin.deshpande\Documents\GitHub\microsemi-huawei-liteos\microsemi-liteos\mscc-huawei-wsp\sc-gd450i-board-test\Debug/../kernel/base/mem/los_membox.c:161 (discriminator 1)
20000b2c:	683b      	ldr	r3, [r7, #0]
20000b2e:	2b00      	cmp	r3, #0
20000b30:	d101      	bne.n	20000b36 <LOS_MemboxFree+0x22>
C:\Users\nitin.deshpande\Documents\GitHub\microsemi-huawei-liteos\microsemi-liteos\mscc-huawei-wsp\sc-gd450i-board-test\Debug/../kernel/base/mem/los_membox.c:163
    {
        return LOS_NOK;
20000b32:	2301      	movs	r3, #1
20000b34:	e01b      	b.n	20000b6e <LOS_MemboxFree+0x5a>
C:\Users\nitin.deshpande\Documents\GitHub\microsemi-huawei-liteos\microsemi-liteos\mscc-huawei-wsp\sc-gd450i-board-test\Debug/../kernel/base/mem/los_membox.c:166
    }

    uvIntSave = LOS_IntLock();
20000b36:	f7ff fc62 	bl	200003fe <LOS_IntLock>
20000b3a:	60f8      	str	r0, [r7, #12]
C:\Users\nitin.deshpande\Documents\GitHub\microsemi-huawei-liteos\microsemi-liteos\mscc-huawei-wsp\sc-gd450i-board-test\Debug/../kernel/base/mem/los_membox.c:169
    do
    {
        LOS_MEMBOX_NODE *pstNode = OS_MEMBOX_NODE_ADDR(pBox);
20000b3c:	683b      	ldr	r3, [r7, #0]
20000b3e:	3b04      	subs	r3, #4
20000b40:	60bb      	str	r3, [r7, #8]
C:\Users\nitin.deshpande\Documents\GitHub\microsemi-huawei-liteos\microsemi-liteos\mscc-huawei-wsp\sc-gd450i-board-test\Debug/../kernel/base/mem/los_membox.c:171

        if (osCheckBoxMem(pstBoxInfo, pstNode) != LOS_OK)
20000b42:	68b9      	ldr	r1, [r7, #8]
20000b44:	6938      	ldr	r0, [r7, #16]
20000b46:	f7ff ff1f 	bl	20000988 <osCheckBoxMem>
20000b4a:	4603      	mov	r3, r0
20000b4c:	2b00      	cmp	r3, #0
20000b4e:	d109      	bne.n	20000b64 <LOS_MemboxFree+0x50>
C:\Users\nitin.deshpande\Documents\GitHub\microsemi-huawei-liteos\microsemi-liteos\mscc-huawei-wsp\sc-gd450i-board-test\Debug/../kernel/base/mem/los_membox.c:176
        {
            break;
        }

        pstNode->pstNext = pstBoxInfo->stFreeList.pstNext;
20000b50:	693b      	ldr	r3, [r7, #16]
20000b52:	689a      	ldr	r2, [r3, #8]
20000b54:	68bb      	ldr	r3, [r7, #8]
20000b56:	601a      	str	r2, [r3, #0]
C:\Users\nitin.deshpande\Documents\GitHub\microsemi-huawei-liteos\microsemi-liteos\mscc-huawei-wsp\sc-gd450i-board-test\Debug/../kernel/base/mem/los_membox.c:177
        pstBoxInfo->stFreeList.pstNext = pstNode;
20000b58:	693b      	ldr	r3, [r7, #16]
20000b5a:	68ba      	ldr	r2, [r7, #8]
20000b5c:	609a      	str	r2, [r3, #8]
C:\Users\nitin.deshpande\Documents\GitHub\microsemi-huawei-liteos\microsemi-liteos\mscc-huawei-wsp\sc-gd450i-board-test\Debug/../kernel/base/mem/los_membox.c:178
        uwRet = LOS_OK;
20000b5e:	2300      	movs	r3, #0
20000b60:	617b      	str	r3, [r7, #20]
20000b62:	e000      	b.n	20000b66 <LOS_MemboxFree+0x52>
C:\Users\nitin.deshpande\Documents\GitHub\microsemi-huawei-liteos\microsemi-liteos\mscc-huawei-wsp\sc-gd450i-board-test\Debug/../kernel/base/mem/los_membox.c:173
            break;
20000b64:	bf00      	nop
C:\Users\nitin.deshpande\Documents\GitHub\microsemi-huawei-liteos\microsemi-liteos\mscc-huawei-wsp\sc-gd450i-board-test\Debug/../kernel/base/mem/los_membox.c:181
    } while (0);

    LOS_IntRestore(uvIntSave);
20000b66:	68f8      	ldr	r0, [r7, #12]
20000b68:	f7ff fc51 	bl	2000040e <LOS_IntRestore>
C:\Users\nitin.deshpande\Documents\GitHub\microsemi-huawei-liteos\microsemi-liteos\mscc-huawei-wsp\sc-gd450i-board-test\Debug/../kernel/base/mem/los_membox.c:183

    return uwRet;
20000b6c:	697b      	ldr	r3, [r7, #20]
C:\Users\nitin.deshpande\Documents\GitHub\microsemi-huawei-liteos\microsemi-liteos\mscc-huawei-wsp\sc-gd450i-board-test\Debug/../kernel/base/mem/los_membox.c:185

}
20000b6e:	4618      	mov	r0, r3
20000b70:	3718      	adds	r7, #24
20000b72:	46bd      	mov	sp, r7
20000b74:	bd80      	pop	{r7, pc}

20000b76 <LOS_ListAdd>:
LOS_ListAdd():
C:\Users\nitin.deshpande\Documents\GitHub\microsemi-huawei-liteos\microsemi-liteos\mscc-huawei-wsp\sc-gd450i-board-test\kernel\include/los_list.h:130
 *<ul><li>los_list.h: the header file that contains the API declaration.</li></ul>
 *@see
 *@since Huawei LiteOS V100R001C00
 */
LITE_OS_SEC_ALW_INLINE INLINE VOID LOS_ListAdd(LOS_DL_LIST *pstList, LOS_DL_LIST *pstNode)
{
20000b76:	b480      	push	{r7}
20000b78:	b083      	sub	sp, #12
20000b7a:	af00      	add	r7, sp, #0
20000b7c:	6078      	str	r0, [r7, #4]
20000b7e:	6039      	str	r1, [r7, #0]
C:\Users\nitin.deshpande\Documents\GitHub\microsemi-huawei-liteos\microsemi-liteos\mscc-huawei-wsp\sc-gd450i-board-test\kernel\include/los_list.h:131
    pstNode->pstNext = pstList->pstNext;
20000b80:	687b      	ldr	r3, [r7, #4]
20000b82:	685a      	ldr	r2, [r3, #4]
20000b84:	683b      	ldr	r3, [r7, #0]
20000b86:	605a      	str	r2, [r3, #4]
C:\Users\nitin.deshpande\Documents\GitHub\microsemi-huawei-liteos\microsemi-liteos\mscc-huawei-wsp\sc-gd450i-board-test\kernel\include/los_list.h:132
    pstNode->pstPrev = pstList;
20000b88:	683b      	ldr	r3, [r7, #0]
20000b8a:	687a      	ldr	r2, [r7, #4]
20000b8c:	601a      	str	r2, [r3, #0]
C:\Users\nitin.deshpande\Documents\GitHub\microsemi-huawei-liteos\microsemi-liteos\mscc-huawei-wsp\sc-gd450i-board-test\kernel\include/los_list.h:133
    pstList->pstNext->pstPrev = pstNode;
20000b8e:	687b      	ldr	r3, [r7, #4]
20000b90:	685b      	ldr	r3, [r3, #4]
20000b92:	683a      	ldr	r2, [r7, #0]
20000b94:	601a      	str	r2, [r3, #0]
C:\Users\nitin.deshpande\Documents\GitHub\microsemi-huawei-liteos\microsemi-liteos\mscc-huawei-wsp\sc-gd450i-board-test\kernel\include/los_list.h:134
    pstList->pstNext = pstNode;
20000b96:	687b      	ldr	r3, [r7, #4]
20000b98:	683a      	ldr	r2, [r7, #0]
20000b9a:	605a      	str	r2, [r3, #4]
C:\Users\nitin.deshpande\Documents\GitHub\microsemi-huawei-liteos\microsemi-liteos\mscc-huawei-wsp\sc-gd450i-board-test\kernel\include/los_list.h:135
}
20000b9c:	bf00      	nop
20000b9e:	370c      	adds	r7, #12
20000ba0:	46bd      	mov	sp, r7
20000ba2:	f85d 7b04 	ldr.w	r7, [sp], #4
20000ba6:	4770      	bx	lr

20000ba8 <LOS_ListTailInsert>:
LOS_ListTailInsert():
C:\Users\nitin.deshpande\Documents\GitHub\microsemi-huawei-liteos\microsemi-liteos\mscc-huawei-wsp\sc-gd450i-board-test\kernel\include/los_list.h:158
 *<ul><li>los_list.h: the header file that contains the API declaration.</li></ul>
 *@see LOS_ListAdd
 *@since Huawei LiteOS V100R001C00
 */
LITE_OS_SEC_ALW_INLINE INLINE VOID LOS_ListTailInsert(LOS_DL_LIST *pstList, LOS_DL_LIST *pstNode)
{
20000ba8:	b580      	push	{r7, lr}
20000baa:	b082      	sub	sp, #8
20000bac:	af00      	add	r7, sp, #0
20000bae:	6078      	str	r0, [r7, #4]
20000bb0:	6039      	str	r1, [r7, #0]
C:\Users\nitin.deshpande\Documents\GitHub\microsemi-huawei-liteos\microsemi-liteos\mscc-huawei-wsp\sc-gd450i-board-test\kernel\include/los_list.h:159
    LOS_ListAdd(pstList->pstPrev, pstNode);
20000bb2:	687b      	ldr	r3, [r7, #4]
20000bb4:	681b      	ldr	r3, [r3, #0]
20000bb6:	6839      	ldr	r1, [r7, #0]
20000bb8:	4618      	mov	r0, r3
20000bba:	f7ff ffdc 	bl	20000b76 <LOS_ListAdd>
C:\Users\nitin.deshpande\Documents\GitHub\microsemi-huawei-liteos\microsemi-liteos\mscc-huawei-wsp\sc-gd450i-board-test\kernel\include/los_list.h:160
}
20000bbe:	bf00      	nop
20000bc0:	3708      	adds	r7, #8
20000bc2:	46bd      	mov	sp, r7
20000bc4:	bd80      	pop	{r7, pc}

20000bc6 <LOS_ListDelete>:
LOS_ListDelete():
C:\Users\nitin.deshpande\Documents\GitHub\microsemi-huawei-liteos\microsemi-liteos\mscc-huawei-wsp\sc-gd450i-board-test\kernel\include/los_list.h:184
 *<ul><li>los_list.h: the header file that contains the API declaration.</li></ul>
 *@see LOS_ListAdd
 *@since Huawei LiteOS V100R001C00
 */
LITE_OS_SEC_ALW_INLINE INLINE VOID LOS_ListDelete(LOS_DL_LIST *pstNode)
{
20000bc6:	b480      	push	{r7}
20000bc8:	b083      	sub	sp, #12
20000bca:	af00      	add	r7, sp, #0
20000bcc:	6078      	str	r0, [r7, #4]
C:\Users\nitin.deshpande\Documents\GitHub\microsemi-huawei-liteos\microsemi-liteos\mscc-huawei-wsp\sc-gd450i-board-test\kernel\include/los_list.h:185
    pstNode->pstNext->pstPrev = pstNode->pstPrev;
20000bce:	687b      	ldr	r3, [r7, #4]
20000bd0:	685b      	ldr	r3, [r3, #4]
20000bd2:	687a      	ldr	r2, [r7, #4]
20000bd4:	6812      	ldr	r2, [r2, #0]
20000bd6:	601a      	str	r2, [r3, #0]
C:\Users\nitin.deshpande\Documents\GitHub\microsemi-huawei-liteos\microsemi-liteos\mscc-huawei-wsp\sc-gd450i-board-test\kernel\include/los_list.h:186
    pstNode->pstPrev->pstNext = pstNode->pstNext;
20000bd8:	687b      	ldr	r3, [r7, #4]
20000bda:	681b      	ldr	r3, [r3, #0]
20000bdc:	687a      	ldr	r2, [r7, #4]
20000bde:	6852      	ldr	r2, [r2, #4]
20000be0:	605a      	str	r2, [r3, #4]
C:\Users\nitin.deshpande\Documents\GitHub\microsemi-huawei-liteos\microsemi-liteos\mscc-huawei-wsp\sc-gd450i-board-test\kernel\include/los_list.h:187
    pstNode->pstNext = (LOS_DL_LIST *)NULL;
20000be2:	687b      	ldr	r3, [r7, #4]
20000be4:	2200      	movs	r2, #0
20000be6:	605a      	str	r2, [r3, #4]
C:\Users\nitin.deshpande\Documents\GitHub\microsemi-huawei-liteos\microsemi-liteos\mscc-huawei-wsp\sc-gd450i-board-test\kernel\include/los_list.h:188
    pstNode->pstPrev = (LOS_DL_LIST *)NULL;
20000be8:	687b      	ldr	r3, [r7, #4]
20000bea:	2200      	movs	r2, #0
20000bec:	601a      	str	r2, [r3, #0]
C:\Users\nitin.deshpande\Documents\GitHub\microsemi-huawei-liteos\microsemi-liteos\mscc-huawei-wsp\sc-gd450i-board-test\kernel\include/los_list.h:189
}
20000bee:	bf00      	nop
20000bf0:	370c      	adds	r7, #12
20000bf2:	46bd      	mov	sp, r7
20000bf4:	f85d 7b04 	ldr.w	r7, [sp], #4
20000bf8:	4770      	bx	lr

20000bfa <LOS_DLnkNextMultiHead>:
LOS_DLnkNextMultiHead():
C:\Users\nitin.deshpande\Documents\GitHub\microsemi-huawei-liteos\microsemi-liteos\mscc-huawei-wsp\sc-gd450i-board-test\kernel\include/los_multipledlinkhead.h:64
{
    LOS_DL_LIST stListHead[OS_MULTI_DLNK_NUM];
} LOS_MULTIPLE_DLNK_HEAD;

INLINE LOS_DL_LIST *LOS_DLnkNextMultiHead(VOID *pHeadAddr, LOS_DL_LIST *pstListHead)
{
20000bfa:	b480      	push	{r7}
20000bfc:	b085      	sub	sp, #20
20000bfe:	af00      	add	r7, sp, #0
20000c00:	6078      	str	r0, [r7, #4]
20000c02:	6039      	str	r1, [r7, #0]
C:\Users\nitin.deshpande\Documents\GitHub\microsemi-huawei-liteos\microsemi-liteos\mscc-huawei-wsp\sc-gd450i-board-test\kernel\include/los_multipledlinkhead.h:65
    LOS_MULTIPLE_DLNK_HEAD *head = (LOS_MULTIPLE_DLNK_HEAD *)pHeadAddr;
20000c04:	687b      	ldr	r3, [r7, #4]
20000c06:	60fb      	str	r3, [r7, #12]
C:\Users\nitin.deshpande\Documents\GitHub\microsemi-huawei-liteos\microsemi-liteos\mscc-huawei-wsp\sc-gd450i-board-test\kernel\include/los_multipledlinkhead.h:67

    return (&(head->stListHead[OS_MULTI_DLNK_NUM - 1]) == pstListHead) ? NULL : (pstListHead + 1);
20000c08:	68fb      	ldr	r3, [r7, #12]
20000c0a:	f103 02d0 	add.w	r2, r3, #208	; 0xd0
20000c0e:	683b      	ldr	r3, [r7, #0]
20000c10:	429a      	cmp	r2, r3
20000c12:	d002      	beq.n	20000c1a <LOS_DLnkNextMultiHead+0x20>
C:\Users\nitin.deshpande\Documents\GitHub\microsemi-huawei-liteos\microsemi-liteos\mscc-huawei-wsp\sc-gd450i-board-test\kernel\include/los_multipledlinkhead.h:67 (discriminator 1)
20000c14:	683b      	ldr	r3, [r7, #0]
20000c16:	3308      	adds	r3, #8
20000c18:	e000      	b.n	20000c1c <LOS_DLnkNextMultiHead+0x22>
C:\Users\nitin.deshpande\Documents\GitHub\microsemi-huawei-liteos\microsemi-liteos\mscc-huawei-wsp\sc-gd450i-board-test\kernel\include/los_multipledlinkhead.h:67 (discriminator 2)
20000c1a:	2300      	movs	r3, #0
C:\Users\nitin.deshpande\Documents\GitHub\microsemi-huawei-liteos\microsemi-liteos\mscc-huawei-wsp\sc-gd450i-board-test\kernel\include/los_multipledlinkhead.h:68 (discriminator 5)
}
20000c1c:	4618      	mov	r0, r3
20000c1e:	3714      	adds	r7, #20
20000c20:	46bd      	mov	sp, r7
20000c22:	f85d 7b04 	ldr.w	r7, [sp], #4
20000c26:	4770      	bx	lr

20000c28 <osMemSystemInit>:
osMemSystemInit():
C:\Users\nitin.deshpande\Documents\GitHub\microsemi-huawei-liteos\microsemi-liteos\mscc-huawei-wsp\sc-gd450i-board-test\Debug/../kernel/base/mem/los_memory.c:65

/*MSCC update: moving this to TCM as this is the biggest data structure and can fit in TCM.*/
UINT8 g_ucMemStart[OS_SYS_MEM_SIZE] __attribute__ ((section (".tcm")));

LITE_OS_SEC_TEXT_INIT UINT32 osMemSystemInit()
{
20000c28:	b580      	push	{r7, lr}
20000c2a:	b082      	sub	sp, #8
20000c2c:	af00      	add	r7, sp, #0
C:\Users\nitin.deshpande\Documents\GitHub\microsemi-huawei-liteos\microsemi-liteos\mscc-huawei-wsp\sc-gd450i-board-test\Debug/../kernel/base/mem/los_memory.c:68
    UINT32 uwRet;

    m_aucSysMem0 = g_ucMemStart;
20000c2e:	4b08      	ldr	r3, [pc, #32]	; (20000c50 <osMemSystemInit+0x28>)
20000c30:	4a08      	ldr	r2, [pc, #32]	; (20000c54 <osMemSystemInit+0x2c>)
20000c32:	601a      	str	r2, [r3, #0]
C:\Users\nitin.deshpande\Documents\GitHub\microsemi-huawei-liteos\microsemi-liteos\mscc-huawei-wsp\sc-gd450i-board-test\Debug/../kernel/base/mem/los_memory.c:69
    uwRet = LOS_MemInit(m_aucSysMem0, OS_SYS_MEM_SIZE);
20000c34:	4b06      	ldr	r3, [pc, #24]	; (20000c50 <osMemSystemInit+0x28>)
20000c36:	681b      	ldr	r3, [r3, #0]
20000c38:	f44f 4130 	mov.w	r1, #45056	; 0xb000
20000c3c:	4618      	mov	r0, r3
20000c3e:	f000 fa29 	bl	20001094 <LOS_MemInit>
20000c42:	6078      	str	r0, [r7, #4]
C:\Users\nitin.deshpande\Documents\GitHub\microsemi-huawei-liteos\microsemi-liteos\mscc-huawei-wsp\sc-gd450i-board-test\Debug/../kernel/base/mem/los_memory.c:70
    return uwRet;
20000c44:	687b      	ldr	r3, [r7, #4]
C:\Users\nitin.deshpande\Documents\GitHub\microsemi-huawei-liteos\microsemi-liteos\mscc-huawei-wsp\sc-gd450i-board-test\Debug/../kernel/base/mem/los_memory.c:71
}
20000c46:	4618      	mov	r0, r3
20000c48:	3708      	adds	r7, #8
20000c4a:	46bd      	mov	sp, r7
20000c4c:	bd80      	pop	{r7, pc}
20000c4e:	bf00      	nop
20000c50:	20004808 	.word	0x20004808
20000c54:	10000000 	.word	0x10000000

20000c58 <osMemFindSuitableFreeBlock>:
osMemFindSuitableFreeBlock():
C:\Users\nitin.deshpande\Documents\GitHub\microsemi-huawei-liteos\microsemi-liteos\mscc-huawei-wsp\sc-gd450i-board-test\Debug/../kernel/base/mem/los_memory.c:83
 Output      : None
 Return      :NULL--no suitable block found
                 pstTem--pointer a suitable free block
*****************************************************************************/
INLINE LOS_MEM_DYN_NODE *osMemFindSuitableFreeBlock(VOID *pPool, UINT32 uwAllocSize)
{
20000c58:	b580      	push	{r7, lr}
20000c5a:	b084      	sub	sp, #16
20000c5c:	af00      	add	r7, sp, #0
20000c5e:	6078      	str	r0, [r7, #4]
20000c60:	6039      	str	r1, [r7, #0]
C:\Users\nitin.deshpande\Documents\GitHub\microsemi-huawei-liteos\microsemi-liteos\mscc-huawei-wsp\sc-gd450i-board-test\Debug/../kernel/base/mem/los_memory.c:84
    LOS_DL_LIST *pstListHead = (LOS_DL_LIST *)NULL;
20000c62:	2300      	movs	r3, #0
20000c64:	60fb      	str	r3, [r7, #12]
C:\Users\nitin.deshpande\Documents\GitHub\microsemi-huawei-liteos\microsemi-liteos\mscc-huawei-wsp\sc-gd450i-board-test\Debug/../kernel/base/mem/los_memory.c:86

    for (pstListHead = OS_MEM_HEAD(pPool, uwAllocSize); pstListHead != NULL; pstListHead = LOS_DLnkNextMultiHead(OS_MEM_HEAD_ADDR(pPool), pstListHead))
20000c66:	687b      	ldr	r3, [r7, #4]
20000c68:	3308      	adds	r3, #8
20000c6a:	6839      	ldr	r1, [r7, #0]
20000c6c:	4618      	mov	r0, r3
20000c6e:	f000 fc90 	bl	20001592 <LOS_DLnkMultiHead>
20000c72:	60f8      	str	r0, [r7, #12]
20000c74:	e01a      	b.n	20000cac <osMemFindSuitableFreeBlock+0x54>
C:\Users\nitin.deshpande\Documents\GitHub\microsemi-huawei-liteos\microsemi-liteos\mscc-huawei-wsp\sc-gd450i-board-test\Debug/../kernel/base/mem/los_memory.c:88
    {
        LOS_MEM_DYN_NODE *pstTmp = (LOS_MEM_DYN_NODE *)NULL;
20000c76:	2300      	movs	r3, #0
20000c78:	60bb      	str	r3, [r7, #8]
C:\Users\nitin.deshpande\Documents\GitHub\microsemi-huawei-liteos\microsemi-liteos\mscc-huawei-wsp\sc-gd450i-board-test\Debug/../kernel/base/mem/los_memory.c:89
        LOS_DL_LIST_FOR_EACH_ENTRY(pstTmp, pstListHead, LOS_MEM_DYN_NODE, stFreeNodeInfo) /*lint !e413*/
20000c7a:	68fb      	ldr	r3, [r7, #12]
20000c7c:	685b      	ldr	r3, [r3, #4]
20000c7e:	60bb      	str	r3, [r7, #8]
20000c80:	e009      	b.n	20000c96 <osMemFindSuitableFreeBlock+0x3e>
C:\Users\nitin.deshpande\Documents\GitHub\microsemi-huawei-liteos\microsemi-liteos\mscc-huawei-wsp\sc-gd450i-board-test\Debug/../kernel/base/mem/los_memory.c:91
        {
            if (pstTmp->uwSizeAndFlag >= uwAllocSize)
20000c82:	68bb      	ldr	r3, [r7, #8]
20000c84:	68da      	ldr	r2, [r3, #12]
20000c86:	683b      	ldr	r3, [r7, #0]
20000c88:	429a      	cmp	r2, r3
20000c8a:	d301      	bcc.n	20000c90 <osMemFindSuitableFreeBlock+0x38>
C:\Users\nitin.deshpande\Documents\GitHub\microsemi-huawei-liteos\microsemi-liteos\mscc-huawei-wsp\sc-gd450i-board-test\Debug/../kernel/base/mem/los_memory.c:93
            {
                return pstTmp;
20000c8c:	68bb      	ldr	r3, [r7, #8]
20000c8e:	e011      	b.n	20000cb4 <osMemFindSuitableFreeBlock+0x5c>
C:\Users\nitin.deshpande\Documents\GitHub\microsemi-huawei-liteos\microsemi-liteos\mscc-huawei-wsp\sc-gd450i-board-test\Debug/../kernel/base/mem/los_memory.c:89 (discriminator 2)
        LOS_DL_LIST_FOR_EACH_ENTRY(pstTmp, pstListHead, LOS_MEM_DYN_NODE, stFreeNodeInfo) /*lint !e413*/
20000c90:	68bb      	ldr	r3, [r7, #8]
20000c92:	685b      	ldr	r3, [r3, #4]
20000c94:	60bb      	str	r3, [r7, #8]
C:\Users\nitin.deshpande\Documents\GitHub\microsemi-huawei-liteos\microsemi-liteos\mscc-huawei-wsp\sc-gd450i-board-test\Debug/../kernel/base/mem/los_memory.c:89 (discriminator 1)
20000c96:	68ba      	ldr	r2, [r7, #8]
20000c98:	68fb      	ldr	r3, [r7, #12]
20000c9a:	429a      	cmp	r2, r3
20000c9c:	d1f1      	bne.n	20000c82 <osMemFindSuitableFreeBlock+0x2a>
C:\Users\nitin.deshpande\Documents\GitHub\microsemi-huawei-liteos\microsemi-liteos\mscc-huawei-wsp\sc-gd450i-board-test\Debug/../kernel/base/mem/los_memory.c:86 (discriminator 2)
    for (pstListHead = OS_MEM_HEAD(pPool, uwAllocSize); pstListHead != NULL; pstListHead = LOS_DLnkNextMultiHead(OS_MEM_HEAD_ADDR(pPool), pstListHead))
20000c9e:	687b      	ldr	r3, [r7, #4]
20000ca0:	3308      	adds	r3, #8
20000ca2:	68f9      	ldr	r1, [r7, #12]
20000ca4:	4618      	mov	r0, r3
20000ca6:	f7ff ffa8 	bl	20000bfa <LOS_DLnkNextMultiHead>
20000caa:	60f8      	str	r0, [r7, #12]
C:\Users\nitin.deshpande\Documents\GitHub\microsemi-huawei-liteos\microsemi-liteos\mscc-huawei-wsp\sc-gd450i-board-test\Debug/../kernel/base/mem/los_memory.c:86 (discriminator 1)
20000cac:	68fb      	ldr	r3, [r7, #12]
20000cae:	2b00      	cmp	r3, #0
20000cb0:	d1e1      	bne.n	20000c76 <osMemFindSuitableFreeBlock+0x1e>
C:\Users\nitin.deshpande\Documents\GitHub\microsemi-huawei-liteos\microsemi-liteos\mscc-huawei-wsp\sc-gd450i-board-test\Debug/../kernel/base/mem/los_memory.c:98
            }
        }
    }

    return (LOS_MEM_DYN_NODE *)NULL;
20000cb2:	2300      	movs	r3, #0
C:\Users\nitin.deshpande\Documents\GitHub\microsemi-huawei-liteos\microsemi-liteos\mscc-huawei-wsp\sc-gd450i-board-test\Debug/../kernel/base/mem/los_memory.c:99
}
20000cb4:	4618      	mov	r0, r3
20000cb6:	3710      	adds	r7, #16
20000cb8:	46bd      	mov	sp, r7
20000cba:	bd80      	pop	{r7, pc}

20000cbc <osMemClearNode>:
osMemClearNode():
C:\Users\nitin.deshpande\Documents\GitHub\microsemi-huawei-liteos\microsemi-liteos\mscc-huawei-wsp\sc-gd450i-board-test\Debug/../kernel/base/mem/los_memory.c:109
 Input       : pstNode    --- Pointer to the mem node which will be cleared up
 Output      : None
 Return      : None
*****************************************************************************/
INLINE VOID osMemClearNode(LOS_MEM_DYN_NODE *pstNode)
{
20000cbc:	b480      	push	{r7}
20000cbe:	b083      	sub	sp, #12
20000cc0:	af00      	add	r7, sp, #0
20000cc2:	6078      	str	r0, [r7, #4]
C:\Users\nitin.deshpande\Documents\GitHub\microsemi-huawei-liteos\microsemi-liteos\mscc-huawei-wsp\sc-gd450i-board-test\Debug/../kernel/base/mem/los_memory.c:110
    pstNode->stFreeNodeInfo.pstPrev = (LOS_DL_LIST *)NULL;
20000cc4:	687b      	ldr	r3, [r7, #4]
20000cc6:	2200      	movs	r2, #0
20000cc8:	601a      	str	r2, [r3, #0]
C:\Users\nitin.deshpande\Documents\GitHub\microsemi-huawei-liteos\microsemi-liteos\mscc-huawei-wsp\sc-gd450i-board-test\Debug/../kernel/base/mem/los_memory.c:111
    pstNode->stFreeNodeInfo.pstNext = (LOS_DL_LIST *)NULL;
20000cca:	687b      	ldr	r3, [r7, #4]
20000ccc:	2200      	movs	r2, #0
20000cce:	605a      	str	r2, [r3, #4]
C:\Users\nitin.deshpande\Documents\GitHub\microsemi-huawei-liteos\microsemi-liteos\mscc-huawei-wsp\sc-gd450i-board-test\Debug/../kernel/base/mem/los_memory.c:112
    pstNode->pstPreNode = (LOS_MEM_DYN_NODE *)NULL;
20000cd0:	687b      	ldr	r3, [r7, #4]
20000cd2:	2200      	movs	r2, #0
20000cd4:	609a      	str	r2, [r3, #8]
C:\Users\nitin.deshpande\Documents\GitHub\microsemi-huawei-liteos\microsemi-liteos\mscc-huawei-wsp\sc-gd450i-board-test\Debug/../kernel/base/mem/los_memory.c:113
}
20000cd6:	bf00      	nop
20000cd8:	370c      	adds	r7, #12
20000cda:	46bd      	mov	sp, r7
20000cdc:	f85d 7b04 	ldr.w	r7, [sp], #4
20000ce0:	4770      	bx	lr

20000ce2 <osMemMergeNode>:
osMemMergeNode():
C:\Users\nitin.deshpande\Documents\GitHub\microsemi-huawei-liteos\microsemi-liteos\mscc-huawei-wsp\sc-gd450i-board-test\Debug/../kernel/base/mem/los_memory.c:123
 Input       : pstNode    --- Pointer to node which will be merged
 Output      : None
 Return      : None
*****************************************************************************/
INLINE VOID osMemMergeNode(LOS_MEM_DYN_NODE *pstNode)
{
20000ce2:	b580      	push	{r7, lr}
20000ce4:	b084      	sub	sp, #16
20000ce6:	af00      	add	r7, sp, #0
20000ce8:	6078      	str	r0, [r7, #4]
C:\Users\nitin.deshpande\Documents\GitHub\microsemi-huawei-liteos\microsemi-liteos\mscc-huawei-wsp\sc-gd450i-board-test\Debug/../kernel/base/mem/los_memory.c:124
    LOS_MEM_DYN_NODE *pstNextNode = (LOS_MEM_DYN_NODE *)NULL;
20000cea:	2300      	movs	r3, #0
20000cec:	60fb      	str	r3, [r7, #12]
C:\Users\nitin.deshpande\Documents\GitHub\microsemi-huawei-liteos\microsemi-liteos\mscc-huawei-wsp\sc-gd450i-board-test\Debug/../kernel/base/mem/los_memory.c:126

    pstNode->pstPreNode->uwSizeAndFlag += pstNode->uwSizeAndFlag;
20000cee:	687b      	ldr	r3, [r7, #4]
20000cf0:	689b      	ldr	r3, [r3, #8]
20000cf2:	687a      	ldr	r2, [r7, #4]
20000cf4:	6892      	ldr	r2, [r2, #8]
20000cf6:	68d1      	ldr	r1, [r2, #12]
20000cf8:	687a      	ldr	r2, [r7, #4]
20000cfa:	68d2      	ldr	r2, [r2, #12]
20000cfc:	440a      	add	r2, r1
20000cfe:	60da      	str	r2, [r3, #12]
C:\Users\nitin.deshpande\Documents\GitHub\microsemi-huawei-liteos\microsemi-liteos\mscc-huawei-wsp\sc-gd450i-board-test\Debug/../kernel/base/mem/los_memory.c:127
    pstNextNode = (LOS_MEM_DYN_NODE *)((UINT32)pstNode + pstNode->uwSizeAndFlag);
20000d00:	687b      	ldr	r3, [r7, #4]
20000d02:	68da      	ldr	r2, [r3, #12]
20000d04:	687b      	ldr	r3, [r7, #4]
20000d06:	4413      	add	r3, r2
20000d08:	60fb      	str	r3, [r7, #12]
C:\Users\nitin.deshpande\Documents\GitHub\microsemi-huawei-liteos\microsemi-liteos\mscc-huawei-wsp\sc-gd450i-board-test\Debug/../kernel/base/mem/los_memory.c:128
    pstNextNode->pstPreNode = pstNode->pstPreNode;
20000d0a:	687b      	ldr	r3, [r7, #4]
20000d0c:	689a      	ldr	r2, [r3, #8]
20000d0e:	68fb      	ldr	r3, [r7, #12]
20000d10:	609a      	str	r2, [r3, #8]
C:\Users\nitin.deshpande\Documents\GitHub\microsemi-huawei-liteos\microsemi-liteos\mscc-huawei-wsp\sc-gd450i-board-test\Debug/../kernel/base/mem/los_memory.c:129
    osMemClearNode(pstNode);
20000d12:	6878      	ldr	r0, [r7, #4]
20000d14:	f7ff ffd2 	bl	20000cbc <osMemClearNode>
C:\Users\nitin.deshpande\Documents\GitHub\microsemi-huawei-liteos\microsemi-liteos\mscc-huawei-wsp\sc-gd450i-board-test\Debug/../kernel/base/mem/los_memory.c:130
}
20000d18:	bf00      	nop
20000d1a:	3710      	adds	r7, #16
20000d1c:	46bd      	mov	sp, r7
20000d1e:	bd80      	pop	{r7, pc}

20000d20 <osMemSpitNode>:
osMemSpitNode():
C:\Users\nitin.deshpande\Documents\GitHub\microsemi-huawei-liteos\microsemi-liteos\mscc-huawei-wsp\sc-gd450i-board-test\Debug/../kernel/base/mem/los_memory.c:144
 Output      : pstAllocNode -- save new node addr
 Return      : None
*****************************************************************************/
INLINE VOID osMemSpitNode(VOID *pPool,
                            LOS_MEM_DYN_NODE *pstAllocNode, UINT32 uwAllocSize)
{
20000d20:	b580      	push	{r7, lr}
20000d22:	b088      	sub	sp, #32
20000d24:	af00      	add	r7, sp, #0
20000d26:	60f8      	str	r0, [r7, #12]
20000d28:	60b9      	str	r1, [r7, #8]
20000d2a:	607a      	str	r2, [r7, #4]
C:\Users\nitin.deshpande\Documents\GitHub\microsemi-huawei-liteos\microsemi-liteos\mscc-huawei-wsp\sc-gd450i-board-test\Debug/../kernel/base/mem/los_memory.c:145
    LOS_MEM_DYN_NODE *pstNewFreeNode = (LOS_MEM_DYN_NODE *)NULL;
20000d2c:	2300      	movs	r3, #0
20000d2e:	61fb      	str	r3, [r7, #28]
C:\Users\nitin.deshpande\Documents\GitHub\microsemi-huawei-liteos\microsemi-liteos\mscc-huawei-wsp\sc-gd450i-board-test\Debug/../kernel/base/mem/los_memory.c:146
    LOS_MEM_DYN_NODE *pstNextNode = (LOS_MEM_DYN_NODE *)NULL;
20000d30:	2300      	movs	r3, #0
20000d32:	61bb      	str	r3, [r7, #24]
C:\Users\nitin.deshpande\Documents\GitHub\microsemi-huawei-liteos\microsemi-liteos\mscc-huawei-wsp\sc-gd450i-board-test\Debug/../kernel/base/mem/los_memory.c:147
    LOS_DL_LIST *pstListHead = (LOS_DL_LIST *)NULL;
20000d34:	2300      	movs	r3, #0
20000d36:	617b      	str	r3, [r7, #20]
C:\Users\nitin.deshpande\Documents\GitHub\microsemi-huawei-liteos\microsemi-liteos\mscc-huawei-wsp\sc-gd450i-board-test\Debug/../kernel/base/mem/los_memory.c:149

    pstNewFreeNode = (LOS_MEM_DYN_NODE *)((UINT8 *)pstAllocNode + uwAllocSize);
20000d38:	68ba      	ldr	r2, [r7, #8]
20000d3a:	687b      	ldr	r3, [r7, #4]
20000d3c:	4413      	add	r3, r2
20000d3e:	61fb      	str	r3, [r7, #28]
C:\Users\nitin.deshpande\Documents\GitHub\microsemi-huawei-liteos\microsemi-liteos\mscc-huawei-wsp\sc-gd450i-board-test\Debug/../kernel/base/mem/los_memory.c:150
    pstNewFreeNode->pstPreNode = pstAllocNode;
20000d40:	69fb      	ldr	r3, [r7, #28]
20000d42:	68ba      	ldr	r2, [r7, #8]
20000d44:	609a      	str	r2, [r3, #8]
C:\Users\nitin.deshpande\Documents\GitHub\microsemi-huawei-liteos\microsemi-liteos\mscc-huawei-wsp\sc-gd450i-board-test\Debug/../kernel/base/mem/los_memory.c:151
    pstNewFreeNode->uwSizeAndFlag = pstAllocNode->uwSizeAndFlag - uwAllocSize;
20000d46:	68bb      	ldr	r3, [r7, #8]
20000d48:	68da      	ldr	r2, [r3, #12]
20000d4a:	687b      	ldr	r3, [r7, #4]
20000d4c:	1ad2      	subs	r2, r2, r3
20000d4e:	69fb      	ldr	r3, [r7, #28]
20000d50:	60da      	str	r2, [r3, #12]
C:\Users\nitin.deshpande\Documents\GitHub\microsemi-huawei-liteos\microsemi-liteos\mscc-huawei-wsp\sc-gd450i-board-test\Debug/../kernel/base/mem/los_memory.c:152
    pstAllocNode->uwSizeAndFlag = uwAllocSize;
20000d52:	68bb      	ldr	r3, [r7, #8]
20000d54:	687a      	ldr	r2, [r7, #4]
20000d56:	60da      	str	r2, [r3, #12]
C:\Users\nitin.deshpande\Documents\GitHub\microsemi-huawei-liteos\microsemi-liteos\mscc-huawei-wsp\sc-gd450i-board-test\Debug/../kernel/base/mem/los_memory.c:153
    pstNextNode = OS_MEM_NEXT_NODE(pstNewFreeNode);
20000d58:	69fb      	ldr	r3, [r7, #28]
20000d5a:	68db      	ldr	r3, [r3, #12]
20000d5c:	f023 4300 	bic.w	r3, r3, #2147483648	; 0x80000000
20000d60:	69fa      	ldr	r2, [r7, #28]
20000d62:	4413      	add	r3, r2
20000d64:	61bb      	str	r3, [r7, #24]
C:\Users\nitin.deshpande\Documents\GitHub\microsemi-huawei-liteos\microsemi-liteos\mscc-huawei-wsp\sc-gd450i-board-test\Debug/../kernel/base/mem/los_memory.c:154
    pstNextNode->pstPreNode = pstNewFreeNode;
20000d66:	69bb      	ldr	r3, [r7, #24]
20000d68:	69fa      	ldr	r2, [r7, #28]
20000d6a:	609a      	str	r2, [r3, #8]
C:\Users\nitin.deshpande\Documents\GitHub\microsemi-huawei-liteos\microsemi-liteos\mscc-huawei-wsp\sc-gd450i-board-test\Debug/../kernel/base/mem/los_memory.c:155
    if (!OS_MEM_NODE_GET_USED_FLAG(pstNextNode->uwSizeAndFlag))
20000d6c:	69bb      	ldr	r3, [r7, #24]
20000d6e:	68db      	ldr	r3, [r3, #12]
20000d70:	2b00      	cmp	r3, #0
20000d72:	db06      	blt.n	20000d82 <osMemSpitNode+0x62>
C:\Users\nitin.deshpande\Documents\GitHub\microsemi-huawei-liteos\microsemi-liteos\mscc-huawei-wsp\sc-gd450i-board-test\Debug/../kernel/base/mem/los_memory.c:157
    {
        LOS_ListDelete(&(pstNextNode->stFreeNodeInfo));
20000d74:	69bb      	ldr	r3, [r7, #24]
20000d76:	4618      	mov	r0, r3
20000d78:	f7ff ff25 	bl	20000bc6 <LOS_ListDelete>
C:\Users\nitin.deshpande\Documents\GitHub\microsemi-huawei-liteos\microsemi-liteos\mscc-huawei-wsp\sc-gd450i-board-test\Debug/../kernel/base/mem/los_memory.c:158
        osMemMergeNode(pstNextNode);
20000d7c:	69b8      	ldr	r0, [r7, #24]
20000d7e:	f7ff ffb0 	bl	20000ce2 <osMemMergeNode>
C:\Users\nitin.deshpande\Documents\GitHub\microsemi-huawei-liteos\microsemi-liteos\mscc-huawei-wsp\sc-gd450i-board-test\Debug/../kernel/base/mem/los_memory.c:161
    }

    pstListHead = OS_MEM_HEAD(pPool, pstNewFreeNode->uwSizeAndFlag);
20000d82:	68fb      	ldr	r3, [r7, #12]
20000d84:	3308      	adds	r3, #8
20000d86:	461a      	mov	r2, r3
20000d88:	69fb      	ldr	r3, [r7, #28]
20000d8a:	68db      	ldr	r3, [r3, #12]
20000d8c:	4619      	mov	r1, r3
20000d8e:	4610      	mov	r0, r2
20000d90:	f000 fbff 	bl	20001592 <LOS_DLnkMultiHead>
20000d94:	6178      	str	r0, [r7, #20]
C:\Users\nitin.deshpande\Documents\GitHub\microsemi-huawei-liteos\microsemi-liteos\mscc-huawei-wsp\sc-gd450i-board-test\Debug/../kernel/base/mem/los_memory.c:162
    if (NULL == pstListHead)
20000d96:	697b      	ldr	r3, [r7, #20]
20000d98:	2b00      	cmp	r3, #0
20000d9a:	d005      	beq.n	20000da8 <osMemSpitNode+0x88>
C:\Users\nitin.deshpande\Documents\GitHub\microsemi-huawei-liteos\microsemi-liteos\mscc-huawei-wsp\sc-gd450i-board-test\Debug/../kernel/base/mem/los_memory.c:168
    {
        PRINT_ERR("%s %d\n", __FUNCTION__, __LINE__);
        return;
    }

    LOS_ListAdd(pstListHead,&(pstNewFreeNode->stFreeNodeInfo));
20000d9c:	69fb      	ldr	r3, [r7, #28]
20000d9e:	4619      	mov	r1, r3
20000da0:	6978      	ldr	r0, [r7, #20]
20000da2:	f7ff fee8 	bl	20000b76 <LOS_ListAdd>
20000da6:	e000      	b.n	20000daa <osMemSpitNode+0x8a>
C:\Users\nitin.deshpande\Documents\GitHub\microsemi-huawei-liteos\microsemi-liteos\mscc-huawei-wsp\sc-gd450i-board-test\Debug/../kernel/base/mem/los_memory.c:165
        return;
20000da8:	bf00      	nop
C:\Users\nitin.deshpande\Documents\GitHub\microsemi-huawei-liteos\microsemi-liteos\mscc-huawei-wsp\sc-gd450i-board-test\Debug/../kernel/base/mem/los_memory.c:169
}
20000daa:	3720      	adds	r7, #32
20000dac:	46bd      	mov	sp, r7
20000dae:	bd80      	pop	{r7, pc}

20000db0 <osMemFreeNode>:
osMemFreeNode():
C:\Users\nitin.deshpande\Documents\GitHub\microsemi-huawei-liteos\microsemi-liteos\mscc-huawei-wsp\sc-gd450i-board-test\Debug/../kernel/base/mem/los_memory.c:181
                  pPool --Pointer to memory pool
 Output      : None
 Return      : None
*****************************************************************************/
INLINE VOID osMemFreeNode(LOS_MEM_DYN_NODE *pstNode, VOID *pPool)
{
20000db0:	b580      	push	{r7, lr}
20000db2:	b086      	sub	sp, #24
20000db4:	af00      	add	r7, sp, #0
20000db6:	6078      	str	r0, [r7, #4]
20000db8:	6039      	str	r1, [r7, #0]
C:\Users\nitin.deshpande\Documents\GitHub\microsemi-huawei-liteos\microsemi-liteos\mscc-huawei-wsp\sc-gd450i-board-test\Debug/../kernel/base/mem/los_memory.c:182
    LOS_MEM_DYN_NODE *pstNextNode = (LOS_MEM_DYN_NODE *)NULL;
20000dba:	2300      	movs	r3, #0
20000dbc:	617b      	str	r3, [r7, #20]
C:\Users\nitin.deshpande\Documents\GitHub\microsemi-huawei-liteos\microsemi-liteos\mscc-huawei-wsp\sc-gd450i-board-test\Debug/../kernel/base/mem/los_memory.c:183
    LOS_DL_LIST *pstListHead = (LOS_DL_LIST *)NULL;
20000dbe:	2300      	movs	r3, #0
20000dc0:	613b      	str	r3, [r7, #16]
C:\Users\nitin.deshpande\Documents\GitHub\microsemi-huawei-liteos\microsemi-liteos\mscc-huawei-wsp\sc-gd450i-board-test\Debug/../kernel/base/mem/los_memory.c:185

    OS_MEM_REDUCE_USED(OS_MEM_NODE_GET_SIZE(pstNode->uwSizeAndFlag));
20000dc2:	687b      	ldr	r3, [r7, #4]
20000dc4:	68db      	ldr	r3, [r3, #12]
20000dc6:	f023 4300 	bic.w	r3, r3, #2147483648	; 0x80000000
20000dca:	4618      	mov	r0, r3
20000dcc:	f000 faa8 	bl	20001320 <osTaskMemUsedDec>
C:\Users\nitin.deshpande\Documents\GitHub\microsemi-huawei-liteos\microsemi-liteos\mscc-huawei-wsp\sc-gd450i-board-test\Debug/../kernel/base/mem/los_memory.c:186
    pstNode->uwSizeAndFlag = OS_MEM_NODE_GET_SIZE(pstNode->uwSizeAndFlag);
20000dd0:	687b      	ldr	r3, [r7, #4]
20000dd2:	68db      	ldr	r3, [r3, #12]
20000dd4:	f023 4200 	bic.w	r2, r3, #2147483648	; 0x80000000
20000dd8:	687b      	ldr	r3, [r7, #4]
20000dda:	60da      	str	r2, [r3, #12]
C:\Users\nitin.deshpande\Documents\GitHub\microsemi-huawei-liteos\microsemi-liteos\mscc-huawei-wsp\sc-gd450i-board-test\Debug/../kernel/base/mem/los_memory.c:187
    if ((pstNode->pstPreNode != NULL) &&
20000ddc:	687b      	ldr	r3, [r7, #4]
20000dde:	689b      	ldr	r3, [r3, #8]
20000de0:	2b00      	cmp	r3, #0
20000de2:	d033      	beq.n	20000e4c <osMemFreeNode+0x9c>
C:\Users\nitin.deshpande\Documents\GitHub\microsemi-huawei-liteos\microsemi-liteos\mscc-huawei-wsp\sc-gd450i-board-test\Debug/../kernel/base/mem/los_memory.c:188 (discriminator 1)
        (!OS_MEM_NODE_GET_USED_FLAG(pstNode->pstPreNode->uwSizeAndFlag)))
20000de4:	687b      	ldr	r3, [r7, #4]
20000de6:	689b      	ldr	r3, [r3, #8]
20000de8:	68db      	ldr	r3, [r3, #12]
C:\Users\nitin.deshpande\Documents\GitHub\microsemi-huawei-liteos\microsemi-liteos\mscc-huawei-wsp\sc-gd450i-board-test\Debug/../kernel/base/mem/los_memory.c:187 (discriminator 1)
    if ((pstNode->pstPreNode != NULL) &&
20000dea:	2b00      	cmp	r3, #0
20000dec:	db2e      	blt.n	20000e4c <osMemFreeNode+0x9c>
C:\Users\nitin.deshpande\Documents\GitHub\microsemi-huawei-liteos\microsemi-liteos\mscc-huawei-wsp\sc-gd450i-board-test\Debug/../kernel/base/mem/los_memory.c:190
    {
        LOS_MEM_DYN_NODE *pstPreNode = pstNode->pstPreNode;
20000dee:	687b      	ldr	r3, [r7, #4]
20000df0:	689b      	ldr	r3, [r3, #8]
20000df2:	60fb      	str	r3, [r7, #12]
C:\Users\nitin.deshpande\Documents\GitHub\microsemi-huawei-liteos\microsemi-liteos\mscc-huawei-wsp\sc-gd450i-board-test\Debug/../kernel/base/mem/los_memory.c:191
        osMemMergeNode(pstNode);
20000df4:	6878      	ldr	r0, [r7, #4]
20000df6:	f7ff ff74 	bl	20000ce2 <osMemMergeNode>
C:\Users\nitin.deshpande\Documents\GitHub\microsemi-huawei-liteos\microsemi-liteos\mscc-huawei-wsp\sc-gd450i-board-test\Debug/../kernel/base/mem/los_memory.c:192
        pstNextNode = OS_MEM_NEXT_NODE(pstPreNode);
20000dfa:	68fb      	ldr	r3, [r7, #12]
20000dfc:	68db      	ldr	r3, [r3, #12]
20000dfe:	f023 4300 	bic.w	r3, r3, #2147483648	; 0x80000000
20000e02:	68fa      	ldr	r2, [r7, #12]
20000e04:	4413      	add	r3, r2
20000e06:	617b      	str	r3, [r7, #20]
C:\Users\nitin.deshpande\Documents\GitHub\microsemi-huawei-liteos\microsemi-liteos\mscc-huawei-wsp\sc-gd450i-board-test\Debug/../kernel/base/mem/los_memory.c:193
        if (!OS_MEM_NODE_GET_USED_FLAG(pstNextNode->uwSizeAndFlag))
20000e08:	697b      	ldr	r3, [r7, #20]
20000e0a:	68db      	ldr	r3, [r3, #12]
20000e0c:	2b00      	cmp	r3, #0
20000e0e:	db06      	blt.n	20000e1e <osMemFreeNode+0x6e>
C:\Users\nitin.deshpande\Documents\GitHub\microsemi-huawei-liteos\microsemi-liteos\mscc-huawei-wsp\sc-gd450i-board-test\Debug/../kernel/base/mem/los_memory.c:195
        {
            LOS_ListDelete(&(pstNextNode->stFreeNodeInfo));
20000e10:	697b      	ldr	r3, [r7, #20]
20000e12:	4618      	mov	r0, r3
20000e14:	f7ff fed7 	bl	20000bc6 <LOS_ListDelete>
C:\Users\nitin.deshpande\Documents\GitHub\microsemi-huawei-liteos\microsemi-liteos\mscc-huawei-wsp\sc-gd450i-board-test\Debug/../kernel/base/mem/los_memory.c:196
            osMemMergeNode(pstNextNode);
20000e18:	6978      	ldr	r0, [r7, #20]
20000e1a:	f7ff ff62 	bl	20000ce2 <osMemMergeNode>
C:\Users\nitin.deshpande\Documents\GitHub\microsemi-huawei-liteos\microsemi-liteos\mscc-huawei-wsp\sc-gd450i-board-test\Debug/../kernel/base/mem/los_memory.c:199
        }

        LOS_ListDelete(&(pstPreNode->stFreeNodeInfo));
20000e1e:	68fb      	ldr	r3, [r7, #12]
20000e20:	4618      	mov	r0, r3
20000e22:	f7ff fed0 	bl	20000bc6 <LOS_ListDelete>
C:\Users\nitin.deshpande\Documents\GitHub\microsemi-huawei-liteos\microsemi-liteos\mscc-huawei-wsp\sc-gd450i-board-test\Debug/../kernel/base/mem/los_memory.c:200
        pstListHead = OS_MEM_HEAD(pPool, pstPreNode->uwSizeAndFlag);
20000e26:	683b      	ldr	r3, [r7, #0]
20000e28:	3308      	adds	r3, #8
20000e2a:	461a      	mov	r2, r3
20000e2c:	68fb      	ldr	r3, [r7, #12]
20000e2e:	68db      	ldr	r3, [r3, #12]
20000e30:	4619      	mov	r1, r3
20000e32:	4610      	mov	r0, r2
20000e34:	f000 fbad 	bl	20001592 <LOS_DLnkMultiHead>
20000e38:	6138      	str	r0, [r7, #16]
C:\Users\nitin.deshpande\Documents\GitHub\microsemi-huawei-liteos\microsemi-liteos\mscc-huawei-wsp\sc-gd450i-board-test\Debug/../kernel/base/mem/los_memory.c:201
        if (NULL == pstListHead)
20000e3a:	693b      	ldr	r3, [r7, #16]
20000e3c:	2b00      	cmp	r3, #0
20000e3e:	d02a      	beq.n	20000e96 <osMemFreeNode+0xe6>
C:\Users\nitin.deshpande\Documents\GitHub\microsemi-huawei-liteos\microsemi-liteos\mscc-huawei-wsp\sc-gd450i-board-test\Debug/../kernel/base/mem/los_memory.c:207
        {
            PRINT_ERR("%s %d\n", __FUNCTION__, __LINE__);
            return;
        }

        LOS_ListAdd(pstListHead,&(pstPreNode->stFreeNodeInfo));
20000e40:	68fb      	ldr	r3, [r7, #12]
20000e42:	4619      	mov	r1, r3
20000e44:	6938      	ldr	r0, [r7, #16]
20000e46:	f7ff fe96 	bl	20000b76 <LOS_ListAdd>
C:\Users\nitin.deshpande\Documents\GitHub\microsemi-huawei-liteos\microsemi-liteos\mscc-huawei-wsp\sc-gd450i-board-test\Debug/../kernel/base/mem/los_memory.c:189
    {
20000e4a:	e027      	b.n	20000e9c <osMemFreeNode+0xec>
C:\Users\nitin.deshpande\Documents\GitHub\microsemi-huawei-liteos\microsemi-liteos\mscc-huawei-wsp\sc-gd450i-board-test\Debug/../kernel/base/mem/los_memory.c:211
    }
    else
    {
        pstNextNode = OS_MEM_NEXT_NODE(pstNode);
20000e4c:	687b      	ldr	r3, [r7, #4]
20000e4e:	68db      	ldr	r3, [r3, #12]
20000e50:	f023 4300 	bic.w	r3, r3, #2147483648	; 0x80000000
20000e54:	687a      	ldr	r2, [r7, #4]
20000e56:	4413      	add	r3, r2
20000e58:	617b      	str	r3, [r7, #20]
C:\Users\nitin.deshpande\Documents\GitHub\microsemi-huawei-liteos\microsemi-liteos\mscc-huawei-wsp\sc-gd450i-board-test\Debug/../kernel/base/mem/los_memory.c:212
        if (!OS_MEM_NODE_GET_USED_FLAG(pstNextNode->uwSizeAndFlag))
20000e5a:	697b      	ldr	r3, [r7, #20]
20000e5c:	68db      	ldr	r3, [r3, #12]
20000e5e:	2b00      	cmp	r3, #0
20000e60:	db06      	blt.n	20000e70 <osMemFreeNode+0xc0>
C:\Users\nitin.deshpande\Documents\GitHub\microsemi-huawei-liteos\microsemi-liteos\mscc-huawei-wsp\sc-gd450i-board-test\Debug/../kernel/base/mem/los_memory.c:214
        {
            LOS_ListDelete(&(pstNextNode->stFreeNodeInfo));
20000e62:	697b      	ldr	r3, [r7, #20]
20000e64:	4618      	mov	r0, r3
20000e66:	f7ff feae 	bl	20000bc6 <LOS_ListDelete>
C:\Users\nitin.deshpande\Documents\GitHub\microsemi-huawei-liteos\microsemi-liteos\mscc-huawei-wsp\sc-gd450i-board-test\Debug/../kernel/base/mem/los_memory.c:215
            osMemMergeNode(pstNextNode);
20000e6a:	6978      	ldr	r0, [r7, #20]
20000e6c:	f7ff ff39 	bl	20000ce2 <osMemMergeNode>
C:\Users\nitin.deshpande\Documents\GitHub\microsemi-huawei-liteos\microsemi-liteos\mscc-huawei-wsp\sc-gd450i-board-test\Debug/../kernel/base/mem/los_memory.c:218
        }

        pstListHead = OS_MEM_HEAD(pPool, pstNode->uwSizeAndFlag);
20000e70:	683b      	ldr	r3, [r7, #0]
20000e72:	3308      	adds	r3, #8
20000e74:	461a      	mov	r2, r3
20000e76:	687b      	ldr	r3, [r7, #4]
20000e78:	68db      	ldr	r3, [r3, #12]
20000e7a:	4619      	mov	r1, r3
20000e7c:	4610      	mov	r0, r2
20000e7e:	f000 fb88 	bl	20001592 <LOS_DLnkMultiHead>
20000e82:	6138      	str	r0, [r7, #16]
C:\Users\nitin.deshpande\Documents\GitHub\microsemi-huawei-liteos\microsemi-liteos\mscc-huawei-wsp\sc-gd450i-board-test\Debug/../kernel/base/mem/los_memory.c:219
        if (NULL == pstListHead)
20000e84:	693b      	ldr	r3, [r7, #16]
20000e86:	2b00      	cmp	r3, #0
20000e88:	d007      	beq.n	20000e9a <osMemFreeNode+0xea>
C:\Users\nitin.deshpande\Documents\GitHub\microsemi-huawei-liteos\microsemi-liteos\mscc-huawei-wsp\sc-gd450i-board-test\Debug/../kernel/base/mem/los_memory.c:225
        {
            PRINT_ERR("%s %d\n", __FUNCTION__, __LINE__);
            return;
        }

        LOS_ListAdd(pstListHead,&(pstNode->stFreeNodeInfo));
20000e8a:	687b      	ldr	r3, [r7, #4]
20000e8c:	4619      	mov	r1, r3
20000e8e:	6938      	ldr	r0, [r7, #16]
20000e90:	f7ff fe71 	bl	20000b76 <LOS_ListAdd>
20000e94:	e002      	b.n	20000e9c <osMemFreeNode+0xec>
C:\Users\nitin.deshpande\Documents\GitHub\microsemi-huawei-liteos\microsemi-liteos\mscc-huawei-wsp\sc-gd450i-board-test\Debug/../kernel/base/mem/los_memory.c:204
            return;
20000e96:	bf00      	nop
20000e98:	e000      	b.n	20000e9c <osMemFreeNode+0xec>
C:\Users\nitin.deshpande\Documents\GitHub\microsemi-huawei-liteos\microsemi-liteos\mscc-huawei-wsp\sc-gd450i-board-test\Debug/../kernel/base/mem/los_memory.c:222
            return;
20000e9a:	bf00      	nop
C:\Users\nitin.deshpande\Documents\GitHub\microsemi-huawei-liteos\microsemi-liteos\mscc-huawei-wsp\sc-gd450i-board-test\Debug/../kernel/base/mem/los_memory.c:227
    }
}
20000e9c:	3718      	adds	r7, #24
20000e9e:	46bd      	mov	sp, r7
20000ea0:	bd80      	pop	{r7, pc}

20000ea2 <osMemIsNodeValid>:
osMemIsNodeValid():
C:\Users\nitin.deshpande\Documents\GitHub\microsemi-huawei-liteos\microsemi-liteos\mscc-huawei-wsp\sc-gd450i-board-test\Debug/../kernel/base/mem/los_memory.c:289
}

#else
INLINE UINTBOOL osMemIsNodeValid(const LOS_MEM_DYN_NODE *pstNode, const LOS_MEM_DYN_NODE *pstStartNode, const LOS_MEM_DYN_NODE *pstEndNode,
       const UINT8 *pucStartPool, const UINT8 *pucEndPool)
{
20000ea2:	b480      	push	{r7}
20000ea4:	b085      	sub	sp, #20
20000ea6:	af00      	add	r7, sp, #0
20000ea8:	60f8      	str	r0, [r7, #12]
20000eaa:	60b9      	str	r1, [r7, #8]
20000eac:	607a      	str	r2, [r7, #4]
20000eae:	603b      	str	r3, [r7, #0]
C:\Users\nitin.deshpande\Documents\GitHub\microsemi-huawei-liteos\microsemi-liteos\mscc-huawei-wsp\sc-gd450i-board-test\Debug/../kernel/base/mem/los_memory.c:290
    if (!OS_MEM_MIDDLE_ADDR(pstStartNode, pstNode, pstEndNode))
20000eb0:	68ba      	ldr	r2, [r7, #8]
20000eb2:	68fb      	ldr	r3, [r7, #12]
20000eb4:	429a      	cmp	r2, r3
20000eb6:	d803      	bhi.n	20000ec0 <osMemIsNodeValid+0x1e>
C:\Users\nitin.deshpande\Documents\GitHub\microsemi-huawei-liteos\microsemi-liteos\mscc-huawei-wsp\sc-gd450i-board-test\Debug/../kernel/base/mem/los_memory.c:290 (discriminator 1)
20000eb8:	68fa      	ldr	r2, [r7, #12]
20000eba:	687b      	ldr	r3, [r7, #4]
20000ebc:	429a      	cmp	r2, r3
20000ebe:	d901      	bls.n	20000ec4 <osMemIsNodeValid+0x22>
C:\Users\nitin.deshpande\Documents\GitHub\microsemi-huawei-liteos\microsemi-liteos\mscc-huawei-wsp\sc-gd450i-board-test\Debug/../kernel/base/mem/los_memory.c:292
    {
        return FALSE;
20000ec0:	2300      	movs	r3, #0
20000ec2:	e01c      	b.n	20000efe <osMemIsNodeValid+0x5c>
C:\Users\nitin.deshpande\Documents\GitHub\microsemi-huawei-liteos\microsemi-liteos\mscc-huawei-wsp\sc-gd450i-board-test\Debug/../kernel/base/mem/los_memory.c:295
    }

    if (OS_MEM_NODE_GET_USED_FLAG(pstNode->uwSizeAndFlag))
20000ec4:	68fb      	ldr	r3, [r7, #12]
20000ec6:	68db      	ldr	r3, [r3, #12]
20000ec8:	2b00      	cmp	r3, #0
20000eca:	da0b      	bge.n	20000ee4 <osMemIsNodeValid+0x42>
C:\Users\nitin.deshpande\Documents\GitHub\microsemi-huawei-liteos\microsemi-liteos\mscc-huawei-wsp\sc-gd450i-board-test\Debug/../kernel/base/mem/los_memory.c:297
    {
        if ((!OS_MEM_MAGIC_VALID(pstNode->stFreeNodeInfo.pstPrev))
20000ecc:	68fb      	ldr	r3, [r7, #12]
20000ece:	681b      	ldr	r3, [r3, #0]
20000ed0:	461a      	mov	r2, r3
20000ed2:	68fb      	ldr	r3, [r7, #12]
20000ed4:	4053      	eors	r3, r2
20000ed6:	f1b3 3fff 	cmp.w	r3, #4294967295
20000eda:	d001      	beq.n	20000ee0 <osMemIsNodeValid+0x3e>
C:\Users\nitin.deshpande\Documents\GitHub\microsemi-huawei-liteos\microsemi-liteos\mscc-huawei-wsp\sc-gd450i-board-test\Debug/../kernel/base/mem/los_memory.c:301
             // || (!OS_MEM_MAGIC_VALID(pstNode->stFreeNodeInfo.pstNext))
             )
        {
            return FALSE;
20000edc:	2300      	movs	r3, #0
20000ede:	e00e      	b.n	20000efe <osMemIsNodeValid+0x5c>
C:\Users\nitin.deshpande\Documents\GitHub\microsemi-huawei-liteos\microsemi-liteos\mscc-huawei-wsp\sc-gd450i-board-test\Debug/../kernel/base/mem/los_memory.c:303
        }
        return TRUE;
20000ee0:	2301      	movs	r3, #1
20000ee2:	e00c      	b.n	20000efe <osMemIsNodeValid+0x5c>
C:\Users\nitin.deshpande\Documents\GitHub\microsemi-huawei-liteos\microsemi-liteos\mscc-huawei-wsp\sc-gd450i-board-test\Debug/../kernel/base/mem/los_memory.c:306
    }

    if ((!OS_MEM_MIDDLE_ADDR_OPEN_END(pucStartPool, pstNode->stFreeNodeInfo.pstPrev, pucEndPool))
20000ee4:	68fb      	ldr	r3, [r7, #12]
20000ee6:	681a      	ldr	r2, [r3, #0]
20000ee8:	683b      	ldr	r3, [r7, #0]
20000eea:	429a      	cmp	r2, r3
20000eec:	d304      	bcc.n	20000ef8 <osMemIsNodeValid+0x56>
C:\Users\nitin.deshpande\Documents\GitHub\microsemi-huawei-liteos\microsemi-liteos\mscc-huawei-wsp\sc-gd450i-board-test\Debug/../kernel/base/mem/los_memory.c:306 (discriminator 1)
20000eee:	68fb      	ldr	r3, [r7, #12]
20000ef0:	681a      	ldr	r2, [r3, #0]
20000ef2:	69bb      	ldr	r3, [r7, #24]
20000ef4:	429a      	cmp	r2, r3
20000ef6:	d301      	bcc.n	20000efc <osMemIsNodeValid+0x5a>
C:\Users\nitin.deshpande\Documents\GitHub\microsemi-huawei-liteos\microsemi-liteos\mscc-huawei-wsp\sc-gd450i-board-test\Debug/../kernel/base/mem/los_memory.c:310
       // || (!OS_MEM_MIDDLE_ADDR_OPEN_END(pucStartPool, pstNode->stFreeNodeInfo.pstNext, pucEndPool))
       )
    {
        return FALSE;
20000ef8:	2300      	movs	r3, #0
20000efa:	e000      	b.n	20000efe <osMemIsNodeValid+0x5c>
C:\Users\nitin.deshpande\Documents\GitHub\microsemi-huawei-liteos\microsemi-liteos\mscc-huawei-wsp\sc-gd450i-board-test\Debug/../kernel/base/mem/los_memory.c:313
    }

    return TRUE;
20000efc:	2301      	movs	r3, #1
C:\Users\nitin.deshpande\Documents\GitHub\microsemi-huawei-liteos\microsemi-liteos\mscc-huawei-wsp\sc-gd450i-board-test\Debug/../kernel/base/mem/los_memory.c:314
}
20000efe:	4618      	mov	r0, r3
20000f00:	3714      	adds	r7, #20
20000f02:	46bd      	mov	sp, r7
20000f04:	f85d 7b04 	ldr.w	r7, [sp], #4
20000f08:	4770      	bx	lr

20000f0a <osMemCheckUsedNode>:
osMemCheckUsedNode():
C:\Users\nitin.deshpande\Documents\GitHub\microsemi-huawei-liteos\microsemi-liteos\mscc-huawei-wsp\sc-gd450i-board-test\Debug/../kernel/base/mem/los_memory.c:317

INLINE UINT32 osMemCheckUsedNode(VOID *pPool, LOS_MEM_DYN_NODE *pstNode)
{
20000f0a:	b580      	push	{r7, lr}
20000f0c:	b08a      	sub	sp, #40	; 0x28
20000f0e:	af02      	add	r7, sp, #8
20000f10:	6078      	str	r0, [r7, #4]
20000f12:	6039      	str	r1, [r7, #0]
C:\Users\nitin.deshpande\Documents\GitHub\microsemi-huawei-liteos\microsemi-liteos\mscc-huawei-wsp\sc-gd450i-board-test\Debug/../kernel/base/mem/los_memory.c:318
    LOS_MEM_POOL_INFO *pstPoolInfo = (LOS_MEM_POOL_INFO *)pPool;
20000f14:	687b      	ldr	r3, [r7, #4]
20000f16:	61fb      	str	r3, [r7, #28]
C:\Users\nitin.deshpande\Documents\GitHub\microsemi-huawei-liteos\microsemi-liteos\mscc-huawei-wsp\sc-gd450i-board-test\Debug/../kernel/base/mem/los_memory.c:319
    LOS_MEM_DYN_NODE *pstStartNode = OS_MEM_FIRST_NODE(pPool);
20000f18:	687b      	ldr	r3, [r7, #4]
20000f1a:	33e0      	adds	r3, #224	; 0xe0
20000f1c:	61bb      	str	r3, [r7, #24]
C:\Users\nitin.deshpande\Documents\GitHub\microsemi-huawei-liteos\microsemi-liteos\mscc-huawei-wsp\sc-gd450i-board-test\Debug/../kernel/base/mem/los_memory.c:320
    LOS_MEM_DYN_NODE *pstEndNode = OS_MEM_END_NODE(pPool, pstPoolInfo->uwPoolSize);
20000f1e:	69fb      	ldr	r3, [r7, #28]
20000f20:	685b      	ldr	r3, [r3, #4]
20000f22:	3b10      	subs	r3, #16
20000f24:	687a      	ldr	r2, [r7, #4]
20000f26:	4413      	add	r3, r2
20000f28:	617b      	str	r3, [r7, #20]
C:\Users\nitin.deshpande\Documents\GitHub\microsemi-huawei-liteos\microsemi-liteos\mscc-huawei-wsp\sc-gd450i-board-test\Debug/../kernel/base/mem/los_memory.c:321
    UINT8 *pucEndPool = (UINT8 *)pPool + pstPoolInfo->uwPoolSize;
20000f2a:	69fb      	ldr	r3, [r7, #28]
20000f2c:	685b      	ldr	r3, [r3, #4]
20000f2e:	687a      	ldr	r2, [r7, #4]
20000f30:	4413      	add	r3, r2
20000f32:	613b      	str	r3, [r7, #16]
C:\Users\nitin.deshpande\Documents\GitHub\microsemi-huawei-liteos\microsemi-liteos\mscc-huawei-wsp\sc-gd450i-board-test\Debug/../kernel/base/mem/los_memory.c:322
    const LOS_MEM_DYN_NODE *pstNextNode = (const LOS_MEM_DYN_NODE *)NULL;
20000f34:	2300      	movs	r3, #0
20000f36:	60fb      	str	r3, [r7, #12]
C:\Users\nitin.deshpande\Documents\GitHub\microsemi-huawei-liteos\microsemi-liteos\mscc-huawei-wsp\sc-gd450i-board-test\Debug/../kernel/base/mem/los_memory.c:323
    if (!osMemIsNodeValid(pstNode, pstStartNode, pstEndNode, (UINT8 *)pPool, pucEndPool))
20000f38:	693b      	ldr	r3, [r7, #16]
20000f3a:	9300      	str	r3, [sp, #0]
20000f3c:	687b      	ldr	r3, [r7, #4]
20000f3e:	697a      	ldr	r2, [r7, #20]
20000f40:	69b9      	ldr	r1, [r7, #24]
20000f42:	6838      	ldr	r0, [r7, #0]
20000f44:	f7ff ffad 	bl	20000ea2 <osMemIsNodeValid>
20000f48:	4603      	mov	r3, r0
20000f4a:	2b00      	cmp	r3, #0
20000f4c:	d101      	bne.n	20000f52 <osMemCheckUsedNode+0x48>
C:\Users\nitin.deshpande\Documents\GitHub\microsemi-huawei-liteos\microsemi-liteos\mscc-huawei-wsp\sc-gd450i-board-test\Debug/../kernel/base/mem/los_memory.c:325
    {
        return LOS_NOK;
20000f4e:	2301      	movs	r3, #1
20000f50:	e040      	b.n	20000fd4 <osMemCheckUsedNode+0xca>
C:\Users\nitin.deshpande\Documents\GitHub\microsemi-huawei-liteos\microsemi-liteos\mscc-huawei-wsp\sc-gd450i-board-test\Debug/../kernel/base/mem/los_memory.c:328
    }

    if (!OS_MEM_NODE_GET_USED_FLAG(pstNode->uwSizeAndFlag))
20000f52:	683b      	ldr	r3, [r7, #0]
20000f54:	68db      	ldr	r3, [r3, #12]
20000f56:	2b00      	cmp	r3, #0
20000f58:	db01      	blt.n	20000f5e <osMemCheckUsedNode+0x54>
C:\Users\nitin.deshpande\Documents\GitHub\microsemi-huawei-liteos\microsemi-liteos\mscc-huawei-wsp\sc-gd450i-board-test\Debug/../kernel/base/mem/los_memory.c:331

    {
        return LOS_NOK;
20000f5a:	2301      	movs	r3, #1
20000f5c:	e03a      	b.n	20000fd4 <osMemCheckUsedNode+0xca>
C:\Users\nitin.deshpande\Documents\GitHub\microsemi-huawei-liteos\microsemi-liteos\mscc-huawei-wsp\sc-gd450i-board-test\Debug/../kernel/base/mem/los_memory.c:334
    }

    pstNextNode = OS_MEM_NEXT_NODE(pstNode);
20000f5e:	683b      	ldr	r3, [r7, #0]
20000f60:	68db      	ldr	r3, [r3, #12]
20000f62:	f023 4300 	bic.w	r3, r3, #2147483648	; 0x80000000
20000f66:	683a      	ldr	r2, [r7, #0]
20000f68:	4413      	add	r3, r2
20000f6a:	60fb      	str	r3, [r7, #12]
C:\Users\nitin.deshpande\Documents\GitHub\microsemi-huawei-liteos\microsemi-liteos\mscc-huawei-wsp\sc-gd450i-board-test\Debug/../kernel/base/mem/los_memory.c:335
    if (!osMemIsNodeValid(pstNextNode, pstStartNode, pstEndNode, (UINT8 *)pPool, pucEndPool))
20000f6c:	693b      	ldr	r3, [r7, #16]
20000f6e:	9300      	str	r3, [sp, #0]
20000f70:	687b      	ldr	r3, [r7, #4]
20000f72:	697a      	ldr	r2, [r7, #20]
20000f74:	69b9      	ldr	r1, [r7, #24]
20000f76:	68f8      	ldr	r0, [r7, #12]
20000f78:	f7ff ff93 	bl	20000ea2 <osMemIsNodeValid>
20000f7c:	4603      	mov	r3, r0
20000f7e:	2b00      	cmp	r3, #0
20000f80:	d101      	bne.n	20000f86 <osMemCheckUsedNode+0x7c>
C:\Users\nitin.deshpande\Documents\GitHub\microsemi-huawei-liteos\microsemi-liteos\mscc-huawei-wsp\sc-gd450i-board-test\Debug/../kernel/base/mem/los_memory.c:337
    {
        return LOS_NOK;
20000f82:	2301      	movs	r3, #1
20000f84:	e026      	b.n	20000fd4 <osMemCheckUsedNode+0xca>
C:\Users\nitin.deshpande\Documents\GitHub\microsemi-huawei-liteos\microsemi-liteos\mscc-huawei-wsp\sc-gd450i-board-test\Debug/../kernel/base/mem/los_memory.c:340
    }

    if (pstNextNode->pstPreNode != pstNode)
20000f86:	68fb      	ldr	r3, [r7, #12]
20000f88:	689a      	ldr	r2, [r3, #8]
20000f8a:	683b      	ldr	r3, [r7, #0]
20000f8c:	429a      	cmp	r2, r3
20000f8e:	d001      	beq.n	20000f94 <osMemCheckUsedNode+0x8a>
C:\Users\nitin.deshpande\Documents\GitHub\microsemi-huawei-liteos\microsemi-liteos\mscc-huawei-wsp\sc-gd450i-board-test\Debug/../kernel/base/mem/los_memory.c:342
    {
        return LOS_NOK;
20000f90:	2301      	movs	r3, #1
20000f92:	e01f      	b.n	20000fd4 <osMemCheckUsedNode+0xca>
C:\Users\nitin.deshpande\Documents\GitHub\microsemi-huawei-liteos\microsemi-liteos\mscc-huawei-wsp\sc-gd450i-board-test\Debug/../kernel/base/mem/los_memory.c:345
    }

    if (pstNode != pstStartNode)
20000f94:	683a      	ldr	r2, [r7, #0]
20000f96:	69bb      	ldr	r3, [r7, #24]
20000f98:	429a      	cmp	r2, r3
20000f9a:	d01a      	beq.n	20000fd2 <osMemCheckUsedNode+0xc8>
C:\Users\nitin.deshpande\Documents\GitHub\microsemi-huawei-liteos\microsemi-liteos\mscc-huawei-wsp\sc-gd450i-board-test\Debug/../kernel/base/mem/los_memory.c:347
    {
        if (!osMemIsNodeValid(pstNode->pstPreNode, pstStartNode, pstEndNode, (UINT8 *)pPool, pucEndPool))
20000f9c:	683b      	ldr	r3, [r7, #0]
20000f9e:	6898      	ldr	r0, [r3, #8]
20000fa0:	693b      	ldr	r3, [r7, #16]
20000fa2:	9300      	str	r3, [sp, #0]
20000fa4:	687b      	ldr	r3, [r7, #4]
20000fa6:	697a      	ldr	r2, [r7, #20]
20000fa8:	69b9      	ldr	r1, [r7, #24]
20000faa:	f7ff ff7a 	bl	20000ea2 <osMemIsNodeValid>
20000fae:	4603      	mov	r3, r0
20000fb0:	2b00      	cmp	r3, #0
20000fb2:	d101      	bne.n	20000fb8 <osMemCheckUsedNode+0xae>
C:\Users\nitin.deshpande\Documents\GitHub\microsemi-huawei-liteos\microsemi-liteos\mscc-huawei-wsp\sc-gd450i-board-test\Debug/../kernel/base/mem/los_memory.c:349
        {
            return LOS_NOK;
20000fb4:	2301      	movs	r3, #1
20000fb6:	e00d      	b.n	20000fd4 <osMemCheckUsedNode+0xca>
C:\Users\nitin.deshpande\Documents\GitHub\microsemi-huawei-liteos\microsemi-liteos\mscc-huawei-wsp\sc-gd450i-board-test\Debug/../kernel/base/mem/los_memory.c:352
        }

        if (OS_MEM_NEXT_NODE(pstNode->pstPreNode) != pstNode)
20000fb8:	683b      	ldr	r3, [r7, #0]
20000fba:	689a      	ldr	r2, [r3, #8]
20000fbc:	683b      	ldr	r3, [r7, #0]
20000fbe:	689b      	ldr	r3, [r3, #8]
20000fc0:	68db      	ldr	r3, [r3, #12]
20000fc2:	f023 4300 	bic.w	r3, r3, #2147483648	; 0x80000000
20000fc6:	441a      	add	r2, r3
20000fc8:	683b      	ldr	r3, [r7, #0]
20000fca:	429a      	cmp	r2, r3
20000fcc:	d001      	beq.n	20000fd2 <osMemCheckUsedNode+0xc8>
C:\Users\nitin.deshpande\Documents\GitHub\microsemi-huawei-liteos\microsemi-liteos\mscc-huawei-wsp\sc-gd450i-board-test\Debug/../kernel/base/mem/los_memory.c:354
        {
            return LOS_NOK;
20000fce:	2301      	movs	r3, #1
20000fd0:	e000      	b.n	20000fd4 <osMemCheckUsedNode+0xca>
C:\Users\nitin.deshpande\Documents\GitHub\microsemi-huawei-liteos\microsemi-liteos\mscc-huawei-wsp\sc-gd450i-board-test\Debug/../kernel/base/mem/los_memory.c:358
        }
    }

    return LOS_OK;
20000fd2:	2300      	movs	r3, #0
C:\Users\nitin.deshpande\Documents\GitHub\microsemi-huawei-liteos\microsemi-liteos\mscc-huawei-wsp\sc-gd450i-board-test\Debug/../kernel/base/mem/los_memory.c:359
}
20000fd4:	4618      	mov	r0, r3
20000fd6:	3720      	adds	r7, #32
20000fd8:	46bd      	mov	sp, r7
20000fda:	bd80      	pop	{r7, pc}

20000fdc <osMemSetMagicNumAndTaskid>:
osMemSetMagicNumAndTaskid():
C:\Users\nitin.deshpande\Documents\GitHub\microsemi-huawei-liteos\microsemi-liteos\mscc-huawei-wsp\sc-gd450i-board-test\Debug/../kernel/base/mem/los_memory.c:371
 Input       : pstNode -- the node which will be set magic &  taskid
 Output      : None
 Return      : None
*****************************************************************************/
INLINE VOID osMemSetMagicNumAndTaskid(LOS_MEM_DYN_NODE *pstNode)
{
20000fdc:	b480      	push	{r7}
20000fde:	b083      	sub	sp, #12
20000fe0:	af00      	add	r7, sp, #0
20000fe2:	6078      	str	r0, [r7, #4]
C:\Users\nitin.deshpande\Documents\GitHub\microsemi-huawei-liteos\microsemi-liteos\mscc-huawei-wsp\sc-gd450i-board-test\Debug/../kernel/base/mem/los_memory.c:372
    OS_MEM_SET_MAGIC(pstNode->stFreeNodeInfo.pstPrev);
20000fe4:	687b      	ldr	r3, [r7, #4]
20000fe6:	43db      	mvns	r3, r3
20000fe8:	461a      	mov	r2, r3
20000fea:	687b      	ldr	r3, [r7, #4]
20000fec:	601a      	str	r2, [r3, #0]
C:\Users\nitin.deshpande\Documents\GitHub\microsemi-huawei-liteos\microsemi-liteos\mscc-huawei-wsp\sc-gd450i-board-test\Debug/../kernel/base/mem/los_memory.c:376

    /* In the process of dynamic memory initialization,direct use of uninitialized global variablewhich initialized in task initialization.
        Need to exclude this scene, make the value of pstNode->stFreeNodeInfo.pstNext to 0xffffffff */
    if (g_stLosTask.pstRunTask != NULL)
20000fee:	4b0a      	ldr	r3, [pc, #40]	; (20001018 <osMemSetMagicNumAndTaskid+0x3c>)
20000ff0:	681b      	ldr	r3, [r3, #0]
20000ff2:	2b00      	cmp	r3, #0
20000ff4:	d006      	beq.n	20001004 <osMemSetMagicNumAndTaskid+0x28>
C:\Users\nitin.deshpande\Documents\GitHub\microsemi-huawei-liteos\microsemi-liteos\mscc-huawei-wsp\sc-gd450i-board-test\Debug/../kernel/base/mem/los_memory.c:378
    {
        pstNode->stFreeNodeInfo.pstNext = (LOS_DL_LIST *)(g_stLosTask.pstRunTask->uwTaskID);
20000ff6:	4b08      	ldr	r3, [pc, #32]	; (20001018 <osMemSetMagicNumAndTaskid+0x3c>)
20000ff8:	681b      	ldr	r3, [r3, #0]
20000ffa:	691b      	ldr	r3, [r3, #16]
20000ffc:	461a      	mov	r2, r3
20000ffe:	687b      	ldr	r3, [r7, #4]
20001000:	605a      	str	r2, [r3, #4]
C:\Users\nitin.deshpande\Documents\GitHub\microsemi-huawei-liteos\microsemi-liteos\mscc-huawei-wsp\sc-gd450i-board-test\Debug/../kernel/base/mem/los_memory.c:386
    {
        /* If the task mode does not initialize, the field is the 0xffffffff */
        pstNode->stFreeNodeInfo.pstNext = (LOS_DL_LIST *)0xffffffff;
        /* TODO: the commend task-MEMUSE is not include system initialization malloc */
    }
}
20001002:	e003      	b.n	2000100c <osMemSetMagicNumAndTaskid+0x30>
C:\Users\nitin.deshpande\Documents\GitHub\microsemi-huawei-liteos\microsemi-liteos\mscc-huawei-wsp\sc-gd450i-board-test\Debug/../kernel/base/mem/los_memory.c:383
        pstNode->stFreeNodeInfo.pstNext = (LOS_DL_LIST *)0xffffffff;
20001004:	687b      	ldr	r3, [r7, #4]
20001006:	f04f 32ff 	mov.w	r2, #4294967295
2000100a:	605a      	str	r2, [r3, #4]
C:\Users\nitin.deshpande\Documents\GitHub\microsemi-huawei-liteos\microsemi-liteos\mscc-huawei-wsp\sc-gd450i-board-test\Debug/../kernel/base/mem/los_memory.c:386
}
2000100c:	bf00      	nop
2000100e:	370c      	adds	r7, #12
20001010:	46bd      	mov	sp, r7
20001012:	f85d 7b04 	ldr.w	r7, [sp], #4
20001016:	4770      	bx	lr
20001018:	2000496c 	.word	0x2000496c

2000101c <osMemAllocWithCheck>:
osMemAllocWithCheck():
C:\Users\nitin.deshpande\Documents\GitHub\microsemi-huawei-liteos\microsemi-liteos\mscc-huawei-wsp\sc-gd450i-board-test\Debug/../kernel/base/mem/los_memory.c:397
                 uwSize  --- Size of memory in bytes to allocate
 Output      : None
 Return      : Pointer to allocated memory
*****************************************************************************/
INLINE VOID *osMemAllocWithCheck(VOID *pPool, UINT32  uwSize)
{
2000101c:	b580      	push	{r7, lr}
2000101e:	b084      	sub	sp, #16
20001020:	af00      	add	r7, sp, #0
20001022:	6078      	str	r0, [r7, #4]
20001024:	6039      	str	r1, [r7, #0]
C:\Users\nitin.deshpande\Documents\GitHub\microsemi-huawei-liteos\microsemi-liteos\mscc-huawei-wsp\sc-gd450i-board-test\Debug/../kernel/base/mem/los_memory.c:398
    LOS_MEM_DYN_NODE *pstAllocNode = (LOS_MEM_DYN_NODE *)NULL;
20001026:	2300      	movs	r3, #0
20001028:	60fb      	str	r3, [r7, #12]
C:\Users\nitin.deshpande\Documents\GitHub\microsemi-huawei-liteos\microsemi-liteos\mscc-huawei-wsp\sc-gd450i-board-test\Debug/../kernel/base/mem/los_memory.c:401
    UINT32 uwAllocSize;

    uwAllocSize = OS_MEM_ALIGN(uwSize + OS_MEM_NODE_HEAD_SIZE, OS_MEM_ALIGN_SIZE);
2000102a:	683b      	ldr	r3, [r7, #0]
2000102c:	3313      	adds	r3, #19
2000102e:	f023 0303 	bic.w	r3, r3, #3
20001032:	60bb      	str	r3, [r7, #8]
C:\Users\nitin.deshpande\Documents\GitHub\microsemi-huawei-liteos\microsemi-liteos\mscc-huawei-wsp\sc-gd450i-board-test\Debug/../kernel/base/mem/los_memory.c:402
    pstAllocNode = osMemFindSuitableFreeBlock(pPool, uwAllocSize);
20001034:	68b9      	ldr	r1, [r7, #8]
20001036:	6878      	ldr	r0, [r7, #4]
20001038:	f7ff fe0e 	bl	20000c58 <osMemFindSuitableFreeBlock>
2000103c:	60f8      	str	r0, [r7, #12]
C:\Users\nitin.deshpande\Documents\GitHub\microsemi-huawei-liteos\microsemi-liteos\mscc-huawei-wsp\sc-gd450i-board-test\Debug/../kernel/base/mem/los_memory.c:403
    if (pstAllocNode == NULL)
2000103e:	68fb      	ldr	r3, [r7, #12]
20001040:	2b00      	cmp	r3, #0
20001042:	d101      	bne.n	20001048 <osMemAllocWithCheck+0x2c>
C:\Users\nitin.deshpande\Documents\GitHub\microsemi-huawei-liteos\microsemi-liteos\mscc-huawei-wsp\sc-gd450i-board-test\Debug/../kernel/base/mem/los_memory.c:406
    {
        PRINT_ERR("[%s] No suitable free block, require free node size: 0x%x\n", __FUNCTION__, uwAllocSize);
        return NULL;
20001044:	2300      	movs	r3, #0
20001046:	e021      	b.n	2000108c <osMemAllocWithCheck+0x70>
C:\Users\nitin.deshpande\Documents\GitHub\microsemi-huawei-liteos\microsemi-liteos\mscc-huawei-wsp\sc-gd450i-board-test\Debug/../kernel/base/mem/los_memory.c:408
    }
    if ((uwAllocSize + OS_MEM_NODE_HEAD_SIZE + OS_MEM_ALIGN_SIZE) <= pstAllocNode->uwSizeAndFlag)
20001048:	68bb      	ldr	r3, [r7, #8]
2000104a:	f103 0214 	add.w	r2, r3, #20
2000104e:	68fb      	ldr	r3, [r7, #12]
20001050:	68db      	ldr	r3, [r3, #12]
20001052:	429a      	cmp	r2, r3
20001054:	d804      	bhi.n	20001060 <osMemAllocWithCheck+0x44>
C:\Users\nitin.deshpande\Documents\GitHub\microsemi-huawei-liteos\microsemi-liteos\mscc-huawei-wsp\sc-gd450i-board-test\Debug/../kernel/base/mem/los_memory.c:410
    {
        osMemSpitNode(pPool, pstAllocNode, uwAllocSize);
20001056:	68ba      	ldr	r2, [r7, #8]
20001058:	68f9      	ldr	r1, [r7, #12]
2000105a:	6878      	ldr	r0, [r7, #4]
2000105c:	f7ff fe60 	bl	20000d20 <osMemSpitNode>
C:\Users\nitin.deshpande\Documents\GitHub\microsemi-huawei-liteos\microsemi-liteos\mscc-huawei-wsp\sc-gd450i-board-test\Debug/../kernel/base/mem/los_memory.c:412
    }
    LOS_ListDelete(&(pstAllocNode->stFreeNodeInfo));
20001060:	68fb      	ldr	r3, [r7, #12]
20001062:	4618      	mov	r0, r3
20001064:	f7ff fdaf 	bl	20000bc6 <LOS_ListDelete>
C:\Users\nitin.deshpande\Documents\GitHub\microsemi-huawei-liteos\microsemi-liteos\mscc-huawei-wsp\sc-gd450i-board-test\Debug/../kernel/base/mem/los_memory.c:413
    osMemSetMagicNumAndTaskid(pstAllocNode);
20001068:	68f8      	ldr	r0, [r7, #12]
2000106a:	f7ff ffb7 	bl	20000fdc <osMemSetMagicNumAndTaskid>
C:\Users\nitin.deshpande\Documents\GitHub\microsemi-huawei-liteos\microsemi-liteos\mscc-huawei-wsp\sc-gd450i-board-test\Debug/../kernel/base/mem/los_memory.c:414
    OS_MEM_NODE_SET_USED_FLAG(pstAllocNode->uwSizeAndFlag);
2000106e:	68fb      	ldr	r3, [r7, #12]
20001070:	68db      	ldr	r3, [r3, #12]
20001072:	f043 4200 	orr.w	r2, r3, #2147483648	; 0x80000000
20001076:	68fb      	ldr	r3, [r7, #12]
20001078:	60da      	str	r2, [r3, #12]
C:\Users\nitin.deshpande\Documents\GitHub\microsemi-huawei-liteos\microsemi-liteos\mscc-huawei-wsp\sc-gd450i-board-test\Debug/../kernel/base/mem/los_memory.c:415
    OS_MEM_ADD_USED(OS_MEM_NODE_GET_SIZE(pstAllocNode->uwSizeAndFlag));
2000107a:	68fb      	ldr	r3, [r7, #12]
2000107c:	68db      	ldr	r3, [r3, #12]
2000107e:	f023 4300 	bic.w	r3, r3, #2147483648	; 0x80000000
20001082:	4618      	mov	r0, r3
20001084:	f000 f91e 	bl	200012c4 <osTaskMemUsedInc>
C:\Users\nitin.deshpande\Documents\GitHub\microsemi-huawei-liteos\microsemi-liteos\mscc-huawei-wsp\sc-gd450i-board-test\Debug/../kernel/base/mem/los_memory.c:416
    return (pstAllocNode + 1);
20001088:	68fb      	ldr	r3, [r7, #12]
2000108a:	3310      	adds	r3, #16
C:\Users\nitin.deshpande\Documents\GitHub\microsemi-huawei-liteos\microsemi-liteos\mscc-huawei-wsp\sc-gd450i-board-test\Debug/../kernel/base/mem/los_memory.c:418

}
2000108c:	4618      	mov	r0, r3
2000108e:	3710      	adds	r7, #16
20001090:	46bd      	mov	sp, r7
20001092:	bd80      	pop	{r7, pc}

20001094 <LOS_MemInit>:
LOS_MemInit():
C:\Users\nitin.deshpande\Documents\GitHub\microsemi-huawei-liteos\microsemi-liteos\mscc-huawei-wsp\sc-gd450i-board-test\Debug/../kernel/base/mem/los_memory.c:475
                 uwSize  --- Size of memory in bytes to allocate
 Output      : None
 Return      : LOS_OK - Ok, OS_ERROR - Error
*****************************************************************************/
LITE_OS_SEC_TEXT_INIT UINT32 LOS_MemInit(VOID *pPool, UINT32  uwSize)
{
20001094:	b580      	push	{r7, lr}
20001096:	b088      	sub	sp, #32
20001098:	af00      	add	r7, sp, #0
2000109a:	6078      	str	r0, [r7, #4]
2000109c:	6039      	str	r1, [r7, #0]
C:\Users\nitin.deshpande\Documents\GitHub\microsemi-huawei-liteos\microsemi-liteos\mscc-huawei-wsp\sc-gd450i-board-test\Debug/../kernel/base/mem/los_memory.c:476
    LOS_MEM_DYN_NODE *pstNewNode = (LOS_MEM_DYN_NODE *)NULL;
2000109e:	2300      	movs	r3, #0
200010a0:	61fb      	str	r3, [r7, #28]
C:\Users\nitin.deshpande\Documents\GitHub\microsemi-huawei-liteos\microsemi-liteos\mscc-huawei-wsp\sc-gd450i-board-test\Debug/../kernel/base/mem/los_memory.c:477
    LOS_MEM_DYN_NODE *pstEndNode = (LOS_MEM_DYN_NODE *)NULL;
200010a2:	2300      	movs	r3, #0
200010a4:	61bb      	str	r3, [r7, #24]
C:\Users\nitin.deshpande\Documents\GitHub\microsemi-huawei-liteos\microsemi-liteos\mscc-huawei-wsp\sc-gd450i-board-test\Debug/../kernel/base/mem/los_memory.c:478
    LOS_MEM_POOL_INFO *pstPoolInfo = (LOS_MEM_POOL_INFO *)NULL;
200010a6:	2300      	movs	r3, #0
200010a8:	617b      	str	r3, [r7, #20]
C:\Users\nitin.deshpande\Documents\GitHub\microsemi-huawei-liteos\microsemi-liteos\mscc-huawei-wsp\sc-gd450i-board-test\Debug/../kernel/base/mem/los_memory.c:480
    UINTPTR uvIntSave;
    LOS_DL_LIST *pstListHead = (LOS_DL_LIST *)NULL;
200010aa:	2300      	movs	r3, #0
200010ac:	613b      	str	r3, [r7, #16]
C:\Users\nitin.deshpande\Documents\GitHub\microsemi-huawei-liteos\microsemi-liteos\mscc-huawei-wsp\sc-gd450i-board-test\Debug/../kernel/base/mem/los_memory.c:482

    if ((pPool == NULL) || (uwSize < (OS_MEM_MIN_POOL_SIZE)))
200010ae:	687b      	ldr	r3, [r7, #4]
200010b0:	2b00      	cmp	r3, #0
200010b2:	d002      	beq.n	200010ba <LOS_MemInit+0x26>
C:\Users\nitin.deshpande\Documents\GitHub\microsemi-huawei-liteos\microsemi-liteos\mscc-huawei-wsp\sc-gd450i-board-test\Debug/../kernel/base/mem/los_memory.c:482 (discriminator 1)
200010b4:	683b      	ldr	r3, [r7, #0]
200010b6:	2bff      	cmp	r3, #255	; 0xff
200010b8:	d802      	bhi.n	200010c0 <LOS_MemInit+0x2c>
C:\Users\nitin.deshpande\Documents\GitHub\microsemi-huawei-liteos\microsemi-liteos\mscc-huawei-wsp\sc-gd450i-board-test\Debug/../kernel/base/mem/los_memory.c:484
    {
        return OS_ERROR;
200010ba:	f04f 33ff 	mov.w	r3, #4294967295
200010be:	e053      	b.n	20001168 <LOS_MemInit+0xd4>
C:\Users\nitin.deshpande\Documents\GitHub\microsemi-huawei-liteos\microsemi-liteos\mscc-huawei-wsp\sc-gd450i-board-test\Debug/../kernel/base/mem/los_memory.c:487
    }

    uvIntSave = LOS_IntLock();
200010c0:	f7ff f99d 	bl	200003fe <LOS_IntLock>
200010c4:	60f8      	str	r0, [r7, #12]
C:\Users\nitin.deshpande\Documents\GitHub\microsemi-huawei-liteos\microsemi-liteos\mscc-huawei-wsp\sc-gd450i-board-test\Debug/../kernel/base/mem/los_memory.c:489

    pstPoolInfo = (LOS_MEM_POOL_INFO *)pPool;
200010c6:	687b      	ldr	r3, [r7, #4]
200010c8:	617b      	str	r3, [r7, #20]
C:\Users\nitin.deshpande\Documents\GitHub\microsemi-huawei-liteos\microsemi-liteos\mscc-huawei-wsp\sc-gd450i-board-test\Debug/../kernel/base/mem/los_memory.c:490
    pstPoolInfo->pPoolAddr = pPool;
200010ca:	697b      	ldr	r3, [r7, #20]
200010cc:	687a      	ldr	r2, [r7, #4]
200010ce:	601a      	str	r2, [r3, #0]
C:\Users\nitin.deshpande\Documents\GitHub\microsemi-huawei-liteos\microsemi-liteos\mscc-huawei-wsp\sc-gd450i-board-test\Debug/../kernel/base/mem/los_memory.c:491
    pstPoolInfo->uwPoolSize = uwSize;
200010d0:	697b      	ldr	r3, [r7, #20]
200010d2:	683a      	ldr	r2, [r7, #0]
200010d4:	605a      	str	r2, [r3, #4]
C:\Users\nitin.deshpande\Documents\GitHub\microsemi-huawei-liteos\microsemi-liteos\mscc-huawei-wsp\sc-gd450i-board-test\Debug/../kernel/base/mem/los_memory.c:492
    LOS_DLnkInitMultiHead(OS_MEM_HEAD_ADDR(pPool));
200010d6:	687b      	ldr	r3, [r7, #4]
200010d8:	3308      	adds	r3, #8
200010da:	4618      	mov	r0, r3
200010dc:	f000 fa3e 	bl	2000155c <LOS_DLnkInitMultiHead>
C:\Users\nitin.deshpande\Documents\GitHub\microsemi-huawei-liteos\microsemi-liteos\mscc-huawei-wsp\sc-gd450i-board-test\Debug/../kernel/base/mem/los_memory.c:493
    pstNewNode = OS_MEM_FIRST_NODE(pPool);
200010e0:	687b      	ldr	r3, [r7, #4]
200010e2:	33e0      	adds	r3, #224	; 0xe0
200010e4:	61fb      	str	r3, [r7, #28]
C:\Users\nitin.deshpande\Documents\GitHub\microsemi-huawei-liteos\microsemi-liteos\mscc-huawei-wsp\sc-gd450i-board-test\Debug/../kernel/base/mem/los_memory.c:494
    pstNewNode->uwSizeAndFlag = ((uwSize - ((UINT32)pstNewNode - (UINT32)pPool)) - OS_MEM_NODE_HEAD_SIZE);
200010e6:	687a      	ldr	r2, [r7, #4]
200010e8:	69fb      	ldr	r3, [r7, #28]
200010ea:	1ad2      	subs	r2, r2, r3
200010ec:	683b      	ldr	r3, [r7, #0]
200010ee:	4413      	add	r3, r2
200010f0:	f1a3 0210 	sub.w	r2, r3, #16
200010f4:	69fb      	ldr	r3, [r7, #28]
200010f6:	60da      	str	r2, [r3, #12]
C:\Users\nitin.deshpande\Documents\GitHub\microsemi-huawei-liteos\microsemi-liteos\mscc-huawei-wsp\sc-gd450i-board-test\Debug/../kernel/base/mem/los_memory.c:495
    pstNewNode->pstPreNode = (LOS_MEM_DYN_NODE *)NULL;
200010f8:	69fb      	ldr	r3, [r7, #28]
200010fa:	2200      	movs	r2, #0
200010fc:	609a      	str	r2, [r3, #8]
C:\Users\nitin.deshpande\Documents\GitHub\microsemi-huawei-liteos\microsemi-liteos\mscc-huawei-wsp\sc-gd450i-board-test\Debug/../kernel/base/mem/los_memory.c:496
    pstListHead = OS_MEM_HEAD(pPool, pstNewNode->uwSizeAndFlag);
200010fe:	687b      	ldr	r3, [r7, #4]
20001100:	3308      	adds	r3, #8
20001102:	461a      	mov	r2, r3
20001104:	69fb      	ldr	r3, [r7, #28]
20001106:	68db      	ldr	r3, [r3, #12]
20001108:	4619      	mov	r1, r3
2000110a:	4610      	mov	r0, r2
2000110c:	f000 fa41 	bl	20001592 <LOS_DLnkMultiHead>
20001110:	6138      	str	r0, [r7, #16]
C:\Users\nitin.deshpande\Documents\GitHub\microsemi-huawei-liteos\microsemi-liteos\mscc-huawei-wsp\sc-gd450i-board-test\Debug/../kernel/base/mem/los_memory.c:497
    if (NULL == pstListHead)
20001112:	693b      	ldr	r3, [r7, #16]
20001114:	2b00      	cmp	r3, #0
20001116:	d105      	bne.n	20001124 <LOS_MemInit+0x90>
C:\Users\nitin.deshpande\Documents\GitHub\microsemi-huawei-liteos\microsemi-liteos\mscc-huawei-wsp\sc-gd450i-board-test\Debug/../kernel/base/mem/los_memory.c:500
    {
        PRINT_ERR("%s %d\n", __FUNCTION__, __LINE__);
        LOS_IntRestore(uvIntSave);
20001118:	68f8      	ldr	r0, [r7, #12]
2000111a:	f7ff f978 	bl	2000040e <LOS_IntRestore>
C:\Users\nitin.deshpande\Documents\GitHub\microsemi-huawei-liteos\microsemi-liteos\mscc-huawei-wsp\sc-gd450i-board-test\Debug/../kernel/base/mem/los_memory.c:501
        return OS_ERROR;
2000111e:	f04f 33ff 	mov.w	r3, #4294967295
20001122:	e021      	b.n	20001168 <LOS_MemInit+0xd4>
C:\Users\nitin.deshpande\Documents\GitHub\microsemi-huawei-liteos\microsemi-liteos\mscc-huawei-wsp\sc-gd450i-board-test\Debug/../kernel/base/mem/los_memory.c:504
    }

    LOS_ListTailInsert(pstListHead,&(pstNewNode->stFreeNodeInfo));
20001124:	69fb      	ldr	r3, [r7, #28]
20001126:	4619      	mov	r1, r3
20001128:	6938      	ldr	r0, [r7, #16]
2000112a:	f7ff fd3d 	bl	20000ba8 <LOS_ListTailInsert>
C:\Users\nitin.deshpande\Documents\GitHub\microsemi-huawei-liteos\microsemi-liteos\mscc-huawei-wsp\sc-gd450i-board-test\Debug/../kernel/base/mem/los_memory.c:505
    pstEndNode = (LOS_MEM_DYN_NODE *)OS_MEM_END_NODE(pPool, uwSize);
2000112e:	683b      	ldr	r3, [r7, #0]
20001130:	3b10      	subs	r3, #16
20001132:	687a      	ldr	r2, [r7, #4]
20001134:	4413      	add	r3, r2
20001136:	61bb      	str	r3, [r7, #24]
C:\Users\nitin.deshpande\Documents\GitHub\microsemi-huawei-liteos\microsemi-liteos\mscc-huawei-wsp\sc-gd450i-board-test\Debug/../kernel/base/mem/los_memory.c:506
    (VOID)memset(pstEndNode, 0 ,sizeof(*pstEndNode));
20001138:	2210      	movs	r2, #16
2000113a:	2100      	movs	r1, #0
2000113c:	69b8      	ldr	r0, [r7, #24]
2000113e:	f003 f8bb 	bl	200042b8 <memset>
C:\Users\nitin.deshpande\Documents\GitHub\microsemi-huawei-liteos\microsemi-liteos\mscc-huawei-wsp\sc-gd450i-board-test\Debug/../kernel/base/mem/los_memory.c:507
    pstEndNode->pstPreNode = pstNewNode;
20001142:	69bb      	ldr	r3, [r7, #24]
20001144:	69fa      	ldr	r2, [r7, #28]
20001146:	609a      	str	r2, [r3, #8]
C:\Users\nitin.deshpande\Documents\GitHub\microsemi-huawei-liteos\microsemi-liteos\mscc-huawei-wsp\sc-gd450i-board-test\Debug/../kernel/base/mem/los_memory.c:508
    pstEndNode->uwSizeAndFlag = OS_MEM_NODE_HEAD_SIZE;
20001148:	69bb      	ldr	r3, [r7, #24]
2000114a:	2210      	movs	r2, #16
2000114c:	60da      	str	r2, [r3, #12]
C:\Users\nitin.deshpande\Documents\GitHub\microsemi-huawei-liteos\microsemi-liteos\mscc-huawei-wsp\sc-gd450i-board-test\Debug/../kernel/base/mem/los_memory.c:509
    OS_MEM_NODE_SET_USED_FLAG(pstEndNode->uwSizeAndFlag);
2000114e:	69bb      	ldr	r3, [r7, #24]
20001150:	68db      	ldr	r3, [r3, #12]
20001152:	f043 4200 	orr.w	r2, r3, #2147483648	; 0x80000000
20001156:	69bb      	ldr	r3, [r7, #24]
20001158:	60da      	str	r2, [r3, #12]
C:\Users\nitin.deshpande\Documents\GitHub\microsemi-huawei-liteos\microsemi-liteos\mscc-huawei-wsp\sc-gd450i-board-test\Debug/../kernel/base/mem/los_memory.c:510
    osMemSetMagicNumAndTaskid(pstEndNode);
2000115a:	69b8      	ldr	r0, [r7, #24]
2000115c:	f7ff ff3e 	bl	20000fdc <osMemSetMagicNumAndTaskid>
C:\Users\nitin.deshpande\Documents\GitHub\microsemi-huawei-liteos\microsemi-liteos\mscc-huawei-wsp\sc-gd450i-board-test\Debug/../kernel/base/mem/los_memory.c:511
    LOS_IntRestore(uvIntSave);
20001160:	68f8      	ldr	r0, [r7, #12]
20001162:	f7ff f954 	bl	2000040e <LOS_IntRestore>
C:\Users\nitin.deshpande\Documents\GitHub\microsemi-huawei-liteos\microsemi-liteos\mscc-huawei-wsp\sc-gd450i-board-test\Debug/../kernel/base/mem/los_memory.c:513

    return LOS_OK;
20001166:	2300      	movs	r3, #0
C:\Users\nitin.deshpande\Documents\GitHub\microsemi-huawei-liteos\microsemi-liteos\mscc-huawei-wsp\sc-gd450i-board-test\Debug/../kernel/base/mem/los_memory.c:514
}
20001168:	4618      	mov	r0, r3
2000116a:	3720      	adds	r7, #32
2000116c:	46bd      	mov	sp, r7
2000116e:	bd80      	pop	{r7, pc}

20001170 <LOS_MemAlloc>:
LOS_MemAlloc():
C:\Users\nitin.deshpande\Documents\GitHub\microsemi-huawei-liteos\microsemi-liteos\mscc-huawei-wsp\sc-gd450i-board-test\Debug/../kernel/base/mem/los_memory.c:525
                 uwSize  --- Size of memory in bytes to allocate
 Output      : None
 Return      : Pointer to allocated memory node
*****************************************************************************/
LITE_OS_SEC_TEXT VOID *LOS_MemAlloc (VOID *pPool, UINT32  uwSize)
{
20001170:	b580      	push	{r7, lr}
20001172:	b084      	sub	sp, #16
20001174:	af00      	add	r7, sp, #0
20001176:	6078      	str	r0, [r7, #4]
20001178:	6039      	str	r1, [r7, #0]
C:\Users\nitin.deshpande\Documents\GitHub\microsemi-huawei-liteos\microsemi-liteos\mscc-huawei-wsp\sc-gd450i-board-test\Debug/../kernel/base/mem/los_memory.c:526
    VOID *pPtr = NULL;
2000117a:	2300      	movs	r3, #0
2000117c:	60fb      	str	r3, [r7, #12]
C:\Users\nitin.deshpande\Documents\GitHub\microsemi-huawei-liteos\microsemi-liteos\mscc-huawei-wsp\sc-gd450i-board-test\Debug/../kernel/base/mem/los_memory.c:527
    UINTPTR uvIntSave = LOS_IntLock();
2000117e:	f7ff f93e 	bl	200003fe <LOS_IntLock>
20001182:	60b8      	str	r0, [r7, #8]
C:\Users\nitin.deshpande\Documents\GitHub\microsemi-huawei-liteos\microsemi-liteos\mscc-huawei-wsp\sc-gd450i-board-test\Debug/../kernel/base/mem/los_memory.c:531

    do
    {
        if ((pPool == NULL) || (uwSize == 0))
20001184:	687b      	ldr	r3, [r7, #4]
20001186:	2b00      	cmp	r3, #0
20001188:	d00c      	beq.n	200011a4 <LOS_MemAlloc+0x34>
C:\Users\nitin.deshpande\Documents\GitHub\microsemi-huawei-liteos\microsemi-liteos\mscc-huawei-wsp\sc-gd450i-board-test\Debug/../kernel/base/mem/los_memory.c:531 (discriminator 1)
2000118a:	683b      	ldr	r3, [r7, #0]
2000118c:	2b00      	cmp	r3, #0
2000118e:	d009      	beq.n	200011a4 <LOS_MemAlloc+0x34>
C:\Users\nitin.deshpande\Documents\GitHub\microsemi-huawei-liteos\microsemi-liteos\mscc-huawei-wsp\sc-gd450i-board-test\Debug/../kernel/base/mem/los_memory.c:536
        {
            break;
        }

        if (OS_MEM_NODE_GET_USED_FLAG(uwSize))
20001190:	683b      	ldr	r3, [r7, #0]
20001192:	2b00      	cmp	r3, #0
20001194:	db05      	blt.n	200011a2 <LOS_MemAlloc+0x32>
C:\Users\nitin.deshpande\Documents\GitHub\microsemi-huawei-liteos\microsemi-liteos\mscc-huawei-wsp\sc-gd450i-board-test\Debug/../kernel/base/mem/los_memory.c:541
        {
            break;
        }

        pPtr = osMemAllocWithCheck(pPool, uwSize);
20001196:	6839      	ldr	r1, [r7, #0]
20001198:	6878      	ldr	r0, [r7, #4]
2000119a:	f7ff ff3f 	bl	2000101c <osMemAllocWithCheck>
2000119e:	60f8      	str	r0, [r7, #12]
200011a0:	e000      	b.n	200011a4 <LOS_MemAlloc+0x34>
C:\Users\nitin.deshpande\Documents\GitHub\microsemi-huawei-liteos\microsemi-liteos\mscc-huawei-wsp\sc-gd450i-board-test\Debug/../kernel/base/mem/los_memory.c:538
            break;
200011a2:	bf00      	nop
C:\Users\nitin.deshpande\Documents\GitHub\microsemi-huawei-liteos\microsemi-liteos\mscc-huawei-wsp\sc-gd450i-board-test\Debug/../kernel/base/mem/los_memory.c:544
    } while (0);

    LOS_IntRestore(uvIntSave);
200011a4:	68b8      	ldr	r0, [r7, #8]
200011a6:	f7ff f932 	bl	2000040e <LOS_IntRestore>
C:\Users\nitin.deshpande\Documents\GitHub\microsemi-huawei-liteos\microsemi-liteos\mscc-huawei-wsp\sc-gd450i-board-test\Debug/../kernel/base/mem/los_memory.c:545
    return pPtr;
200011aa:	68fb      	ldr	r3, [r7, #12]
C:\Users\nitin.deshpande\Documents\GitHub\microsemi-huawei-liteos\microsemi-liteos\mscc-huawei-wsp\sc-gd450i-board-test\Debug/../kernel/base/mem/los_memory.c:546
}
200011ac:	4618      	mov	r0, r3
200011ae:	3710      	adds	r7, #16
200011b0:	46bd      	mov	sp, r7
200011b2:	bd80      	pop	{r7, pc}

200011b4 <LOS_MemAllocAlign>:
LOS_MemAllocAlign():
C:\Users\nitin.deshpande\Documents\GitHub\microsemi-huawei-liteos\microsemi-liteos\mscc-huawei-wsp\sc-gd450i-board-test\Debug/../kernel/base/mem/los_memory.c:558
                 uwBoundary -- align form
 Output      : None
 Return      : Pointer to allocated memory node
*****************************************************************************/
LITE_OS_SEC_TEXT VOID *LOS_MemAllocAlign(VOID *pPool, UINT32 uwSize, UINT32 uwBoundary)
{
200011b4:	b580      	push	{r7, lr}
200011b6:	b08a      	sub	sp, #40	; 0x28
200011b8:	af00      	add	r7, sp, #0
200011ba:	60f8      	str	r0, [r7, #12]
200011bc:	60b9      	str	r1, [r7, #8]
200011be:	607a      	str	r2, [r7, #4]
C:\Users\nitin.deshpande\Documents\GitHub\microsemi-huawei-liteos\microsemi-liteos\mscc-huawei-wsp\sc-gd450i-board-test\Debug/../kernel/base/mem/los_memory.c:559
    UINT32 uwUseSize = 0;
200011c0:	2300      	movs	r3, #0
200011c2:	623b      	str	r3, [r7, #32]
C:\Users\nitin.deshpande\Documents\GitHub\microsemi-huawei-liteos\microsemi-liteos\mscc-huawei-wsp\sc-gd450i-board-test\Debug/../kernel/base/mem/los_memory.c:560
    UINT32 uwGapSize = 0;
200011c4:	2300      	movs	r3, #0
200011c6:	61fb      	str	r3, [r7, #28]
C:\Users\nitin.deshpande\Documents\GitHub\microsemi-huawei-liteos\microsemi-liteos\mscc-huawei-wsp\sc-gd450i-board-test\Debug/../kernel/base/mem/los_memory.c:561
    VOID *pPtr = NULL;
200011c8:	2300      	movs	r3, #0
200011ca:	627b      	str	r3, [r7, #36]	; 0x24
C:\Users\nitin.deshpande\Documents\GitHub\microsemi-huawei-liteos\microsemi-liteos\mscc-huawei-wsp\sc-gd450i-board-test\Debug/../kernel/base/mem/los_memory.c:562
    VOID *pAlignedPtr = NULL;
200011cc:	2300      	movs	r3, #0
200011ce:	61bb      	str	r3, [r7, #24]
C:\Users\nitin.deshpande\Documents\GitHub\microsemi-huawei-liteos\microsemi-liteos\mscc-huawei-wsp\sc-gd450i-board-test\Debug/../kernel/base/mem/los_memory.c:563
    UINTPTR uvIntSave = LOS_IntLock();
200011d0:	f7ff f915 	bl	200003fe <LOS_IntLock>
200011d4:	6178      	str	r0, [r7, #20]
C:\Users\nitin.deshpande\Documents\GitHub\microsemi-huawei-liteos\microsemi-liteos\mscc-huawei-wsp\sc-gd450i-board-test\Debug/../kernel/base/mem/los_memory.c:567

    do
    {
        if ((pPool == NULL) || (uwSize == 0))
200011d6:	68fb      	ldr	r3, [r7, #12]
200011d8:	2b00      	cmp	r3, #0
200011da:	d02e      	beq.n	2000123a <LOS_MemAllocAlign+0x86>
C:\Users\nitin.deshpande\Documents\GitHub\microsemi-huawei-liteos\microsemi-liteos\mscc-huawei-wsp\sc-gd450i-board-test\Debug/../kernel/base/mem/los_memory.c:567 (discriminator 1)
200011dc:	68bb      	ldr	r3, [r7, #8]
200011de:	2b00      	cmp	r3, #0
200011e0:	d02b      	beq.n	2000123a <LOS_MemAllocAlign+0x86>
C:\Users\nitin.deshpande\Documents\GitHub\microsemi-huawei-liteos\microsemi-liteos\mscc-huawei-wsp\sc-gd450i-board-test\Debug/../kernel/base/mem/los_memory.c:572
        {
            break;
        }

        uwUseSize = uwSize + uwBoundary + 4; /* 4bytes stores offset between alignedPtr and ptr */
200011e2:	68ba      	ldr	r2, [r7, #8]
200011e4:	687b      	ldr	r3, [r7, #4]
200011e6:	4413      	add	r3, r2
200011e8:	3304      	adds	r3, #4
200011ea:	623b      	str	r3, [r7, #32]
C:\Users\nitin.deshpande\Documents\GitHub\microsemi-huawei-liteos\microsemi-liteos\mscc-huawei-wsp\sc-gd450i-board-test\Debug/../kernel/base/mem/los_memory.c:574

        if (OS_MEM_NODE_GET_USED_FLAG(uwUseSize))
200011ec:	6a3b      	ldr	r3, [r7, #32]
200011ee:	2b00      	cmp	r3, #0
200011f0:	db20      	blt.n	20001234 <LOS_MemAllocAlign+0x80>
C:\Users\nitin.deshpande\Documents\GitHub\microsemi-huawei-liteos\microsemi-liteos\mscc-huawei-wsp\sc-gd450i-board-test\Debug/../kernel/base/mem/los_memory.c:579
        {
            break;
        }

        pPtr = osMemAllocWithCheck(pPool, uwUseSize);
200011f2:	6a39      	ldr	r1, [r7, #32]
200011f4:	68f8      	ldr	r0, [r7, #12]
200011f6:	f7ff ff11 	bl	2000101c <osMemAllocWithCheck>
200011fa:	6278      	str	r0, [r7, #36]	; 0x24
C:\Users\nitin.deshpande\Documents\GitHub\microsemi-huawei-liteos\microsemi-liteos\mscc-huawei-wsp\sc-gd450i-board-test\Debug/../kernel/base/mem/los_memory.c:581

        pAlignedPtr = (VOID *)OS_MEM_ALIGN(pPtr, uwBoundary);
200011fc:	6a7a      	ldr	r2, [r7, #36]	; 0x24
200011fe:	687b      	ldr	r3, [r7, #4]
20001200:	4413      	add	r3, r2
20001202:	1e5a      	subs	r2, r3, #1
20001204:	687b      	ldr	r3, [r7, #4]
20001206:	425b      	negs	r3, r3
20001208:	4013      	ands	r3, r2
2000120a:	61bb      	str	r3, [r7, #24]
C:\Users\nitin.deshpande\Documents\GitHub\microsemi-huawei-liteos\microsemi-liteos\mscc-huawei-wsp\sc-gd450i-board-test\Debug/../kernel/base/mem/los_memory.c:583

        if (pPtr == pAlignedPtr)
2000120c:	6a7a      	ldr	r2, [r7, #36]	; 0x24
2000120e:	69bb      	ldr	r3, [r7, #24]
20001210:	429a      	cmp	r2, r3
20001212:	d011      	beq.n	20001238 <LOS_MemAllocAlign+0x84>
C:\Users\nitin.deshpande\Documents\GitHub\microsemi-huawei-liteos\microsemi-liteos\mscc-huawei-wsp\sc-gd450i-board-test\Debug/../kernel/base/mem/los_memory.c:589
        {
            break;
        }

        /* store gapSize in address (ptr -4), it will be checked while free */
        uwGapSize = (UINT32)pAlignedPtr - (UINT32)pPtr;
20001214:	69ba      	ldr	r2, [r7, #24]
20001216:	6a7b      	ldr	r3, [r7, #36]	; 0x24
20001218:	1ad3      	subs	r3, r2, r3
2000121a:	61fb      	str	r3, [r7, #28]
C:\Users\nitin.deshpande\Documents\GitHub\microsemi-huawei-liteos\microsemi-liteos\mscc-huawei-wsp\sc-gd450i-board-test\Debug/../kernel/base/mem/los_memory.c:590
        OS_MEM_NODE_SET_ALIGNED_FLAG(uwGapSize);
2000121c:	69fb      	ldr	r3, [r7, #28]
2000121e:	f043 4380 	orr.w	r3, r3, #1073741824	; 0x40000000
20001222:	61fb      	str	r3, [r7, #28]
C:\Users\nitin.deshpande\Documents\GitHub\microsemi-huawei-liteos\microsemi-liteos\mscc-huawei-wsp\sc-gd450i-board-test\Debug/../kernel/base/mem/los_memory.c:591
        *((UINT32 *)((UINT32)pAlignedPtr - 4)) = uwGapSize;
20001224:	69bb      	ldr	r3, [r7, #24]
20001226:	3b04      	subs	r3, #4
20001228:	461a      	mov	r2, r3
2000122a:	69fb      	ldr	r3, [r7, #28]
2000122c:	6013      	str	r3, [r2, #0]
C:\Users\nitin.deshpande\Documents\GitHub\microsemi-huawei-liteos\microsemi-liteos\mscc-huawei-wsp\sc-gd450i-board-test\Debug/../kernel/base/mem/los_memory.c:593

        pPtr = pAlignedPtr;
2000122e:	69bb      	ldr	r3, [r7, #24]
20001230:	627b      	str	r3, [r7, #36]	; 0x24
20001232:	e002      	b.n	2000123a <LOS_MemAllocAlign+0x86>
C:\Users\nitin.deshpande\Documents\GitHub\microsemi-huawei-liteos\microsemi-liteos\mscc-huawei-wsp\sc-gd450i-board-test\Debug/../kernel/base/mem/los_memory.c:576
            break;
20001234:	bf00      	nop
20001236:	e000      	b.n	2000123a <LOS_MemAllocAlign+0x86>
C:\Users\nitin.deshpande\Documents\GitHub\microsemi-huawei-liteos\microsemi-liteos\mscc-huawei-wsp\sc-gd450i-board-test\Debug/../kernel/base/mem/los_memory.c:585
            break;
20001238:	bf00      	nop
C:\Users\nitin.deshpande\Documents\GitHub\microsemi-huawei-liteos\microsemi-liteos\mscc-huawei-wsp\sc-gd450i-board-test\Debug/../kernel/base/mem/los_memory.c:597

    } while (0);

     LOS_IntRestore(uvIntSave);
2000123a:	6978      	ldr	r0, [r7, #20]
2000123c:	f7ff f8e7 	bl	2000040e <LOS_IntRestore>
C:\Users\nitin.deshpande\Documents\GitHub\microsemi-huawei-liteos\microsemi-liteos\mscc-huawei-wsp\sc-gd450i-board-test\Debug/../kernel/base/mem/los_memory.c:599

    return pPtr;
20001240:	6a7b      	ldr	r3, [r7, #36]	; 0x24
C:\Users\nitin.deshpande\Documents\GitHub\microsemi-huawei-liteos\microsemi-liteos\mscc-huawei-wsp\sc-gd450i-board-test\Debug/../kernel/base/mem/los_memory.c:600
}
20001242:	4618      	mov	r0, r3
20001244:	3728      	adds	r7, #40	; 0x28
20001246:	46bd      	mov	sp, r7
20001248:	bd80      	pop	{r7, pc}

2000124a <LOS_MemFree>:
LOS_MemFree():
C:\Users\nitin.deshpande\Documents\GitHub\microsemi-huawei-liteos\microsemi-liteos\mscc-huawei-wsp\sc-gd450i-board-test\Debug/../kernel/base/mem/los_memory.c:612
                  pMem -- the node which need be freed
 Output      : None
 Return      : LOS_OK -Ok,  LOS_NOK -failed
*****************************************************************************/
LITE_OS_SEC_TEXT UINT32 LOS_MemFree(VOID *pPool, VOID *pMem)
{
2000124a:	b580      	push	{r7, lr}
2000124c:	b086      	sub	sp, #24
2000124e:	af00      	add	r7, sp, #0
20001250:	6078      	str	r0, [r7, #4]
20001252:	6039      	str	r1, [r7, #0]
C:\Users\nitin.deshpande\Documents\GitHub\microsemi-huawei-liteos\microsemi-liteos\mscc-huawei-wsp\sc-gd450i-board-test\Debug/../kernel/base/mem/los_memory.c:613
    UINT32 uwRet = LOS_NOK;
20001254:	2301      	movs	r3, #1
20001256:	617b      	str	r3, [r7, #20]
C:\Users\nitin.deshpande\Documents\GitHub\microsemi-huawei-liteos\microsemi-liteos\mscc-huawei-wsp\sc-gd450i-board-test\Debug/../kernel/base/mem/los_memory.c:614
    UINT32 uwGapSize = 0;
20001258:	2300      	movs	r3, #0
2000125a:	613b      	str	r3, [r7, #16]
C:\Users\nitin.deshpande\Documents\GitHub\microsemi-huawei-liteos\microsemi-liteos\mscc-huawei-wsp\sc-gd450i-board-test\Debug/../kernel/base/mem/los_memory.c:615
    UINTPTR uvIntSave = LOS_IntLock();
2000125c:	f7ff f8cf 	bl	200003fe <LOS_IntLock>
20001260:	60f8      	str	r0, [r7, #12]
C:\Users\nitin.deshpande\Documents\GitHub\microsemi-huawei-liteos\microsemi-liteos\mscc-huawei-wsp\sc-gd450i-board-test\Debug/../kernel/base/mem/los_memory.c:619

    do
    {
        LOS_MEM_DYN_NODE *pstNode = (LOS_MEM_DYN_NODE *)NULL;
20001262:	2300      	movs	r3, #0
20001264:	60bb      	str	r3, [r7, #8]
C:\Users\nitin.deshpande\Documents\GitHub\microsemi-huawei-liteos\microsemi-liteos\mscc-huawei-wsp\sc-gd450i-board-test\Debug/../kernel/base/mem/los_memory.c:621

        if ((pPool == NULL) || (pMem == NULL))
20001266:	687b      	ldr	r3, [r7, #4]
20001268:	2b00      	cmp	r3, #0
2000126a:	d022      	beq.n	200012b2 <LOS_MemFree+0x68>
C:\Users\nitin.deshpande\Documents\GitHub\microsemi-huawei-liteos\microsemi-liteos\mscc-huawei-wsp\sc-gd450i-board-test\Debug/../kernel/base/mem/los_memory.c:621 (discriminator 1)
2000126c:	683b      	ldr	r3, [r7, #0]
2000126e:	2b00      	cmp	r3, #0
20001270:	d01f      	beq.n	200012b2 <LOS_MemFree+0x68>
C:\Users\nitin.deshpande\Documents\GitHub\microsemi-huawei-liteos\microsemi-liteos\mscc-huawei-wsp\sc-gd450i-board-test\Debug/../kernel/base/mem/los_memory.c:626
        {
            break;
        }

        uwGapSize = *((UINT32 *)((UINT32)pMem - 4));
20001272:	683b      	ldr	r3, [r7, #0]
20001274:	3b04      	subs	r3, #4
20001276:	681b      	ldr	r3, [r3, #0]
20001278:	613b      	str	r3, [r7, #16]
C:\Users\nitin.deshpande\Documents\GitHub\microsemi-huawei-liteos\microsemi-liteos\mscc-huawei-wsp\sc-gd450i-board-test\Debug/../kernel/base/mem/los_memory.c:627
        if (OS_MEM_NODE_GET_ALIGNED_FLAG(uwGapSize))
2000127a:	693b      	ldr	r3, [r7, #16]
2000127c:	f003 4380 	and.w	r3, r3, #1073741824	; 0x40000000
20001280:	2b00      	cmp	r3, #0
20001282:	d007      	beq.n	20001294 <LOS_MemFree+0x4a>
C:\Users\nitin.deshpande\Documents\GitHub\microsemi-huawei-liteos\microsemi-liteos\mscc-huawei-wsp\sc-gd450i-board-test\Debug/../kernel/base/mem/los_memory.c:629
        {
            uwGapSize = OS_MEM_NODE_GET_ALIGNED_GAPSIZE(uwGapSize);
20001284:	693b      	ldr	r3, [r7, #16]
20001286:	f023 4380 	bic.w	r3, r3, #1073741824	; 0x40000000
2000128a:	613b      	str	r3, [r7, #16]
C:\Users\nitin.deshpande\Documents\GitHub\microsemi-huawei-liteos\microsemi-liteos\mscc-huawei-wsp\sc-gd450i-board-test\Debug/../kernel/base/mem/los_memory.c:630
            pMem = (VOID *)((UINT32)pMem - uwGapSize);
2000128c:	683a      	ldr	r2, [r7, #0]
2000128e:	693b      	ldr	r3, [r7, #16]
20001290:	1ad3      	subs	r3, r2, r3
20001292:	603b      	str	r3, [r7, #0]
C:\Users\nitin.deshpande\Documents\GitHub\microsemi-huawei-liteos\microsemi-liteos\mscc-huawei-wsp\sc-gd450i-board-test\Debug/../kernel/base/mem/los_memory.c:633
        }

        pstNode = (LOS_MEM_DYN_NODE *)((UINT32)pMem - OS_MEM_NODE_HEAD_SIZE);
20001294:	683b      	ldr	r3, [r7, #0]
20001296:	3b10      	subs	r3, #16
20001298:	60bb      	str	r3, [r7, #8]
C:\Users\nitin.deshpande\Documents\GitHub\microsemi-huawei-liteos\microsemi-liteos\mscc-huawei-wsp\sc-gd450i-board-test\Debug/../kernel/base/mem/los_memory.c:634
        uwRet = osMemCheckUsedNode(pPool, pstNode);
2000129a:	68b9      	ldr	r1, [r7, #8]
2000129c:	6878      	ldr	r0, [r7, #4]
2000129e:	f7ff fe34 	bl	20000f0a <osMemCheckUsedNode>
200012a2:	6178      	str	r0, [r7, #20]
C:\Users\nitin.deshpande\Documents\GitHub\microsemi-huawei-liteos\microsemi-liteos\mscc-huawei-wsp\sc-gd450i-board-test\Debug/../kernel/base/mem/los_memory.c:635
        if (uwRet == LOS_OK)
200012a4:	697b      	ldr	r3, [r7, #20]
200012a6:	2b00      	cmp	r3, #0
200012a8:	d103      	bne.n	200012b2 <LOS_MemFree+0x68>
C:\Users\nitin.deshpande\Documents\GitHub\microsemi-huawei-liteos\microsemi-liteos\mscc-huawei-wsp\sc-gd450i-board-test\Debug/../kernel/base/mem/los_memory.c:637
        {
            osMemFreeNode(pstNode, pPool);
200012aa:	6879      	ldr	r1, [r7, #4]
200012ac:	68b8      	ldr	r0, [r7, #8]
200012ae:	f7ff fd7f 	bl	20000db0 <osMemFreeNode>
C:\Users\nitin.deshpande\Documents\GitHub\microsemi-huawei-liteos\microsemi-liteos\mscc-huawei-wsp\sc-gd450i-board-test\Debug/../kernel/base/mem/los_memory.c:642
        }

    } while(0);

    LOS_IntRestore(uvIntSave);
200012b2:	68f8      	ldr	r0, [r7, #12]
200012b4:	f7ff f8ab 	bl	2000040e <LOS_IntRestore>
C:\Users\nitin.deshpande\Documents\GitHub\microsemi-huawei-liteos\microsemi-liteos\mscc-huawei-wsp\sc-gd450i-board-test\Debug/../kernel/base/mem/los_memory.c:643
    return uwRet;
200012b8:	697b      	ldr	r3, [r7, #20]
C:\Users\nitin.deshpande\Documents\GitHub\microsemi-huawei-liteos\microsemi-liteos\mscc-huawei-wsp\sc-gd450i-board-test\Debug/../kernel/base/mem/los_memory.c:644
}
200012ba:	4618      	mov	r0, r3
200012bc:	3718      	adds	r7, #24
200012be:	46bd      	mov	sp, r7
200012c0:	bd80      	pop	{r7, pc}
	...

200012c4 <osTaskMemUsedInc>:
osTaskMemUsedInc():
C:\Users\nitin.deshpande\Documents\GitHub\microsemi-huawei-liteos\microsemi-liteos\mscc-huawei-wsp\sc-gd450i-board-test\Debug/../kernel/base/mem/los_memstat.c:48
} TSK_MEM_USED_INFO;

LITE_OS_SEC_BSS_MINOR TSK_MEM_USED_INFO g_TskMemUsedInfo[LOSCFG_BASE_CORE_TSK_LIMIT + 1];

LITE_OS_SEC_TEXT_MINOR VOID osTaskMemUsedInc(UINT32 uwUsedSize)
{
200012c4:	b480      	push	{r7}
200012c6:	b085      	sub	sp, #20
200012c8:	af00      	add	r7, sp, #0
200012ca:	6078      	str	r0, [r7, #4]
C:\Users\nitin.deshpande\Documents\GitHub\microsemi-huawei-liteos\microsemi-liteos\mscc-huawei-wsp\sc-gd450i-board-test\Debug/../kernel/base/mem/los_memstat.c:51
    UINT32 taskId;

    if (NULL == g_stLosTask.pstRunTask)
200012cc:	4b11      	ldr	r3, [pc, #68]	; (20001314 <osTaskMemUsedInc+0x50>)
200012ce:	681b      	ldr	r3, [r3, #0]
200012d0:	2b00      	cmp	r3, #0
200012d2:	d015      	beq.n	20001300 <osTaskMemUsedInc+0x3c>
C:\Users\nitin.deshpande\Documents\GitHub\microsemi-huawei-liteos\microsemi-liteos\mscc-huawei-wsp\sc-gd450i-board-test\Debug/../kernel/base/mem/los_memstat.c:56
    {
        return;
    }

    if (OS_INT_ACTIVE)
200012d4:	4b10      	ldr	r3, [pc, #64]	; (20001318 <osTaskMemUsedInc+0x54>)
200012d6:	681b      	ldr	r3, [r3, #0]
200012d8:	2b00      	cmp	r3, #0
200012da:	d113      	bne.n	20001304 <osTaskMemUsedInc+0x40>
C:\Users\nitin.deshpande\Documents\GitHub\microsemi-huawei-liteos\microsemi-liteos\mscc-huawei-wsp\sc-gd450i-board-test\Debug/../kernel/base/mem/los_memstat.c:61
    {
        return;
    }

    taskId = (UINT32) g_stLosTask.pstRunTask->uwTaskID;
200012dc:	4b0d      	ldr	r3, [pc, #52]	; (20001314 <osTaskMemUsedInc+0x50>)
200012de:	681b      	ldr	r3, [r3, #0]
200012e0:	691b      	ldr	r3, [r3, #16]
200012e2:	60fb      	str	r3, [r7, #12]
C:\Users\nitin.deshpande\Documents\GitHub\microsemi-huawei-liteos\microsemi-liteos\mscc-huawei-wsp\sc-gd450i-board-test\Debug/../kernel/base/mem/los_memstat.c:63

    if (taskId > LOSCFG_BASE_CORE_TSK_LIMIT)
200012e4:	68fb      	ldr	r3, [r7, #12]
200012e6:	2b0f      	cmp	r3, #15
200012e8:	d80e      	bhi.n	20001308 <osTaskMemUsedInc+0x44>
C:\Users\nitin.deshpande\Documents\GitHub\microsemi-huawei-liteos\microsemi-liteos\mscc-huawei-wsp\sc-gd450i-board-test\Debug/../kernel/base/mem/los_memstat.c:68
    {
        return;
    }

    g_TskMemUsedInfo[taskId].uwMemUsed += uwUsedSize;
200012ea:	4a0c      	ldr	r2, [pc, #48]	; (2000131c <osTaskMemUsedInc+0x58>)
200012ec:	68fb      	ldr	r3, [r7, #12]
200012ee:	f852 2023 	ldr.w	r2, [r2, r3, lsl #2]
200012f2:	687b      	ldr	r3, [r7, #4]
200012f4:	441a      	add	r2, r3
200012f6:	4909      	ldr	r1, [pc, #36]	; (2000131c <osTaskMemUsedInc+0x58>)
200012f8:	68fb      	ldr	r3, [r7, #12]
200012fa:	f841 2023 	str.w	r2, [r1, r3, lsl #2]
200012fe:	e004      	b.n	2000130a <osTaskMemUsedInc+0x46>
C:\Users\nitin.deshpande\Documents\GitHub\microsemi-huawei-liteos\microsemi-liteos\mscc-huawei-wsp\sc-gd450i-board-test\Debug/../kernel/base/mem/los_memstat.c:53
        return;
20001300:	bf00      	nop
20001302:	e002      	b.n	2000130a <osTaskMemUsedInc+0x46>
C:\Users\nitin.deshpande\Documents\GitHub\microsemi-huawei-liteos\microsemi-liteos\mscc-huawei-wsp\sc-gd450i-board-test\Debug/../kernel/base/mem/los_memstat.c:58
        return;
20001304:	bf00      	nop
20001306:	e000      	b.n	2000130a <osTaskMemUsedInc+0x46>
C:\Users\nitin.deshpande\Documents\GitHub\microsemi-huawei-liteos\microsemi-liteos\mscc-huawei-wsp\sc-gd450i-board-test\Debug/../kernel/base/mem/los_memstat.c:65
        return;
20001308:	bf00      	nop
C:\Users\nitin.deshpande\Documents\GitHub\microsemi-huawei-liteos\microsemi-liteos\mscc-huawei-wsp\sc-gd450i-board-test\Debug/../kernel/base/mem/los_memstat.c:69
}
2000130a:	3714      	adds	r7, #20
2000130c:	46bd      	mov	sp, r7
2000130e:	f85d 7b04 	ldr.w	r7, [sp], #4
20001312:	4770      	bx	lr
20001314:	2000496c 	.word	0x2000496c
20001318:	200047f0 	.word	0x200047f0
2000131c:	2000480c 	.word	0x2000480c

20001320 <osTaskMemUsedDec>:
osTaskMemUsedDec():
C:\Users\nitin.deshpande\Documents\GitHub\microsemi-huawei-liteos\microsemi-liteos\mscc-huawei-wsp\sc-gd450i-board-test\Debug/../kernel/base/mem/los_memstat.c:72

LITE_OS_SEC_TEXT_MINOR VOID osTaskMemUsedDec(UINT32 uwUsedSize)
{
20001320:	b480      	push	{r7}
20001322:	b085      	sub	sp, #20
20001324:	af00      	add	r7, sp, #0
20001326:	6078      	str	r0, [r7, #4]
C:\Users\nitin.deshpande\Documents\GitHub\microsemi-huawei-liteos\microsemi-liteos\mscc-huawei-wsp\sc-gd450i-board-test\Debug/../kernel/base/mem/los_memstat.c:75
    UINT32 taskId;

    taskId = (UINT32) g_stLosTask.pstRunTask->uwTaskID;
20001328:	4b0e      	ldr	r3, [pc, #56]	; (20001364 <osTaskMemUsedDec+0x44>)
2000132a:	681b      	ldr	r3, [r3, #0]
2000132c:	691b      	ldr	r3, [r3, #16]
2000132e:	60fb      	str	r3, [r7, #12]
C:\Users\nitin.deshpande\Documents\GitHub\microsemi-huawei-liteos\microsemi-liteos\mscc-huawei-wsp\sc-gd450i-board-test\Debug/../kernel/base/mem/los_memstat.c:77

    if (taskId > LOSCFG_BASE_CORE_TSK_LIMIT)
20001330:	68fb      	ldr	r3, [r7, #12]
20001332:	2b0f      	cmp	r3, #15
20001334:	d80e      	bhi.n	20001354 <osTaskMemUsedDec+0x34>
C:\Users\nitin.deshpande\Documents\GitHub\microsemi-huawei-liteos\microsemi-liteos\mscc-huawei-wsp\sc-gd450i-board-test\Debug/../kernel/base/mem/los_memstat.c:82
    {
        return;
    }

    if (OS_INT_ACTIVE)
20001336:	4b0c      	ldr	r3, [pc, #48]	; (20001368 <osTaskMemUsedDec+0x48>)
20001338:	681b      	ldr	r3, [r3, #0]
2000133a:	2b00      	cmp	r3, #0
2000133c:	d10c      	bne.n	20001358 <osTaskMemUsedDec+0x38>
C:\Users\nitin.deshpande\Documents\GitHub\microsemi-huawei-liteos\microsemi-liteos\mscc-huawei-wsp\sc-gd450i-board-test\Debug/../kernel/base/mem/los_memstat.c:87
    {
        return;
    }

    g_TskMemUsedInfo[taskId].uwMemUsed -= uwUsedSize;
2000133e:	4a0b      	ldr	r2, [pc, #44]	; (2000136c <osTaskMemUsedDec+0x4c>)
20001340:	68fb      	ldr	r3, [r7, #12]
20001342:	f852 2023 	ldr.w	r2, [r2, r3, lsl #2]
20001346:	687b      	ldr	r3, [r7, #4]
20001348:	1ad2      	subs	r2, r2, r3
2000134a:	4908      	ldr	r1, [pc, #32]	; (2000136c <osTaskMemUsedDec+0x4c>)
2000134c:	68fb      	ldr	r3, [r7, #12]
2000134e:	f841 2023 	str.w	r2, [r1, r3, lsl #2]
20001352:	e002      	b.n	2000135a <osTaskMemUsedDec+0x3a>
C:\Users\nitin.deshpande\Documents\GitHub\microsemi-huawei-liteos\microsemi-liteos\mscc-huawei-wsp\sc-gd450i-board-test\Debug/../kernel/base/mem/los_memstat.c:79
        return;
20001354:	bf00      	nop
20001356:	e000      	b.n	2000135a <osTaskMemUsedDec+0x3a>
C:\Users\nitin.deshpande\Documents\GitHub\microsemi-huawei-liteos\microsemi-liteos\mscc-huawei-wsp\sc-gd450i-board-test\Debug/../kernel/base/mem/los_memstat.c:84
        return;
20001358:	bf00      	nop
C:\Users\nitin.deshpande\Documents\GitHub\microsemi-huawei-liteos\microsemi-liteos\mscc-huawei-wsp\sc-gd450i-board-test\Debug/../kernel/base/mem/los_memstat.c:88
}
2000135a:	3714      	adds	r7, #20
2000135c:	46bd      	mov	sp, r7
2000135e:	f85d 7b04 	ldr.w	r7, [sp], #4
20001362:	4770      	bx	lr
20001364:	2000496c 	.word	0x2000496c
20001368:	200047f0 	.word	0x200047f0
2000136c:	2000480c 	.word	0x2000480c

20001370 <LOS_ListInit>:
LOS_ListInit():
C:\Users\nitin.deshpande\Documents\GitHub\microsemi-huawei-liteos\microsemi-liteos\mscc-huawei-wsp\sc-gd450i-board-test\kernel\include/los_list.h:81
{
20001370:	b480      	push	{r7}
20001372:	b083      	sub	sp, #12
20001374:	af00      	add	r7, sp, #0
20001376:	6078      	str	r0, [r7, #4]
C:\Users\nitin.deshpande\Documents\GitHub\microsemi-huawei-liteos\microsemi-liteos\mscc-huawei-wsp\sc-gd450i-board-test\kernel\include/los_list.h:82
    pstList->pstNext = pstList;
20001378:	687b      	ldr	r3, [r7, #4]
2000137a:	687a      	ldr	r2, [r7, #4]
2000137c:	605a      	str	r2, [r3, #4]
C:\Users\nitin.deshpande\Documents\GitHub\microsemi-huawei-liteos\microsemi-liteos\mscc-huawei-wsp\sc-gd450i-board-test\kernel\include/los_list.h:83
    pstList->pstPrev = pstList;
2000137e:	687b      	ldr	r3, [r7, #4]
20001380:	687a      	ldr	r2, [r7, #4]
20001382:	601a      	str	r2, [r3, #0]
C:\Users\nitin.deshpande\Documents\GitHub\microsemi-huawei-liteos\microsemi-liteos\mscc-huawei-wsp\sc-gd450i-board-test\kernel\include/los_list.h:84
}
20001384:	bf00      	nop
20001386:	370c      	adds	r7, #12
20001388:	46bd      	mov	sp, r7
2000138a:	f85d 7b04 	ldr.w	r7, [sp], #4
2000138e:	4770      	bx	lr

20001390 <LOS_Log2>:
LOS_Log2():
C:\Users\nitin.deshpande\Documents\GitHub\microsemi-huawei-liteos\microsemi-liteos\mscc-huawei-wsp\sc-gd450i-board-test\Debug/../kernel/base/mem/los_multipledlinkhead.c:42
#define IF_ELSE(mask, if_do, else_do) if(uwSize & (mask)){if_do}else{else_do}
#define BIT_NUM(num) return num;
#define BIT_NONE BIT_NUM(0xfffffff)

INLINE UINT32 LOS_Log2(UINT32 uwSize)
{
20001390:	b480      	push	{r7}
20001392:	b083      	sub	sp, #12
20001394:	af00      	add	r7, sp, #0
20001396:	6078      	str	r0, [r7, #4]
C:\Users\nitin.deshpande\Documents\GitHub\microsemi-huawei-liteos\microsemi-liteos\mscc-huawei-wsp\sc-gd450i-board-test\Debug/../kernel/base/mem/los_multipledlinkhead.c:43
    IF_ELSE(0x80000000, \
20001398:	687b      	ldr	r3, [r7, #4]
2000139a:	2b00      	cmp	r3, #0
2000139c:	da02      	bge.n	200013a4 <LOS_Log2+0x14>
C:\Users\nitin.deshpande\Documents\GitHub\microsemi-huawei-liteos\microsemi-liteos\mscc-huawei-wsp\sc-gd450i-board-test\Debug/../kernel/base/mem/los_multipledlinkhead.c:43 (discriminator 1)
2000139e:	f06f 4370 	mvn.w	r3, #4026531840	; 0xf0000000
200013a2:	e0d2      	b.n	2000154a <LOS_Log2+0x1ba>
C:\Users\nitin.deshpande\Documents\GitHub\microsemi-huawei-liteos\microsemi-liteos\mscc-huawei-wsp\sc-gd450i-board-test\Debug/../kernel/base/mem/los_multipledlinkhead.c:43 (discriminator 2)
200013a4:	687a      	ldr	r2, [r7, #4]
200013a6:	4b6c      	ldr	r3, [pc, #432]	; (20001558 <LOS_Log2+0x1c8>)
200013a8:	4013      	ands	r3, r2
200013aa:	2b00      	cmp	r3, #0
200013ac:	d063      	beq.n	20001476 <LOS_Log2+0xe6>
C:\Users\nitin.deshpande\Documents\GitHub\microsemi-huawei-liteos\microsemi-liteos\mscc-huawei-wsp\sc-gd450i-board-test\Debug/../kernel/base/mem/los_multipledlinkhead.c:43 (discriminator 3)
200013ae:	687b      	ldr	r3, [r7, #4]
200013b0:	f003 43fe 	and.w	r3, r3, #2130706432	; 0x7f000000
200013b4:	2b00      	cmp	r3, #0
200013b6:	d02b      	beq.n	20001410 <LOS_Log2+0x80>
C:\Users\nitin.deshpande\Documents\GitHub\microsemi-huawei-liteos\microsemi-liteos\mscc-huawei-wsp\sc-gd450i-board-test\Debug/../kernel/base/mem/los_multipledlinkhead.c:43 (discriminator 5)
200013b8:	687b      	ldr	r3, [r7, #4]
200013ba:	f003 43e0 	and.w	r3, r3, #1879048192	; 0x70000000
200013be:	2b00      	cmp	r3, #0
200013c0:	d00f      	beq.n	200013e2 <LOS_Log2+0x52>
C:\Users\nitin.deshpande\Documents\GitHub\microsemi-huawei-liteos\microsemi-liteos\mscc-huawei-wsp\sc-gd450i-board-test\Debug/../kernel/base/mem/los_multipledlinkhead.c:43 (discriminator 7)
200013c2:	687b      	ldr	r3, [r7, #4]
200013c4:	f003 4380 	and.w	r3, r3, #1073741824	; 0x40000000
200013c8:	2b00      	cmp	r3, #0
200013ca:	d001      	beq.n	200013d0 <LOS_Log2+0x40>
C:\Users\nitin.deshpande\Documents\GitHub\microsemi-huawei-liteos\microsemi-liteos\mscc-huawei-wsp\sc-gd450i-board-test\Debug/../kernel/base/mem/los_multipledlinkhead.c:43 (discriminator 9)
200013cc:	231e      	movs	r3, #30
200013ce:	e0bc      	b.n	2000154a <LOS_Log2+0x1ba>
C:\Users\nitin.deshpande\Documents\GitHub\microsemi-huawei-liteos\microsemi-liteos\mscc-huawei-wsp\sc-gd450i-board-test\Debug/../kernel/base/mem/los_multipledlinkhead.c:43 (discriminator 10)
200013d0:	687b      	ldr	r3, [r7, #4]
200013d2:	f003 5300 	and.w	r3, r3, #536870912	; 0x20000000
200013d6:	2b00      	cmp	r3, #0
200013d8:	d001      	beq.n	200013de <LOS_Log2+0x4e>
C:\Users\nitin.deshpande\Documents\GitHub\microsemi-huawei-liteos\microsemi-liteos\mscc-huawei-wsp\sc-gd450i-board-test\Debug/../kernel/base/mem/los_multipledlinkhead.c:43 (discriminator 11)
200013da:	231d      	movs	r3, #29
200013dc:	e0b5      	b.n	2000154a <LOS_Log2+0x1ba>
C:\Users\nitin.deshpande\Documents\GitHub\microsemi-huawei-liteos\microsemi-liteos\mscc-huawei-wsp\sc-gd450i-board-test\Debug/../kernel/base/mem/los_multipledlinkhead.c:43 (discriminator 12)
200013de:	231c      	movs	r3, #28
200013e0:	e0b3      	b.n	2000154a <LOS_Log2+0x1ba>
C:\Users\nitin.deshpande\Documents\GitHub\microsemi-huawei-liteos\microsemi-liteos\mscc-huawei-wsp\sc-gd450i-board-test\Debug/../kernel/base/mem/los_multipledlinkhead.c:43 (discriminator 8)
200013e2:	687b      	ldr	r3, [r7, #4]
200013e4:	f003 6340 	and.w	r3, r3, #201326592	; 0xc000000
200013e8:	2b00      	cmp	r3, #0
200013ea:	d008      	beq.n	200013fe <LOS_Log2+0x6e>
C:\Users\nitin.deshpande\Documents\GitHub\microsemi-huawei-liteos\microsemi-liteos\mscc-huawei-wsp\sc-gd450i-board-test\Debug/../kernel/base/mem/los_multipledlinkhead.c:43 (discriminator 13)
200013ec:	687b      	ldr	r3, [r7, #4]
200013ee:	f003 6300 	and.w	r3, r3, #134217728	; 0x8000000
200013f2:	2b00      	cmp	r3, #0
200013f4:	d001      	beq.n	200013fa <LOS_Log2+0x6a>
C:\Users\nitin.deshpande\Documents\GitHub\microsemi-huawei-liteos\microsemi-liteos\mscc-huawei-wsp\sc-gd450i-board-test\Debug/../kernel/base/mem/los_multipledlinkhead.c:43 (discriminator 15)
200013f6:	231b      	movs	r3, #27
200013f8:	e0a7      	b.n	2000154a <LOS_Log2+0x1ba>
C:\Users\nitin.deshpande\Documents\GitHub\microsemi-huawei-liteos\microsemi-liteos\mscc-huawei-wsp\sc-gd450i-board-test\Debug/../kernel/base/mem/los_multipledlinkhead.c:43 (discriminator 16)
200013fa:	231a      	movs	r3, #26
200013fc:	e0a5      	b.n	2000154a <LOS_Log2+0x1ba>
C:\Users\nitin.deshpande\Documents\GitHub\microsemi-huawei-liteos\microsemi-liteos\mscc-huawei-wsp\sc-gd450i-board-test\Debug/../kernel/base/mem/los_multipledlinkhead.c:43 (discriminator 14)
200013fe:	687b      	ldr	r3, [r7, #4]
20001400:	f003 7300 	and.w	r3, r3, #33554432	; 0x2000000
20001404:	2b00      	cmp	r3, #0
20001406:	d001      	beq.n	2000140c <LOS_Log2+0x7c>
C:\Users\nitin.deshpande\Documents\GitHub\microsemi-huawei-liteos\microsemi-liteos\mscc-huawei-wsp\sc-gd450i-board-test\Debug/../kernel/base/mem/los_multipledlinkhead.c:43 (discriminator 17)
20001408:	2319      	movs	r3, #25
2000140a:	e09e      	b.n	2000154a <LOS_Log2+0x1ba>
C:\Users\nitin.deshpande\Documents\GitHub\microsemi-huawei-liteos\microsemi-liteos\mscc-huawei-wsp\sc-gd450i-board-test\Debug/../kernel/base/mem/los_multipledlinkhead.c:43 (discriminator 18)
2000140c:	2318      	movs	r3, #24
2000140e:	e09c      	b.n	2000154a <LOS_Log2+0x1ba>
C:\Users\nitin.deshpande\Documents\GitHub\microsemi-huawei-liteos\microsemi-liteos\mscc-huawei-wsp\sc-gd450i-board-test\Debug/../kernel/base/mem/los_multipledlinkhead.c:43 (discriminator 6)
20001410:	687b      	ldr	r3, [r7, #4]
20001412:	f403 0370 	and.w	r3, r3, #15728640	; 0xf00000
20001416:	2b00      	cmp	r3, #0
20001418:	d016      	beq.n	20001448 <LOS_Log2+0xb8>
C:\Users\nitin.deshpande\Documents\GitHub\microsemi-huawei-liteos\microsemi-liteos\mscc-huawei-wsp\sc-gd450i-board-test\Debug/../kernel/base/mem/los_multipledlinkhead.c:43 (discriminator 19)
2000141a:	687b      	ldr	r3, [r7, #4]
2000141c:	f403 0340 	and.w	r3, r3, #12582912	; 0xc00000
20001420:	2b00      	cmp	r3, #0
20001422:	d008      	beq.n	20001436 <LOS_Log2+0xa6>
C:\Users\nitin.deshpande\Documents\GitHub\microsemi-huawei-liteos\microsemi-liteos\mscc-huawei-wsp\sc-gd450i-board-test\Debug/../kernel/base/mem/los_multipledlinkhead.c:43 (discriminator 21)
20001424:	687b      	ldr	r3, [r7, #4]
20001426:	f403 0300 	and.w	r3, r3, #8388608	; 0x800000
2000142a:	2b00      	cmp	r3, #0
2000142c:	d001      	beq.n	20001432 <LOS_Log2+0xa2>
C:\Users\nitin.deshpande\Documents\GitHub\microsemi-huawei-liteos\microsemi-liteos\mscc-huawei-wsp\sc-gd450i-board-test\Debug/../kernel/base/mem/los_multipledlinkhead.c:43 (discriminator 23)
2000142e:	2317      	movs	r3, #23
20001430:	e08b      	b.n	2000154a <LOS_Log2+0x1ba>
C:\Users\nitin.deshpande\Documents\GitHub\microsemi-huawei-liteos\microsemi-liteos\mscc-huawei-wsp\sc-gd450i-board-test\Debug/../kernel/base/mem/los_multipledlinkhead.c:43 (discriminator 24)
20001432:	2316      	movs	r3, #22
20001434:	e089      	b.n	2000154a <LOS_Log2+0x1ba>
C:\Users\nitin.deshpande\Documents\GitHub\microsemi-huawei-liteos\microsemi-liteos\mscc-huawei-wsp\sc-gd450i-board-test\Debug/../kernel/base/mem/los_multipledlinkhead.c:43 (discriminator 22)
20001436:	687b      	ldr	r3, [r7, #4]
20001438:	f403 1300 	and.w	r3, r3, #2097152	; 0x200000
2000143c:	2b00      	cmp	r3, #0
2000143e:	d001      	beq.n	20001444 <LOS_Log2+0xb4>
C:\Users\nitin.deshpande\Documents\GitHub\microsemi-huawei-liteos\microsemi-liteos\mscc-huawei-wsp\sc-gd450i-board-test\Debug/../kernel/base/mem/los_multipledlinkhead.c:43 (discriminator 25)
20001440:	2315      	movs	r3, #21
20001442:	e082      	b.n	2000154a <LOS_Log2+0x1ba>
C:\Users\nitin.deshpande\Documents\GitHub\microsemi-huawei-liteos\microsemi-liteos\mscc-huawei-wsp\sc-gd450i-board-test\Debug/../kernel/base/mem/los_multipledlinkhead.c:43 (discriminator 26)
20001444:	2314      	movs	r3, #20
20001446:	e080      	b.n	2000154a <LOS_Log2+0x1ba>
C:\Users\nitin.deshpande\Documents\GitHub\microsemi-huawei-liteos\microsemi-liteos\mscc-huawei-wsp\sc-gd450i-board-test\Debug/../kernel/base/mem/los_multipledlinkhead.c:43 (discriminator 20)
20001448:	687b      	ldr	r3, [r7, #4]
2000144a:	f403 2340 	and.w	r3, r3, #786432	; 0xc0000
2000144e:	2b00      	cmp	r3, #0
20001450:	d008      	beq.n	20001464 <LOS_Log2+0xd4>
C:\Users\nitin.deshpande\Documents\GitHub\microsemi-huawei-liteos\microsemi-liteos\mscc-huawei-wsp\sc-gd450i-board-test\Debug/../kernel/base/mem/los_multipledlinkhead.c:43 (discriminator 27)
20001452:	687b      	ldr	r3, [r7, #4]
20001454:	f403 2300 	and.w	r3, r3, #524288	; 0x80000
20001458:	2b00      	cmp	r3, #0
2000145a:	d001      	beq.n	20001460 <LOS_Log2+0xd0>
C:\Users\nitin.deshpande\Documents\GitHub\microsemi-huawei-liteos\microsemi-liteos\mscc-huawei-wsp\sc-gd450i-board-test\Debug/../kernel/base/mem/los_multipledlinkhead.c:43 (discriminator 29)
2000145c:	2313      	movs	r3, #19
2000145e:	e074      	b.n	2000154a <LOS_Log2+0x1ba>
C:\Users\nitin.deshpande\Documents\GitHub\microsemi-huawei-liteos\microsemi-liteos\mscc-huawei-wsp\sc-gd450i-board-test\Debug/../kernel/base/mem/los_multipledlinkhead.c:43 (discriminator 30)
20001460:	2312      	movs	r3, #18
20001462:	e072      	b.n	2000154a <LOS_Log2+0x1ba>
C:\Users\nitin.deshpande\Documents\GitHub\microsemi-huawei-liteos\microsemi-liteos\mscc-huawei-wsp\sc-gd450i-board-test\Debug/../kernel/base/mem/los_multipledlinkhead.c:43 (discriminator 28)
20001464:	687b      	ldr	r3, [r7, #4]
20001466:	f403 3300 	and.w	r3, r3, #131072	; 0x20000
2000146a:	2b00      	cmp	r3, #0
2000146c:	d001      	beq.n	20001472 <LOS_Log2+0xe2>
C:\Users\nitin.deshpande\Documents\GitHub\microsemi-huawei-liteos\microsemi-liteos\mscc-huawei-wsp\sc-gd450i-board-test\Debug/../kernel/base/mem/los_multipledlinkhead.c:43 (discriminator 31)
2000146e:	2311      	movs	r3, #17
20001470:	e06b      	b.n	2000154a <LOS_Log2+0x1ba>
C:\Users\nitin.deshpande\Documents\GitHub\microsemi-huawei-liteos\microsemi-liteos\mscc-huawei-wsp\sc-gd450i-board-test\Debug/../kernel/base/mem/los_multipledlinkhead.c:43 (discriminator 32)
20001472:	2310      	movs	r3, #16
20001474:	e069      	b.n	2000154a <LOS_Log2+0x1ba>
C:\Users\nitin.deshpande\Documents\GitHub\microsemi-huawei-liteos\microsemi-liteos\mscc-huawei-wsp\sc-gd450i-board-test\Debug/../kernel/base/mem/los_multipledlinkhead.c:43 (discriminator 4)
20001476:	687b      	ldr	r3, [r7, #4]
20001478:	f403 437f 	and.w	r3, r3, #65280	; 0xff00
2000147c:	2b00      	cmp	r3, #0
2000147e:	d032      	beq.n	200014e6 <LOS_Log2+0x156>
C:\Users\nitin.deshpande\Documents\GitHub\microsemi-huawei-liteos\microsemi-liteos\mscc-huawei-wsp\sc-gd450i-board-test\Debug/../kernel/base/mem/los_multipledlinkhead.c:43 (discriminator 33)
20001480:	687b      	ldr	r3, [r7, #4]
20001482:	f403 4370 	and.w	r3, r3, #61440	; 0xf000
20001486:	2b00      	cmp	r3, #0
20001488:	d016      	beq.n	200014b8 <LOS_Log2+0x128>
C:\Users\nitin.deshpande\Documents\GitHub\microsemi-huawei-liteos\microsemi-liteos\mscc-huawei-wsp\sc-gd450i-board-test\Debug/../kernel/base/mem/los_multipledlinkhead.c:43 (discriminator 35)
2000148a:	687b      	ldr	r3, [r7, #4]
2000148c:	f403 4340 	and.w	r3, r3, #49152	; 0xc000
20001490:	2b00      	cmp	r3, #0
20001492:	d008      	beq.n	200014a6 <LOS_Log2+0x116>
C:\Users\nitin.deshpande\Documents\GitHub\microsemi-huawei-liteos\microsemi-liteos\mscc-huawei-wsp\sc-gd450i-board-test\Debug/../kernel/base/mem/los_multipledlinkhead.c:43 (discriminator 37)
20001494:	687b      	ldr	r3, [r7, #4]
20001496:	f403 4300 	and.w	r3, r3, #32768	; 0x8000
2000149a:	2b00      	cmp	r3, #0
2000149c:	d001      	beq.n	200014a2 <LOS_Log2+0x112>
C:\Users\nitin.deshpande\Documents\GitHub\microsemi-huawei-liteos\microsemi-liteos\mscc-huawei-wsp\sc-gd450i-board-test\Debug/../kernel/base/mem/los_multipledlinkhead.c:43 (discriminator 39)
2000149e:	230f      	movs	r3, #15
200014a0:	e053      	b.n	2000154a <LOS_Log2+0x1ba>
C:\Users\nitin.deshpande\Documents\GitHub\microsemi-huawei-liteos\microsemi-liteos\mscc-huawei-wsp\sc-gd450i-board-test\Debug/../kernel/base/mem/los_multipledlinkhead.c:43 (discriminator 40)
200014a2:	230e      	movs	r3, #14
200014a4:	e051      	b.n	2000154a <LOS_Log2+0x1ba>
C:\Users\nitin.deshpande\Documents\GitHub\microsemi-huawei-liteos\microsemi-liteos\mscc-huawei-wsp\sc-gd450i-board-test\Debug/../kernel/base/mem/los_multipledlinkhead.c:43 (discriminator 38)
200014a6:	687b      	ldr	r3, [r7, #4]
200014a8:	f403 5300 	and.w	r3, r3, #8192	; 0x2000
200014ac:	2b00      	cmp	r3, #0
200014ae:	d001      	beq.n	200014b4 <LOS_Log2+0x124>
C:\Users\nitin.deshpande\Documents\GitHub\microsemi-huawei-liteos\microsemi-liteos\mscc-huawei-wsp\sc-gd450i-board-test\Debug/../kernel/base/mem/los_multipledlinkhead.c:43 (discriminator 41)
200014b0:	230d      	movs	r3, #13
200014b2:	e04a      	b.n	2000154a <LOS_Log2+0x1ba>
C:\Users\nitin.deshpande\Documents\GitHub\microsemi-huawei-liteos\microsemi-liteos\mscc-huawei-wsp\sc-gd450i-board-test\Debug/../kernel/base/mem/los_multipledlinkhead.c:43 (discriminator 42)
200014b4:	230c      	movs	r3, #12
200014b6:	e048      	b.n	2000154a <LOS_Log2+0x1ba>
C:\Users\nitin.deshpande\Documents\GitHub\microsemi-huawei-liteos\microsemi-liteos\mscc-huawei-wsp\sc-gd450i-board-test\Debug/../kernel/base/mem/los_multipledlinkhead.c:43 (discriminator 36)
200014b8:	687b      	ldr	r3, [r7, #4]
200014ba:	f403 6340 	and.w	r3, r3, #3072	; 0xc00
200014be:	2b00      	cmp	r3, #0
200014c0:	d008      	beq.n	200014d4 <LOS_Log2+0x144>
C:\Users\nitin.deshpande\Documents\GitHub\microsemi-huawei-liteos\microsemi-liteos\mscc-huawei-wsp\sc-gd450i-board-test\Debug/../kernel/base/mem/los_multipledlinkhead.c:43 (discriminator 43)
200014c2:	687b      	ldr	r3, [r7, #4]
200014c4:	f403 6300 	and.w	r3, r3, #2048	; 0x800
200014c8:	2b00      	cmp	r3, #0
200014ca:	d001      	beq.n	200014d0 <LOS_Log2+0x140>
C:\Users\nitin.deshpande\Documents\GitHub\microsemi-huawei-liteos\microsemi-liteos\mscc-huawei-wsp\sc-gd450i-board-test\Debug/../kernel/base/mem/los_multipledlinkhead.c:43 (discriminator 45)
200014cc:	230b      	movs	r3, #11
200014ce:	e03c      	b.n	2000154a <LOS_Log2+0x1ba>
C:\Users\nitin.deshpande\Documents\GitHub\microsemi-huawei-liteos\microsemi-liteos\mscc-huawei-wsp\sc-gd450i-board-test\Debug/../kernel/base/mem/los_multipledlinkhead.c:43 (discriminator 46)
200014d0:	230a      	movs	r3, #10
200014d2:	e03a      	b.n	2000154a <LOS_Log2+0x1ba>
C:\Users\nitin.deshpande\Documents\GitHub\microsemi-huawei-liteos\microsemi-liteos\mscc-huawei-wsp\sc-gd450i-board-test\Debug/../kernel/base/mem/los_multipledlinkhead.c:43 (discriminator 44)
200014d4:	687b      	ldr	r3, [r7, #4]
200014d6:	f403 7300 	and.w	r3, r3, #512	; 0x200
200014da:	2b00      	cmp	r3, #0
200014dc:	d001      	beq.n	200014e2 <LOS_Log2+0x152>
C:\Users\nitin.deshpande\Documents\GitHub\microsemi-huawei-liteos\microsemi-liteos\mscc-huawei-wsp\sc-gd450i-board-test\Debug/../kernel/base/mem/los_multipledlinkhead.c:43 (discriminator 47)
200014de:	2309      	movs	r3, #9
200014e0:	e033      	b.n	2000154a <LOS_Log2+0x1ba>
C:\Users\nitin.deshpande\Documents\GitHub\microsemi-huawei-liteos\microsemi-liteos\mscc-huawei-wsp\sc-gd450i-board-test\Debug/../kernel/base/mem/los_multipledlinkhead.c:43 (discriminator 48)
200014e2:	2308      	movs	r3, #8
200014e4:	e031      	b.n	2000154a <LOS_Log2+0x1ba>
C:\Users\nitin.deshpande\Documents\GitHub\microsemi-huawei-liteos\microsemi-liteos\mscc-huawei-wsp\sc-gd450i-board-test\Debug/../kernel/base/mem/los_multipledlinkhead.c:43 (discriminator 34)
200014e6:	687b      	ldr	r3, [r7, #4]
200014e8:	f003 03f0 	and.w	r3, r3, #240	; 0xf0
200014ec:	2b00      	cmp	r3, #0
200014ee:	d016      	beq.n	2000151e <LOS_Log2+0x18e>
C:\Users\nitin.deshpande\Documents\GitHub\microsemi-huawei-liteos\microsemi-liteos\mscc-huawei-wsp\sc-gd450i-board-test\Debug/../kernel/base/mem/los_multipledlinkhead.c:43 (discriminator 49)
200014f0:	687b      	ldr	r3, [r7, #4]
200014f2:	f003 03c0 	and.w	r3, r3, #192	; 0xc0
200014f6:	2b00      	cmp	r3, #0
200014f8:	d008      	beq.n	2000150c <LOS_Log2+0x17c>
C:\Users\nitin.deshpande\Documents\GitHub\microsemi-huawei-liteos\microsemi-liteos\mscc-huawei-wsp\sc-gd450i-board-test\Debug/../kernel/base/mem/los_multipledlinkhead.c:43 (discriminator 51)
200014fa:	687b      	ldr	r3, [r7, #4]
200014fc:	f003 0380 	and.w	r3, r3, #128	; 0x80
20001500:	2b00      	cmp	r3, #0
20001502:	d001      	beq.n	20001508 <LOS_Log2+0x178>
C:\Users\nitin.deshpande\Documents\GitHub\microsemi-huawei-liteos\microsemi-liteos\mscc-huawei-wsp\sc-gd450i-board-test\Debug/../kernel/base/mem/los_multipledlinkhead.c:43 (discriminator 53)
20001504:	2307      	movs	r3, #7
20001506:	e020      	b.n	2000154a <LOS_Log2+0x1ba>
C:\Users\nitin.deshpande\Documents\GitHub\microsemi-huawei-liteos\microsemi-liteos\mscc-huawei-wsp\sc-gd450i-board-test\Debug/../kernel/base/mem/los_multipledlinkhead.c:43 (discriminator 54)
20001508:	2306      	movs	r3, #6
2000150a:	e01e      	b.n	2000154a <LOS_Log2+0x1ba>
C:\Users\nitin.deshpande\Documents\GitHub\microsemi-huawei-liteos\microsemi-liteos\mscc-huawei-wsp\sc-gd450i-board-test\Debug/../kernel/base/mem/los_multipledlinkhead.c:43 (discriminator 52)
2000150c:	687b      	ldr	r3, [r7, #4]
2000150e:	f003 0320 	and.w	r3, r3, #32
20001512:	2b00      	cmp	r3, #0
20001514:	d001      	beq.n	2000151a <LOS_Log2+0x18a>
C:\Users\nitin.deshpande\Documents\GitHub\microsemi-huawei-liteos\microsemi-liteos\mscc-huawei-wsp\sc-gd450i-board-test\Debug/../kernel/base/mem/los_multipledlinkhead.c:43 (discriminator 55)
20001516:	2305      	movs	r3, #5
20001518:	e017      	b.n	2000154a <LOS_Log2+0x1ba>
C:\Users\nitin.deshpande\Documents\GitHub\microsemi-huawei-liteos\microsemi-liteos\mscc-huawei-wsp\sc-gd450i-board-test\Debug/../kernel/base/mem/los_multipledlinkhead.c:43 (discriminator 56)
2000151a:	2304      	movs	r3, #4
2000151c:	e015      	b.n	2000154a <LOS_Log2+0x1ba>
C:\Users\nitin.deshpande\Documents\GitHub\microsemi-huawei-liteos\microsemi-liteos\mscc-huawei-wsp\sc-gd450i-board-test\Debug/../kernel/base/mem/los_multipledlinkhead.c:43 (discriminator 50)
2000151e:	687b      	ldr	r3, [r7, #4]
20001520:	f003 030c 	and.w	r3, r3, #12
20001524:	2b00      	cmp	r3, #0
20001526:	d008      	beq.n	2000153a <LOS_Log2+0x1aa>
C:\Users\nitin.deshpande\Documents\GitHub\microsemi-huawei-liteos\microsemi-liteos\mscc-huawei-wsp\sc-gd450i-board-test\Debug/../kernel/base/mem/los_multipledlinkhead.c:43 (discriminator 57)
20001528:	687b      	ldr	r3, [r7, #4]
2000152a:	f003 0308 	and.w	r3, r3, #8
2000152e:	2b00      	cmp	r3, #0
20001530:	d001      	beq.n	20001536 <LOS_Log2+0x1a6>
C:\Users\nitin.deshpande\Documents\GitHub\microsemi-huawei-liteos\microsemi-liteos\mscc-huawei-wsp\sc-gd450i-board-test\Debug/../kernel/base/mem/los_multipledlinkhead.c:43 (discriminator 59)
20001532:	2303      	movs	r3, #3
20001534:	e009      	b.n	2000154a <LOS_Log2+0x1ba>
C:\Users\nitin.deshpande\Documents\GitHub\microsemi-huawei-liteos\microsemi-liteos\mscc-huawei-wsp\sc-gd450i-board-test\Debug/../kernel/base/mem/los_multipledlinkhead.c:43 (discriminator 60)
20001536:	2302      	movs	r3, #2
20001538:	e007      	b.n	2000154a <LOS_Log2+0x1ba>
C:\Users\nitin.deshpande\Documents\GitHub\microsemi-huawei-liteos\microsemi-liteos\mscc-huawei-wsp\sc-gd450i-board-test\Debug/../kernel/base/mem/los_multipledlinkhead.c:43 (discriminator 58)
2000153a:	687b      	ldr	r3, [r7, #4]
2000153c:	f003 0302 	and.w	r3, r3, #2
20001540:	2b00      	cmp	r3, #0
20001542:	d001      	beq.n	20001548 <LOS_Log2+0x1b8>
C:\Users\nitin.deshpande\Documents\GitHub\microsemi-huawei-liteos\microsemi-liteos\mscc-huawei-wsp\sc-gd450i-board-test\Debug/../kernel/base/mem/los_multipledlinkhead.c:43 (discriminator 61)
20001544:	2301      	movs	r3, #1
20001546:	e000      	b.n	2000154a <LOS_Log2+0x1ba>
C:\Users\nitin.deshpande\Documents\GitHub\microsemi-huawei-liteos\microsemi-liteos\mscc-huawei-wsp\sc-gd450i-board-test\Debug/../kernel/base/mem/los_multipledlinkhead.c:43 (discriminator 62)
20001548:	2300      	movs	r3, #0
C:\Users\nitin.deshpande\Documents\GitHub\microsemi-huawei-liteos\microsemi-liteos\mscc-huawei-wsp\sc-gd450i-board-test\Debug/../kernel/base/mem/los_multipledlinkhead.c:77
                                            IF_ELSE(0x00000020, BIT_NUM(5), BIT_NUM(4))), \
                                    IF_ELSE(0x0000000c, \
                                            IF_ELSE(0x00000008, BIT_NUM(3), BIT_NUM(2)), \
                                            IF_ELSE(0x00000002, BIT_NUM(1), BIT_NUM(0)))))))\

}
2000154a:	4618      	mov	r0, r3
2000154c:	370c      	adds	r7, #12
2000154e:	46bd      	mov	sp, r7
20001550:	f85d 7b04 	ldr.w	r7, [sp], #4
20001554:	4770      	bx	lr
20001556:	bf00      	nop
20001558:	7fff0000 	.word	0x7fff0000

2000155c <LOS_DLnkInitMultiHead>:
LOS_DLnkInitMultiHead():
C:\Users\nitin.deshpande\Documents\GitHub\microsemi-huawei-liteos\microsemi-liteos\mscc-huawei-wsp\sc-gd450i-board-test\Debug/../kernel/base/mem/los_multipledlinkhead.c:80

LITE_OS_SEC_TEXT_INIT VOID LOS_DLnkInitMultiHead(VOID *pHeadAddr)
{
2000155c:	b580      	push	{r7, lr}
2000155e:	b086      	sub	sp, #24
20001560:	af00      	add	r7, sp, #0
20001562:	6078      	str	r0, [r7, #4]
C:\Users\nitin.deshpande\Documents\GitHub\microsemi-huawei-liteos\microsemi-liteos\mscc-huawei-wsp\sc-gd450i-board-test\Debug/../kernel/base/mem/los_multipledlinkhead.c:81
    LOS_MULTIPLE_DLNK_HEAD *head = (LOS_MULTIPLE_DLNK_HEAD *)pHeadAddr;
20001564:	687b      	ldr	r3, [r7, #4]
20001566:	60fb      	str	r3, [r7, #12]
C:\Users\nitin.deshpande\Documents\GitHub\microsemi-huawei-liteos\microsemi-liteos\mscc-huawei-wsp\sc-gd450i-board-test\Debug/../kernel/base/mem/los_multipledlinkhead.c:82
    LOS_DL_LIST *pstListHead = head->stListHead;
20001568:	68fb      	ldr	r3, [r7, #12]
2000156a:	617b      	str	r3, [r7, #20]
C:\Users\nitin.deshpande\Documents\GitHub\microsemi-huawei-liteos\microsemi-liteos\mscc-huawei-wsp\sc-gd450i-board-test\Debug/../kernel/base/mem/los_multipledlinkhead.c:85
    UINT32 i;

    for (i = 0; i < OS_MULTI_DLNK_NUM; ++i, ++pstListHead)
2000156c:	2300      	movs	r3, #0
2000156e:	613b      	str	r3, [r7, #16]
20001570:	e008      	b.n	20001584 <LOS_DLnkInitMultiHead+0x28>
C:\Users\nitin.deshpande\Documents\GitHub\microsemi-huawei-liteos\microsemi-liteos\mscc-huawei-wsp\sc-gd450i-board-test\Debug/../kernel/base/mem/los_multipledlinkhead.c:87 (discriminator 3)
    {
        LOS_ListInit(pstListHead);
20001572:	6978      	ldr	r0, [r7, #20]
20001574:	f7ff fefc 	bl	20001370 <LOS_ListInit>
C:\Users\nitin.deshpande\Documents\GitHub\microsemi-huawei-liteos\microsemi-liteos\mscc-huawei-wsp\sc-gd450i-board-test\Debug/../kernel/base/mem/los_multipledlinkhead.c:85 (discriminator 3)
    for (i = 0; i < OS_MULTI_DLNK_NUM; ++i, ++pstListHead)
20001578:	693b      	ldr	r3, [r7, #16]
2000157a:	3301      	adds	r3, #1
2000157c:	613b      	str	r3, [r7, #16]
2000157e:	697b      	ldr	r3, [r7, #20]
20001580:	3308      	adds	r3, #8
20001582:	617b      	str	r3, [r7, #20]
C:\Users\nitin.deshpande\Documents\GitHub\microsemi-huawei-liteos\microsemi-liteos\mscc-huawei-wsp\sc-gd450i-board-test\Debug/../kernel/base/mem/los_multipledlinkhead.c:85 (discriminator 1)
20001584:	693b      	ldr	r3, [r7, #16]
20001586:	2b1a      	cmp	r3, #26
20001588:	d9f3      	bls.n	20001572 <LOS_DLnkInitMultiHead+0x16>
C:\Users\nitin.deshpande\Documents\GitHub\microsemi-huawei-liteos\microsemi-liteos\mscc-huawei-wsp\sc-gd450i-board-test\Debug/../kernel/base/mem/los_multipledlinkhead.c:89
    }
}
2000158a:	bf00      	nop
2000158c:	3718      	adds	r7, #24
2000158e:	46bd      	mov	sp, r7
20001590:	bd80      	pop	{r7, pc}

20001592 <LOS_DLnkMultiHead>:
LOS_DLnkMultiHead():
C:\Users\nitin.deshpande\Documents\GitHub\microsemi-huawei-liteos\microsemi-liteos\mscc-huawei-wsp\sc-gd450i-board-test\Debug/../kernel/base/mem/los_multipledlinkhead.c:92

LITE_OS_SEC_TEXT_MINOR LOS_DL_LIST *LOS_DLnkMultiHead(VOID *pHeadAddr, UINT32 uwSize)
{
20001592:	b580      	push	{r7, lr}
20001594:	b084      	sub	sp, #16
20001596:	af00      	add	r7, sp, #0
20001598:	6078      	str	r0, [r7, #4]
2000159a:	6039      	str	r1, [r7, #0]
C:\Users\nitin.deshpande\Documents\GitHub\microsemi-huawei-liteos\microsemi-liteos\mscc-huawei-wsp\sc-gd450i-board-test\Debug/../kernel/base/mem/los_multipledlinkhead.c:93
    LOS_MULTIPLE_DLNK_HEAD *head = (LOS_MULTIPLE_DLNK_HEAD *)pHeadAddr;
2000159c:	687b      	ldr	r3, [r7, #4]
2000159e:	60bb      	str	r3, [r7, #8]
C:\Users\nitin.deshpande\Documents\GitHub\microsemi-huawei-liteos\microsemi-liteos\mscc-huawei-wsp\sc-gd450i-board-test\Debug/../kernel/base/mem/los_multipledlinkhead.c:94
    UINT32 idx =  LOS_Log2(uwSize);
200015a0:	6838      	ldr	r0, [r7, #0]
200015a2:	f7ff fef5 	bl	20001390 <LOS_Log2>
200015a6:	60f8      	str	r0, [r7, #12]
C:\Users\nitin.deshpande\Documents\GitHub\microsemi-huawei-liteos\microsemi-liteos\mscc-huawei-wsp\sc-gd450i-board-test\Debug/../kernel/base/mem/los_multipledlinkhead.c:96

    if(idx > OS_MAX_MULTI_DLNK_LOG2)
200015a8:	68fb      	ldr	r3, [r7, #12]
200015aa:	2b1e      	cmp	r3, #30
200015ac:	d901      	bls.n	200015b2 <LOS_DLnkMultiHead+0x20>
C:\Users\nitin.deshpande\Documents\GitHub\microsemi-huawei-liteos\microsemi-liteos\mscc-huawei-wsp\sc-gd450i-board-test\Debug/../kernel/base/mem/los_multipledlinkhead.c:98
    {
        return (LOS_DL_LIST *)NULL;
200015ae:	2300      	movs	r3, #0
200015b0:	e00b      	b.n	200015ca <LOS_DLnkMultiHead+0x38>
C:\Users\nitin.deshpande\Documents\GitHub\microsemi-huawei-liteos\microsemi-liteos\mscc-huawei-wsp\sc-gd450i-board-test\Debug/../kernel/base/mem/los_multipledlinkhead.c:101
    }

    if(idx <= OS_MIN_MULTI_DLNK_LOG2)
200015b2:	68fb      	ldr	r3, [r7, #12]
200015b4:	2b04      	cmp	r3, #4
200015b6:	d801      	bhi.n	200015bc <LOS_DLnkMultiHead+0x2a>
C:\Users\nitin.deshpande\Documents\GitHub\microsemi-huawei-liteos\microsemi-liteos\mscc-huawei-wsp\sc-gd450i-board-test\Debug/../kernel/base/mem/los_multipledlinkhead.c:103
    {
        idx = OS_MIN_MULTI_DLNK_LOG2;
200015b8:	2304      	movs	r3, #4
200015ba:	60fb      	str	r3, [r7, #12]
C:\Users\nitin.deshpande\Documents\GitHub\microsemi-huawei-liteos\microsemi-liteos\mscc-huawei-wsp\sc-gd450i-board-test\Debug/../kernel/base/mem/los_multipledlinkhead.c:106
    }

    return head->stListHead + (idx - OS_MIN_MULTI_DLNK_LOG2);
200015bc:	68ba      	ldr	r2, [r7, #8]
200015be:	68fb      	ldr	r3, [r7, #12]
200015c0:	f103 5300 	add.w	r3, r3, #536870912	; 0x20000000
200015c4:	3b04      	subs	r3, #4
200015c6:	00db      	lsls	r3, r3, #3
200015c8:	4413      	add	r3, r2
C:\Users\nitin.deshpande\Documents\GitHub\microsemi-huawei-liteos\microsemi-liteos\mscc-huawei-wsp\sc-gd450i-board-test\Debug/../kernel/base/mem/los_multipledlinkhead.c:107
}
200015ca:	4618      	mov	r0, r3
200015cc:	3710      	adds	r7, #16
200015ce:	46bd      	mov	sp, r7
200015d0:	bd80      	pop	{r7, pc}

200015d2 <LOS_ListInit>:
LOS_ListInit():
C:\Users\nitin.deshpande\Documents\GitHub\microsemi-huawei-liteos\microsemi-liteos\mscc-huawei-wsp\sc-gd450i-board-test\kernel\include/los_list.h:81
{
200015d2:	b480      	push	{r7}
200015d4:	b083      	sub	sp, #12
200015d6:	af00      	add	r7, sp, #0
200015d8:	6078      	str	r0, [r7, #4]
C:\Users\nitin.deshpande\Documents\GitHub\microsemi-huawei-liteos\microsemi-liteos\mscc-huawei-wsp\sc-gd450i-board-test\kernel\include/los_list.h:82
    pstList->pstNext = pstList;
200015da:	687b      	ldr	r3, [r7, #4]
200015dc:	687a      	ldr	r2, [r7, #4]
200015de:	605a      	str	r2, [r3, #4]
C:\Users\nitin.deshpande\Documents\GitHub\microsemi-huawei-liteos\microsemi-liteos\mscc-huawei-wsp\sc-gd450i-board-test\kernel\include/los_list.h:83
    pstList->pstPrev = pstList;
200015e0:	687b      	ldr	r3, [r7, #4]
200015e2:	687a      	ldr	r2, [r7, #4]
200015e4:	601a      	str	r2, [r3, #0]
C:\Users\nitin.deshpande\Documents\GitHub\microsemi-huawei-liteos\microsemi-liteos\mscc-huawei-wsp\sc-gd450i-board-test\kernel\include/los_list.h:84
}
200015e6:	bf00      	nop
200015e8:	370c      	adds	r7, #12
200015ea:	46bd      	mov	sp, r7
200015ec:	f85d 7b04 	ldr.w	r7, [sp], #4
200015f0:	4770      	bx	lr

200015f2 <LOS_ListAdd>:
LOS_ListAdd():
C:\Users\nitin.deshpande\Documents\GitHub\microsemi-huawei-liteos\microsemi-liteos\mscc-huawei-wsp\sc-gd450i-board-test\kernel\include/los_list.h:130
{
200015f2:	b480      	push	{r7}
200015f4:	b083      	sub	sp, #12
200015f6:	af00      	add	r7, sp, #0
200015f8:	6078      	str	r0, [r7, #4]
200015fa:	6039      	str	r1, [r7, #0]
C:\Users\nitin.deshpande\Documents\GitHub\microsemi-huawei-liteos\microsemi-liteos\mscc-huawei-wsp\sc-gd450i-board-test\kernel\include/los_list.h:131
    pstNode->pstNext = pstList->pstNext;
200015fc:	687b      	ldr	r3, [r7, #4]
200015fe:	685a      	ldr	r2, [r3, #4]
20001600:	683b      	ldr	r3, [r7, #0]
20001602:	605a      	str	r2, [r3, #4]
C:\Users\nitin.deshpande\Documents\GitHub\microsemi-huawei-liteos\microsemi-liteos\mscc-huawei-wsp\sc-gd450i-board-test\kernel\include/los_list.h:132
    pstNode->pstPrev = pstList;
20001604:	683b      	ldr	r3, [r7, #0]
20001606:	687a      	ldr	r2, [r7, #4]
20001608:	601a      	str	r2, [r3, #0]
C:\Users\nitin.deshpande\Documents\GitHub\microsemi-huawei-liteos\microsemi-liteos\mscc-huawei-wsp\sc-gd450i-board-test\kernel\include/los_list.h:133
    pstList->pstNext->pstPrev = pstNode;
2000160a:	687b      	ldr	r3, [r7, #4]
2000160c:	685b      	ldr	r3, [r3, #4]
2000160e:	683a      	ldr	r2, [r7, #0]
20001610:	601a      	str	r2, [r3, #0]
C:\Users\nitin.deshpande\Documents\GitHub\microsemi-huawei-liteos\microsemi-liteos\mscc-huawei-wsp\sc-gd450i-board-test\kernel\include/los_list.h:134
    pstList->pstNext = pstNode;
20001612:	687b      	ldr	r3, [r7, #4]
20001614:	683a      	ldr	r2, [r7, #0]
20001616:	605a      	str	r2, [r3, #4]
C:\Users\nitin.deshpande\Documents\GitHub\microsemi-huawei-liteos\microsemi-liteos\mscc-huawei-wsp\sc-gd450i-board-test\kernel\include/los_list.h:135
}
20001618:	bf00      	nop
2000161a:	370c      	adds	r7, #12
2000161c:	46bd      	mov	sp, r7
2000161e:	f85d 7b04 	ldr.w	r7, [sp], #4
20001622:	4770      	bx	lr

20001624 <LOS_ListTailInsert>:
LOS_ListTailInsert():
C:\Users\nitin.deshpande\Documents\GitHub\microsemi-huawei-liteos\microsemi-liteos\mscc-huawei-wsp\sc-gd450i-board-test\kernel\include/los_list.h:158
{
20001624:	b580      	push	{r7, lr}
20001626:	b082      	sub	sp, #8
20001628:	af00      	add	r7, sp, #0
2000162a:	6078      	str	r0, [r7, #4]
2000162c:	6039      	str	r1, [r7, #0]
C:\Users\nitin.deshpande\Documents\GitHub\microsemi-huawei-liteos\microsemi-liteos\mscc-huawei-wsp\sc-gd450i-board-test\kernel\include/los_list.h:159
    LOS_ListAdd(pstList->pstPrev, pstNode);
2000162e:	687b      	ldr	r3, [r7, #4]
20001630:	681b      	ldr	r3, [r3, #0]
20001632:	6839      	ldr	r1, [r7, #0]
20001634:	4618      	mov	r0, r3
20001636:	f7ff ffdc 	bl	200015f2 <LOS_ListAdd>
C:\Users\nitin.deshpande\Documents\GitHub\microsemi-huawei-liteos\microsemi-liteos\mscc-huawei-wsp\sc-gd450i-board-test\kernel\include/los_list.h:160
}
2000163a:	bf00      	nop
2000163c:	3708      	adds	r7, #8
2000163e:	46bd      	mov	sp, r7
20001640:	bd80      	pop	{r7, pc}
	...

20001644 <osMuxInit>:
osMuxInit():
C:\Users\nitin.deshpande\Documents\GitHub\microsemi-huawei-liteos\microsemi-liteos\mscc-huawei-wsp\sc-gd450i-board-test\Debug/../kernel/base/ipc/los_mux.c:63
 Input        : None
 Output       : None
 Return       : LOS_OK on success ,or error code on failure
 *****************************************************************************/
LITE_OS_SEC_TEXT_INIT UINT32 osMuxInit(VOID)
{
20001644:	b580      	push	{r7, lr}
20001646:	b082      	sub	sp, #8
20001648:	af00      	add	r7, sp, #0
C:\Users\nitin.deshpande\Documents\GitHub\microsemi-huawei-liteos\microsemi-liteos\mscc-huawei-wsp\sc-gd450i-board-test\Debug/../kernel/base/ipc/los_mux.c:67
    MUX_CB_S *pstMuxNode;
    UINT32   uwIndex;

    LOS_ListInit(&g_stUnusedMuxList);
2000164a:	481a      	ldr	r0, [pc, #104]	; (200016b4 <osMuxInit+0x70>)
2000164c:	f7ff ffc1 	bl	200015d2 <LOS_ListInit>
C:\Users\nitin.deshpande\Documents\GitHub\microsemi-huawei-liteos\microsemi-liteos\mscc-huawei-wsp\sc-gd450i-board-test\Debug/../kernel/base/ipc/los_mux.c:70
    if (LOSCFG_BASE_IPC_MUX_LIMIT > 0)   /*lint !e506*/
    {
        g_pstAllMux = (MUX_CB_S *)LOS_MemAlloc(m_aucSysMem0, (LOSCFG_BASE_IPC_MUX_LIMIT * sizeof(MUX_CB_S)));
20001650:	4b19      	ldr	r3, [pc, #100]	; (200016b8 <osMuxInit+0x74>)
20001652:	681b      	ldr	r3, [r3, #0]
20001654:	21f0      	movs	r1, #240	; 0xf0
20001656:	4618      	mov	r0, r3
20001658:	f7ff fd8a 	bl	20001170 <LOS_MemAlloc>
2000165c:	4602      	mov	r2, r0
2000165e:	4b17      	ldr	r3, [pc, #92]	; (200016bc <osMuxInit+0x78>)
20001660:	601a      	str	r2, [r3, #0]
C:\Users\nitin.deshpande\Documents\GitHub\microsemi-huawei-liteos\microsemi-liteos\mscc-huawei-wsp\sc-gd450i-board-test\Debug/../kernel/base/ipc/los_mux.c:71
        if (NULL == g_pstAllMux)
20001662:	4b16      	ldr	r3, [pc, #88]	; (200016bc <osMuxInit+0x78>)
20001664:	681b      	ldr	r3, [r3, #0]
20001666:	2b00      	cmp	r3, #0
20001668:	d101      	bne.n	2000166e <osMuxInit+0x2a>
C:\Users\nitin.deshpande\Documents\GitHub\microsemi-huawei-liteos\microsemi-liteos\mscc-huawei-wsp\sc-gd450i-board-test\Debug/../kernel/base/ipc/los_mux.c:73
        {
            return LOS_ERRNO_MUX_NO_MEMORY;
2000166a:	4b15      	ldr	r3, [pc, #84]	; (200016c0 <osMuxInit+0x7c>)
2000166c:	e01e      	b.n	200016ac <osMuxInit+0x68>
C:\Users\nitin.deshpande\Documents\GitHub\microsemi-huawei-liteos\microsemi-liteos\mscc-huawei-wsp\sc-gd450i-board-test\Debug/../kernel/base/ipc/los_mux.c:76
        }

        for (uwIndex = 0; uwIndex < LOSCFG_BASE_IPC_MUX_LIMIT; uwIndex++)
2000166e:	2300      	movs	r3, #0
20001670:	607b      	str	r3, [r7, #4]
20001672:	e017      	b.n	200016a4 <osMuxInit+0x60>
C:\Users\nitin.deshpande\Documents\GitHub\microsemi-huawei-liteos\microsemi-liteos\mscc-huawei-wsp\sc-gd450i-board-test\Debug/../kernel/base/ipc/los_mux.c:78 (discriminator 3)
        {
            pstMuxNode              = ((MUX_CB_S *)g_pstAllMux) + uwIndex;
20001674:	4b11      	ldr	r3, [pc, #68]	; (200016bc <osMuxInit+0x78>)
20001676:	6819      	ldr	r1, [r3, #0]
20001678:	687a      	ldr	r2, [r7, #4]
2000167a:	4613      	mov	r3, r2
2000167c:	005b      	lsls	r3, r3, #1
2000167e:	4413      	add	r3, r2
20001680:	00db      	lsls	r3, r3, #3
20001682:	440b      	add	r3, r1
20001684:	603b      	str	r3, [r7, #0]
C:\Users\nitin.deshpande\Documents\GitHub\microsemi-huawei-liteos\microsemi-liteos\mscc-huawei-wsp\sc-gd450i-board-test\Debug/../kernel/base/ipc/los_mux.c:79 (discriminator 3)
            pstMuxNode->ucMuxID     = uwIndex;
20001686:	683b      	ldr	r3, [r7, #0]
20001688:	687a      	ldr	r2, [r7, #4]
2000168a:	605a      	str	r2, [r3, #4]
C:\Users\nitin.deshpande\Documents\GitHub\microsemi-huawei-liteos\microsemi-liteos\mscc-huawei-wsp\sc-gd450i-board-test\Debug/../kernel/base/ipc/los_mux.c:80 (discriminator 3)
            pstMuxNode->ucMuxStat   = OS_MUX_UNUSED;
2000168c:	683b      	ldr	r3, [r7, #0]
2000168e:	2200      	movs	r2, #0
20001690:	701a      	strb	r2, [r3, #0]
C:\Users\nitin.deshpande\Documents\GitHub\microsemi-huawei-liteos\microsemi-liteos\mscc-huawei-wsp\sc-gd450i-board-test\Debug/../kernel/base/ipc/los_mux.c:81 (discriminator 3)
            LOS_ListTailInsert(&g_stUnusedMuxList, &pstMuxNode->stMuxList);
20001692:	683b      	ldr	r3, [r7, #0]
20001694:	3308      	adds	r3, #8
20001696:	4619      	mov	r1, r3
20001698:	4806      	ldr	r0, [pc, #24]	; (200016b4 <osMuxInit+0x70>)
2000169a:	f7ff ffc3 	bl	20001624 <LOS_ListTailInsert>
C:\Users\nitin.deshpande\Documents\GitHub\microsemi-huawei-liteos\microsemi-liteos\mscc-huawei-wsp\sc-gd450i-board-test\Debug/../kernel/base/ipc/los_mux.c:76 (discriminator 3)
        for (uwIndex = 0; uwIndex < LOSCFG_BASE_IPC_MUX_LIMIT; uwIndex++)
2000169e:	687b      	ldr	r3, [r7, #4]
200016a0:	3301      	adds	r3, #1
200016a2:	607b      	str	r3, [r7, #4]
C:\Users\nitin.deshpande\Documents\GitHub\microsemi-huawei-liteos\microsemi-liteos\mscc-huawei-wsp\sc-gd450i-board-test\Debug/../kernel/base/ipc/los_mux.c:76 (discriminator 1)
200016a4:	687b      	ldr	r3, [r7, #4]
200016a6:	2b09      	cmp	r3, #9
200016a8:	d9e4      	bls.n	20001674 <osMuxInit+0x30>
C:\Users\nitin.deshpande\Documents\GitHub\microsemi-huawei-liteos\microsemi-liteos\mscc-huawei-wsp\sc-gd450i-board-test\Debug/../kernel/base/ipc/los_mux.c:84
        }
    }
    return LOS_OK;
200016aa:	2300      	movs	r3, #0
C:\Users\nitin.deshpande\Documents\GitHub\microsemi-huawei-liteos\microsemi-liteos\mscc-huawei-wsp\sc-gd450i-board-test\Debug/../kernel/base/ipc/los_mux.c:85
}
200016ac:	4618      	mov	r0, r3
200016ae:	3708      	adds	r7, #8
200016b0:	46bd      	mov	sp, r7
200016b2:	bd80      	pop	{r7, pc}
200016b4:	20004850 	.word	0x20004850
200016b8:	20004808 	.word	0x20004808
200016bc:	2000484c 	.word	0x2000484c
200016c0:	02001d00 	.word	0x02001d00

200016c4 <LOS_ListInit>:
LOS_ListInit():
C:\Users\nitin.deshpande\Documents\GitHub\microsemi-huawei-liteos\microsemi-liteos\mscc-huawei-wsp\sc-gd450i-board-test\kernel\include/los_list.h:81
{
200016c4:	b480      	push	{r7}
200016c6:	b083      	sub	sp, #12
200016c8:	af00      	add	r7, sp, #0
200016ca:	6078      	str	r0, [r7, #4]
C:\Users\nitin.deshpande\Documents\GitHub\microsemi-huawei-liteos\microsemi-liteos\mscc-huawei-wsp\sc-gd450i-board-test\kernel\include/los_list.h:82
    pstList->pstNext = pstList;
200016cc:	687b      	ldr	r3, [r7, #4]
200016ce:	687a      	ldr	r2, [r7, #4]
200016d0:	605a      	str	r2, [r3, #4]
C:\Users\nitin.deshpande\Documents\GitHub\microsemi-huawei-liteos\microsemi-liteos\mscc-huawei-wsp\sc-gd450i-board-test\kernel\include/los_list.h:83
    pstList->pstPrev = pstList;
200016d2:	687b      	ldr	r3, [r7, #4]
200016d4:	687a      	ldr	r2, [r7, #4]
200016d6:	601a      	str	r2, [r3, #0]
C:\Users\nitin.deshpande\Documents\GitHub\microsemi-huawei-liteos\microsemi-liteos\mscc-huawei-wsp\sc-gd450i-board-test\kernel\include/los_list.h:84
}
200016d8:	bf00      	nop
200016da:	370c      	adds	r7, #12
200016dc:	46bd      	mov	sp, r7
200016de:	f85d 7b04 	ldr.w	r7, [sp], #4
200016e2:	4770      	bx	lr

200016e4 <LOS_ListAdd>:
LOS_ListAdd():
C:\Users\nitin.deshpande\Documents\GitHub\microsemi-huawei-liteos\microsemi-liteos\mscc-huawei-wsp\sc-gd450i-board-test\kernel\include/los_list.h:130
{
200016e4:	b480      	push	{r7}
200016e6:	b083      	sub	sp, #12
200016e8:	af00      	add	r7, sp, #0
200016ea:	6078      	str	r0, [r7, #4]
200016ec:	6039      	str	r1, [r7, #0]
C:\Users\nitin.deshpande\Documents\GitHub\microsemi-huawei-liteos\microsemi-liteos\mscc-huawei-wsp\sc-gd450i-board-test\kernel\include/los_list.h:131
    pstNode->pstNext = pstList->pstNext;
200016ee:	687b      	ldr	r3, [r7, #4]
200016f0:	685a      	ldr	r2, [r3, #4]
200016f2:	683b      	ldr	r3, [r7, #0]
200016f4:	605a      	str	r2, [r3, #4]
C:\Users\nitin.deshpande\Documents\GitHub\microsemi-huawei-liteos\microsemi-liteos\mscc-huawei-wsp\sc-gd450i-board-test\kernel\include/los_list.h:132
    pstNode->pstPrev = pstList;
200016f6:	683b      	ldr	r3, [r7, #0]
200016f8:	687a      	ldr	r2, [r7, #4]
200016fa:	601a      	str	r2, [r3, #0]
C:\Users\nitin.deshpande\Documents\GitHub\microsemi-huawei-liteos\microsemi-liteos\mscc-huawei-wsp\sc-gd450i-board-test\kernel\include/los_list.h:133
    pstList->pstNext->pstPrev = pstNode;
200016fc:	687b      	ldr	r3, [r7, #4]
200016fe:	685b      	ldr	r3, [r3, #4]
20001700:	683a      	ldr	r2, [r7, #0]
20001702:	601a      	str	r2, [r3, #0]
C:\Users\nitin.deshpande\Documents\GitHub\microsemi-huawei-liteos\microsemi-liteos\mscc-huawei-wsp\sc-gd450i-board-test\kernel\include/los_list.h:134
    pstList->pstNext = pstNode;
20001704:	687b      	ldr	r3, [r7, #4]
20001706:	683a      	ldr	r2, [r7, #0]
20001708:	605a      	str	r2, [r3, #4]
C:\Users\nitin.deshpande\Documents\GitHub\microsemi-huawei-liteos\microsemi-liteos\mscc-huawei-wsp\sc-gd450i-board-test\kernel\include/los_list.h:135
}
2000170a:	bf00      	nop
2000170c:	370c      	adds	r7, #12
2000170e:	46bd      	mov	sp, r7
20001710:	f85d 7b04 	ldr.w	r7, [sp], #4
20001714:	4770      	bx	lr

20001716 <LOS_ListTailInsert>:
LOS_ListTailInsert():
C:\Users\nitin.deshpande\Documents\GitHub\microsemi-huawei-liteos\microsemi-liteos\mscc-huawei-wsp\sc-gd450i-board-test\kernel\include/los_list.h:158
{
20001716:	b580      	push	{r7, lr}
20001718:	b082      	sub	sp, #8
2000171a:	af00      	add	r7, sp, #0
2000171c:	6078      	str	r0, [r7, #4]
2000171e:	6039      	str	r1, [r7, #0]
C:\Users\nitin.deshpande\Documents\GitHub\microsemi-huawei-liteos\microsemi-liteos\mscc-huawei-wsp\sc-gd450i-board-test\kernel\include/los_list.h:159
    LOS_ListAdd(pstList->pstPrev, pstNode);
20001720:	687b      	ldr	r3, [r7, #4]
20001722:	681b      	ldr	r3, [r3, #0]
20001724:	6839      	ldr	r1, [r7, #0]
20001726:	4618      	mov	r0, r3
20001728:	f7ff ffdc 	bl	200016e4 <LOS_ListAdd>
C:\Users\nitin.deshpande\Documents\GitHub\microsemi-huawei-liteos\microsemi-liteos\mscc-huawei-wsp\sc-gd450i-board-test\kernel\include/los_list.h:160
}
2000172c:	bf00      	nop
2000172e:	3708      	adds	r7, #8
20001730:	46bd      	mov	sp, r7
20001732:	bd80      	pop	{r7, pc}

20001734 <LOS_ListDelete>:
LOS_ListDelete():
C:\Users\nitin.deshpande\Documents\GitHub\microsemi-huawei-liteos\microsemi-liteos\mscc-huawei-wsp\sc-gd450i-board-test\kernel\include/los_list.h:184
{
20001734:	b480      	push	{r7}
20001736:	b083      	sub	sp, #12
20001738:	af00      	add	r7, sp, #0
2000173a:	6078      	str	r0, [r7, #4]
C:\Users\nitin.deshpande\Documents\GitHub\microsemi-huawei-liteos\microsemi-liteos\mscc-huawei-wsp\sc-gd450i-board-test\kernel\include/los_list.h:185
    pstNode->pstNext->pstPrev = pstNode->pstPrev;
2000173c:	687b      	ldr	r3, [r7, #4]
2000173e:	685b      	ldr	r3, [r3, #4]
20001740:	687a      	ldr	r2, [r7, #4]
20001742:	6812      	ldr	r2, [r2, #0]
20001744:	601a      	str	r2, [r3, #0]
C:\Users\nitin.deshpande\Documents\GitHub\microsemi-huawei-liteos\microsemi-liteos\mscc-huawei-wsp\sc-gd450i-board-test\kernel\include/los_list.h:186
    pstNode->pstPrev->pstNext = pstNode->pstNext;
20001746:	687b      	ldr	r3, [r7, #4]
20001748:	681b      	ldr	r3, [r3, #0]
2000174a:	687a      	ldr	r2, [r7, #4]
2000174c:	6852      	ldr	r2, [r2, #4]
2000174e:	605a      	str	r2, [r3, #4]
C:\Users\nitin.deshpande\Documents\GitHub\microsemi-huawei-liteos\microsemi-liteos\mscc-huawei-wsp\sc-gd450i-board-test\kernel\include/los_list.h:187
    pstNode->pstNext = (LOS_DL_LIST *)NULL;
20001750:	687b      	ldr	r3, [r7, #4]
20001752:	2200      	movs	r2, #0
20001754:	605a      	str	r2, [r3, #4]
C:\Users\nitin.deshpande\Documents\GitHub\microsemi-huawei-liteos\microsemi-liteos\mscc-huawei-wsp\sc-gd450i-board-test\kernel\include/los_list.h:188
    pstNode->pstPrev = (LOS_DL_LIST *)NULL;
20001756:	687b      	ldr	r3, [r7, #4]
20001758:	2200      	movs	r2, #0
2000175a:	601a      	str	r2, [r3, #0]
C:\Users\nitin.deshpande\Documents\GitHub\microsemi-huawei-liteos\microsemi-liteos\mscc-huawei-wsp\sc-gd450i-board-test\kernel\include/los_list.h:189
}
2000175c:	bf00      	nop
2000175e:	370c      	adds	r7, #12
20001760:	46bd      	mov	sp, r7
20001762:	f85d 7b04 	ldr.w	r7, [sp], #4
20001766:	4770      	bx	lr

20001768 <LOS_ListEmpty>:
LOS_ListEmpty():
C:\Users\nitin.deshpande\Documents\GitHub\microsemi-huawei-liteos\microsemi-liteos\mscc-huawei-wsp\sc-gd450i-board-test\kernel\include/los_list.h:214
 *<ul><li>los_list.h: the header file that contains the API declaration.</li></ul>
 *@see
 *@since Huawei LiteOS V100R001C00
 */
LITE_OS_SEC_ALW_INLINE INLINE UINTBOOL LOS_ListEmpty(LOS_DL_LIST *pstNode)
{
20001768:	b480      	push	{r7}
2000176a:	b083      	sub	sp, #12
2000176c:	af00      	add	r7, sp, #0
2000176e:	6078      	str	r0, [r7, #4]
C:\Users\nitin.deshpande\Documents\GitHub\microsemi-huawei-liteos\microsemi-liteos\mscc-huawei-wsp\sc-gd450i-board-test\kernel\include/los_list.h:215
    return (UINTBOOL)(pstNode->pstNext == pstNode);
20001770:	687b      	ldr	r3, [r7, #4]
20001772:	685a      	ldr	r2, [r3, #4]
20001774:	687b      	ldr	r3, [r7, #4]
20001776:	429a      	cmp	r2, r3
20001778:	bf0c      	ite	eq
2000177a:	2301      	moveq	r3, #1
2000177c:	2300      	movne	r3, #0
2000177e:	b2db      	uxtb	r3, r3
C:\Users\nitin.deshpande\Documents\GitHub\microsemi-huawei-liteos\microsemi-liteos\mscc-huawei-wsp\sc-gd450i-board-test\kernel\include/los_list.h:216
}
20001780:	4618      	mov	r0, r3
20001782:	370c      	adds	r7, #12
20001784:	46bd      	mov	sp, r7
20001786:	f85d 7b04 	ldr.w	r7, [sp], #4
2000178a:	4770      	bx	lr

2000178c <osQueueInit>:
osQueueInit():
C:\Users\nitin.deshpande\Documents\GitHub\microsemi-huawei-liteos\microsemi-liteos\mscc-huawei-wsp\sc-gd450i-board-test\Debug/../kernel/base/ipc/los_queue.c:65
 Input       : usMaxQueue  --- Maximum queue count
 Output      : None
 Return      : LOS_OK on success or error code on failure
**************************************************************************/
LITE_OS_SEC_TEXT_INIT UINT32 osQueueInit()
{
2000178c:	b580      	push	{r7, lr}
2000178e:	af00      	add	r7, sp, #0
C:\Users\nitin.deshpande\Documents\GitHub\microsemi-huawei-liteos\microsemi-liteos\mscc-huawei-wsp\sc-gd450i-board-test\Debug/../kernel/base/ipc/los_queue.c:72
    if (0 == LOSCFG_BASE_IPC_QUEUE_LIMIT)   /*lint !e506*/
    {
        return LOS_ERRNO_QUEUE_MAXNUM_ZERO;
    }

    g_pstAllQueue = (QUEUE_CB_S *)LOS_MemAlloc(m_aucSysMem0, LOSCFG_BASE_IPC_QUEUE_LIMIT * sizeof(QUEUE_CB_S));
20001790:	4b0d      	ldr	r3, [pc, #52]	; (200017c8 <osQueueInit+0x3c>)
20001792:	681b      	ldr	r3, [r3, #0]
20001794:	f44f 71dc 	mov.w	r1, #440	; 0x1b8
20001798:	4618      	mov	r0, r3
2000179a:	f7ff fce9 	bl	20001170 <LOS_MemAlloc>
2000179e:	4602      	mov	r2, r0
200017a0:	4b0a      	ldr	r3, [pc, #40]	; (200017cc <osQueueInit+0x40>)
200017a2:	601a      	str	r2, [r3, #0]
C:\Users\nitin.deshpande\Documents\GitHub\microsemi-huawei-liteos\microsemi-liteos\mscc-huawei-wsp\sc-gd450i-board-test\Debug/../kernel/base/ipc/los_queue.c:73
    if (NULL == g_pstAllQueue)
200017a4:	4b09      	ldr	r3, [pc, #36]	; (200017cc <osQueueInit+0x40>)
200017a6:	681b      	ldr	r3, [r3, #0]
200017a8:	2b00      	cmp	r3, #0
200017aa:	d101      	bne.n	200017b0 <osQueueInit+0x24>
C:\Users\nitin.deshpande\Documents\GitHub\microsemi-huawei-liteos\microsemi-liteos\mscc-huawei-wsp\sc-gd450i-board-test\Debug/../kernel/base/ipc/los_queue.c:75
    {
        return LOS_ERRNO_QUEUE_NO_MEMORY;
200017ac:	4b08      	ldr	r3, [pc, #32]	; (200017d0 <osQueueInit+0x44>)
200017ae:	e008      	b.n	200017c2 <osQueueInit+0x36>
C:\Users\nitin.deshpande\Documents\GitHub\microsemi-huawei-liteos\microsemi-liteos\mscc-huawei-wsp\sc-gd450i-board-test\Debug/../kernel/base/ipc/los_queue.c:78
    }

    memset(g_pstAllQueue, 0, LOSCFG_BASE_IPC_QUEUE_LIMIT * sizeof(QUEUE_CB_S));
200017b0:	4b06      	ldr	r3, [pc, #24]	; (200017cc <osQueueInit+0x40>)
200017b2:	681b      	ldr	r3, [r3, #0]
200017b4:	f44f 72dc 	mov.w	r2, #440	; 0x1b8
200017b8:	2100      	movs	r1, #0
200017ba:	4618      	mov	r0, r3
200017bc:	f002 fd7c 	bl	200042b8 <memset>
C:\Users\nitin.deshpande\Documents\GitHub\microsemi-huawei-liteos\microsemi-liteos\mscc-huawei-wsp\sc-gd450i-board-test\Debug/../kernel/base/ipc/los_queue.c:80

    return LOS_OK;
200017c0:	2300      	movs	r3, #0
C:\Users\nitin.deshpande\Documents\GitHub\microsemi-huawei-liteos\microsemi-liteos\mscc-huawei-wsp\sc-gd450i-board-test\Debug/../kernel/base/ipc/los_queue.c:81
}
200017c2:	4618      	mov	r0, r3
200017c4:	bd80      	pop	{r7, pc}
200017c6:	bf00      	nop
200017c8:	20004808 	.word	0x20004808
200017cc:	20004858 	.word	0x20004858
200017d0:	02000601 	.word	0x02000601

200017d4 <osQueueCreate>:
osQueueCreate():
C:\Users\nitin.deshpande\Documents\GitHub\microsemi-huawei-liteos\microsemi-liteos\mscc-huawei-wsp\sc-gd450i-board-test\Debug/../kernel/base/ipc/los_queue.c:96
**************************************************************************/
LITE_OS_SEC_TEXT_INIT UINT32 osQueueCreate(UINT16 usLen,
                                      UINT32 *puwQueueID,
                                      UINT16 usMaxMsgSize,
                                      QUEUE_CB_S **ppstQueueCBOut)
{
200017d4:	b580      	push	{r7, lr}
200017d6:	b086      	sub	sp, #24
200017d8:	af00      	add	r7, sp, #0
200017da:	60b9      	str	r1, [r7, #8]
200017dc:	607b      	str	r3, [r7, #4]
200017de:	4603      	mov	r3, r0
200017e0:	81fb      	strh	r3, [r7, #14]
200017e2:	4613      	mov	r3, r2
200017e4:	81bb      	strh	r3, [r7, #12]
C:\Users\nitin.deshpande\Documents\GitHub\microsemi-huawei-liteos\microsemi-liteos\mscc-huawei-wsp\sc-gd450i-board-test\Debug/../kernel/base/ipc/los_queue.c:101
    UINT32      uwIndex;
    QUEUE_CB_S    *pstQueueCB;

    /* get a unused queue */
    pstQueueCB = g_pstAllQueue;
200017e6:	4b22      	ldr	r3, [pc, #136]	; (20001870 <osQueueCreate+0x9c>)
200017e8:	681b      	ldr	r3, [r3, #0]
200017ea:	613b      	str	r3, [r7, #16]
C:\Users\nitin.deshpande\Documents\GitHub\microsemi-huawei-liteos\microsemi-liteos\mscc-huawei-wsp\sc-gd450i-board-test\Debug/../kernel/base/ipc/los_queue.c:102
    for (uwIndex = 0; uwIndex < LOSCFG_BASE_IPC_QUEUE_LIMIT; uwIndex++, pstQueueCB++)
200017ec:	2300      	movs	r3, #0
200017ee:	617b      	str	r3, [r7, #20]
200017f0:	e00e      	b.n	20001810 <osQueueCreate+0x3c>
C:\Users\nitin.deshpande\Documents\GitHub\microsemi-huawei-liteos\microsemi-liteos\mscc-huawei-wsp\sc-gd450i-board-test\Debug/../kernel/base/ipc/los_queue.c:104
    {
        if (OS_QUEUE_UNUSED == pstQueueCB->usQueueState)
200017f2:	693b      	ldr	r3, [r7, #16]
200017f4:	889b      	ldrh	r3, [r3, #4]
200017f6:	2b00      	cmp	r3, #0
200017f8:	d104      	bne.n	20001804 <osQueueCreate+0x30>
C:\Users\nitin.deshpande\Documents\GitHub\microsemi-huawei-liteos\microsemi-liteos\mscc-huawei-wsp\sc-gd450i-board-test\Debug/../kernel/base/ipc/los_queue.c:106
        {
            *puwQueueID = uwIndex + 1;
200017fa:	697b      	ldr	r3, [r7, #20]
200017fc:	1c5a      	adds	r2, r3, #1
200017fe:	68bb      	ldr	r3, [r7, #8]
20001800:	601a      	str	r2, [r3, #0]
C:\Users\nitin.deshpande\Documents\GitHub\microsemi-huawei-liteos\microsemi-liteos\mscc-huawei-wsp\sc-gd450i-board-test\Debug/../kernel/base/ipc/los_queue.c:107
            break;
20001802:	e008      	b.n	20001816 <osQueueCreate+0x42>
C:\Users\nitin.deshpande\Documents\GitHub\microsemi-huawei-liteos\microsemi-liteos\mscc-huawei-wsp\sc-gd450i-board-test\Debug/../kernel/base/ipc/los_queue.c:102 (discriminator 2)
    for (uwIndex = 0; uwIndex < LOSCFG_BASE_IPC_QUEUE_LIMIT; uwIndex++, pstQueueCB++)
20001804:	697b      	ldr	r3, [r7, #20]
20001806:	3301      	adds	r3, #1
20001808:	617b      	str	r3, [r7, #20]
2000180a:	693b      	ldr	r3, [r7, #16]
2000180c:	332c      	adds	r3, #44	; 0x2c
2000180e:	613b      	str	r3, [r7, #16]
C:\Users\nitin.deshpande\Documents\GitHub\microsemi-huawei-liteos\microsemi-liteos\mscc-huawei-wsp\sc-gd450i-board-test\Debug/../kernel/base/ipc/los_queue.c:102 (discriminator 1)
20001810:	697b      	ldr	r3, [r7, #20]
20001812:	2b09      	cmp	r3, #9
20001814:	d9ed      	bls.n	200017f2 <osQueueCreate+0x1e>
C:\Users\nitin.deshpande\Documents\GitHub\microsemi-huawei-liteos\microsemi-liteos\mscc-huawei-wsp\sc-gd450i-board-test\Debug/../kernel/base/ipc/los_queue.c:111
        }
    }

    if (uwIndex == LOSCFG_BASE_IPC_QUEUE_LIMIT)
20001816:	697b      	ldr	r3, [r7, #20]
20001818:	2b0a      	cmp	r3, #10
2000181a:	d101      	bne.n	20001820 <osQueueCreate+0x4c>
C:\Users\nitin.deshpande\Documents\GitHub\microsemi-huawei-liteos\microsemi-liteos\mscc-huawei-wsp\sc-gd450i-board-test\Debug/../kernel/base/ipc/los_queue.c:113
    {
        return LOS_ERRNO_QUEUE_CB_UNAVAILABLE;
2000181c:	4b15      	ldr	r3, [pc, #84]	; (20001874 <osQueueCreate+0xa0>)
2000181e:	e023      	b.n	20001868 <osQueueCreate+0x94>
C:\Users\nitin.deshpande\Documents\GitHub\microsemi-huawei-liteos\microsemi-liteos\mscc-huawei-wsp\sc-gd450i-board-test\Debug/../kernel/base/ipc/los_queue.c:116
    }

    (VOID)memset(pstQueueCB, 0, sizeof(QUEUE_CB_S));
20001820:	222c      	movs	r2, #44	; 0x2c
20001822:	2100      	movs	r1, #0
20001824:	6938      	ldr	r0, [r7, #16]
20001826:	f002 fd47 	bl	200042b8 <memset>
C:\Users\nitin.deshpande\Documents\GitHub\microsemi-huawei-liteos\microsemi-liteos\mscc-huawei-wsp\sc-gd450i-board-test\Debug/../kernel/base/ipc/los_queue.c:117
    pstQueueCB->pucQueue = (UINT8 *)LOS_MemAlloc(m_aucSysMem0, usLen * usMaxMsgSize);
2000182a:	4b13      	ldr	r3, [pc, #76]	; (20001878 <osQueueCreate+0xa4>)
2000182c:	6818      	ldr	r0, [r3, #0]
2000182e:	89fb      	ldrh	r3, [r7, #14]
20001830:	89ba      	ldrh	r2, [r7, #12]
20001832:	fb02 f303 	mul.w	r3, r2, r3
20001836:	4619      	mov	r1, r3
20001838:	f7ff fc9a 	bl	20001170 <LOS_MemAlloc>
2000183c:	4602      	mov	r2, r0
2000183e:	693b      	ldr	r3, [r7, #16]
20001840:	601a      	str	r2, [r3, #0]
C:\Users\nitin.deshpande\Documents\GitHub\microsemi-huawei-liteos\microsemi-liteos\mscc-huawei-wsp\sc-gd450i-board-test\Debug/../kernel/base/ipc/los_queue.c:118
    if (NULL == pstQueueCB->pucQueue)
20001842:	693b      	ldr	r3, [r7, #16]
20001844:	681b      	ldr	r3, [r3, #0]
20001846:	2b00      	cmp	r3, #0
20001848:	d101      	bne.n	2000184e <osQueueCreate+0x7a>
C:\Users\nitin.deshpande\Documents\GitHub\microsemi-huawei-liteos\microsemi-liteos\mscc-huawei-wsp\sc-gd450i-board-test\Debug/../kernel/base/ipc/los_queue.c:120
    {
        return LOS_ERRNO_QUEUE_CREATE_NO_MEMORY;
2000184a:	4b0c      	ldr	r3, [pc, #48]	; (2000187c <osQueueCreate+0xa8>)
2000184c:	e00c      	b.n	20001868 <osQueueCreate+0x94>
C:\Users\nitin.deshpande\Documents\GitHub\microsemi-huawei-liteos\microsemi-liteos\mscc-huawei-wsp\sc-gd450i-board-test\Debug/../kernel/base/ipc/los_queue.c:122
    }
    pstQueueCB->usQueueLen = usLen;
2000184e:	693b      	ldr	r3, [r7, #16]
20001850:	89fa      	ldrh	r2, [r7, #14]
20001852:	80da      	strh	r2, [r3, #6]
C:\Users\nitin.deshpande\Documents\GitHub\microsemi-huawei-liteos\microsemi-liteos\mscc-huawei-wsp\sc-gd450i-board-test\Debug/../kernel/base/ipc/los_queue.c:123
    pstQueueCB->usQueueSize = usMaxMsgSize;
20001854:	693b      	ldr	r3, [r7, #16]
20001856:	89ba      	ldrh	r2, [r7, #12]
20001858:	811a      	strh	r2, [r3, #8]
C:\Users\nitin.deshpande\Documents\GitHub\microsemi-huawei-liteos\microsemi-liteos\mscc-huawei-wsp\sc-gd450i-board-test\Debug/../kernel/base/ipc/los_queue.c:124
    pstQueueCB->usQueueState = OS_QUEUE_INUSED;
2000185a:	693b      	ldr	r3, [r7, #16]
2000185c:	2201      	movs	r2, #1
2000185e:	809a      	strh	r2, [r3, #4]
C:\Users\nitin.deshpande\Documents\GitHub\microsemi-huawei-liteos\microsemi-liteos\mscc-huawei-wsp\sc-gd450i-board-test\Debug/../kernel/base/ipc/los_queue.c:125
    *ppstQueueCBOut = pstQueueCB;
20001860:	687b      	ldr	r3, [r7, #4]
20001862:	693a      	ldr	r2, [r7, #16]
20001864:	601a      	str	r2, [r3, #0]
C:\Users\nitin.deshpande\Documents\GitHub\microsemi-huawei-liteos\microsemi-liteos\mscc-huawei-wsp\sc-gd450i-board-test\Debug/../kernel/base/ipc/los_queue.c:127

    return LOS_OK;
20001866:	2300      	movs	r3, #0
C:\Users\nitin.deshpande\Documents\GitHub\microsemi-huawei-liteos\microsemi-liteos\mscc-huawei-wsp\sc-gd450i-board-test\Debug/../kernel/base/ipc/los_queue.c:128
}
20001868:	4618      	mov	r0, r3
2000186a:	3718      	adds	r7, #24
2000186c:	46bd      	mov	sp, r7
2000186e:	bd80      	pop	{r7, pc}
20001870:	20004858 	.word	0x20004858
20001874:	02000604 	.word	0x02000604
20001878:	20004808 	.word	0x20004808
2000187c:	02000602 	.word	0x02000602

20001880 <osQueuePend>:
osQueuePend():
C:\Users\nitin.deshpande\Documents\GitHub\microsemi-huawei-liteos\microsemi-liteos\mscc-huawei-wsp\sc-gd450i-board-test\Debug/../kernel/base/ipc/los_queue.c:140
               uwTimeOut
 Output      : pstRunTsk
 Return      : none
**************************************************************************/
LITE_OS_SEC_TEXT static VOID osQueuePend(LOS_TASK_CB *pstRunTsk, LOS_DL_LIST *pstPendList, UINT32  uwTimeOut)
{
20001880:	b580      	push	{r7, lr}
20001882:	b086      	sub	sp, #24
20001884:	af00      	add	r7, sp, #0
20001886:	60f8      	str	r0, [r7, #12]
20001888:	60b9      	str	r1, [r7, #8]
2000188a:	607a      	str	r2, [r7, #4]
C:\Users\nitin.deshpande\Documents\GitHub\microsemi-huawei-liteos\microsemi-liteos\mscc-huawei-wsp\sc-gd450i-board-test\Debug/../kernel/base/ipc/los_queue.c:141
    LOS_DL_LIST *pstPendObj = (LOS_DL_LIST *)NULL;
2000188c:	2300      	movs	r3, #0
2000188e:	613b      	str	r3, [r7, #16]
C:\Users\nitin.deshpande\Documents\GitHub\microsemi-huawei-liteos\microsemi-liteos\mscc-huawei-wsp\sc-gd450i-board-test\Debug/../kernel/base/ipc/los_queue.c:142
    LOS_TASK_CB *pstTskCB = (LOS_TASK_CB *)NULL;
20001890:	2300      	movs	r3, #0
20001892:	617b      	str	r3, [r7, #20]
C:\Users\nitin.deshpande\Documents\GitHub\microsemi-huawei-liteos\microsemi-liteos\mscc-huawei-wsp\sc-gd450i-board-test\Debug/../kernel/base/ipc/los_queue.c:144

    LOS_PriqueueDequeue(&pstRunTsk->stPendList);
20001894:	68fb      	ldr	r3, [r7, #12]
20001896:	333c      	adds	r3, #60	; 0x3c
20001898:	4618      	mov	r0, r3
2000189a:	f000 fc47 	bl	2000212c <LOS_PriqueueDequeue>
C:\Users\nitin.deshpande\Documents\GitHub\microsemi-huawei-liteos\microsemi-liteos\mscc-huawei-wsp\sc-gd450i-board-test\Debug/../kernel/base/ipc/los_queue.c:145
    pstRunTsk->usTaskStatus &= (~OS_TASK_STATUS_READY);
2000189e:	68fb      	ldr	r3, [r7, #12]
200018a0:	889b      	ldrh	r3, [r3, #4]
200018a2:	f023 0304 	bic.w	r3, r3, #4
200018a6:	b29a      	uxth	r2, r3
200018a8:	68fb      	ldr	r3, [r7, #12]
200018aa:	809a      	strh	r2, [r3, #4]
C:\Users\nitin.deshpande\Documents\GitHub\microsemi-huawei-liteos\microsemi-liteos\mscc-huawei-wsp\sc-gd450i-board-test\Debug/../kernel/base/ipc/los_queue.c:146
    pstPendObj = &(pstRunTsk->stPendList);
200018ac:	68fb      	ldr	r3, [r7, #12]
200018ae:	333c      	adds	r3, #60	; 0x3c
200018b0:	613b      	str	r3, [r7, #16]
C:\Users\nitin.deshpande\Documents\GitHub\microsemi-huawei-liteos\microsemi-liteos\mscc-huawei-wsp\sc-gd450i-board-test\Debug/../kernel/base/ipc/los_queue.c:147
    pstRunTsk->usTaskStatus |= OS_TASK_STATUS_PEND_QUEUE;
200018b2:	68fb      	ldr	r3, [r7, #12]
200018b4:	889b      	ldrh	r3, [r3, #4]
200018b6:	f443 5300 	orr.w	r3, r3, #8192	; 0x2000
200018ba:	b29a      	uxth	r2, r3
200018bc:	68fb      	ldr	r3, [r7, #12]
200018be:	809a      	strh	r2, [r3, #4]
C:\Users\nitin.deshpande\Documents\GitHub\microsemi-huawei-liteos\microsemi-liteos\mscc-huawei-wsp\sc-gd450i-board-test\Debug/../kernel/base/ipc/los_queue.c:148
    if (LOS_ListEmpty(pstPendList))
200018c0:	68b8      	ldr	r0, [r7, #8]
200018c2:	f7ff ff51 	bl	20001768 <LOS_ListEmpty>
200018c6:	4603      	mov	r3, r0
200018c8:	2b00      	cmp	r3, #0
200018ca:	d004      	beq.n	200018d6 <osQueuePend+0x56>
C:\Users\nitin.deshpande\Documents\GitHub\microsemi-huawei-liteos\microsemi-liteos\mscc-huawei-wsp\sc-gd450i-board-test\Debug/../kernel/base/ipc/los_queue.c:150
    {
        LOS_ListTailInsert(pstPendList, pstPendObj);
200018cc:	6939      	ldr	r1, [r7, #16]
200018ce:	68b8      	ldr	r0, [r7, #8]
200018d0:	f7ff ff21 	bl	20001716 <LOS_ListTailInsert>
200018d4:	e01c      	b.n	20001910 <osQueuePend+0x90>
C:\Users\nitin.deshpande\Documents\GitHub\microsemi-huawei-liteos\microsemi-liteos\mscc-huawei-wsp\sc-gd450i-board-test\Debug/../kernel/base/ipc/los_queue.c:154
    }
    else
    {
        LOS_DL_LIST_FOR_EACH_ENTRY(pstTskCB, pstPendList, LOS_TASK_CB, stPendList) /*lint !e413*/
200018d6:	68bb      	ldr	r3, [r7, #8]
200018d8:	685b      	ldr	r3, [r3, #4]
200018da:	3b3c      	subs	r3, #60	; 0x3c
200018dc:	617b      	str	r3, [r7, #20]
200018de:	e009      	b.n	200018f4 <osQueuePend+0x74>
C:\Users\nitin.deshpande\Documents\GitHub\microsemi-huawei-liteos\microsemi-liteos\mscc-huawei-wsp\sc-gd450i-board-test\Debug/../kernel/base/ipc/los_queue.c:156
        {
            if (pstRunTsk->usPriority < pstTskCB->usPriority)
200018e0:	68fb      	ldr	r3, [r7, #12]
200018e2:	88da      	ldrh	r2, [r3, #6]
200018e4:	697b      	ldr	r3, [r7, #20]
200018e6:	88db      	ldrh	r3, [r3, #6]
200018e8:	429a      	cmp	r2, r3
200018ea:	d30a      	bcc.n	20001902 <osQueuePend+0x82>
C:\Users\nitin.deshpande\Documents\GitHub\microsemi-huawei-liteos\microsemi-liteos\mscc-huawei-wsp\sc-gd450i-board-test\Debug/../kernel/base/ipc/los_queue.c:154 (discriminator 2)
        LOS_DL_LIST_FOR_EACH_ENTRY(pstTskCB, pstPendList, LOS_TASK_CB, stPendList) /*lint !e413*/
200018ec:	697b      	ldr	r3, [r7, #20]
200018ee:	6c1b      	ldr	r3, [r3, #64]	; 0x40
200018f0:	3b3c      	subs	r3, #60	; 0x3c
200018f2:	617b      	str	r3, [r7, #20]
C:\Users\nitin.deshpande\Documents\GitHub\microsemi-huawei-liteos\microsemi-liteos\mscc-huawei-wsp\sc-gd450i-board-test\Debug/../kernel/base/ipc/los_queue.c:154 (discriminator 1)
200018f4:	697b      	ldr	r3, [r7, #20]
200018f6:	f103 023c 	add.w	r2, r3, #60	; 0x3c
200018fa:	68bb      	ldr	r3, [r7, #8]
200018fc:	429a      	cmp	r2, r3
200018fe:	d1ef      	bne.n	200018e0 <osQueuePend+0x60>
20001900:	e000      	b.n	20001904 <osQueuePend+0x84>
C:\Users\nitin.deshpande\Documents\GitHub\microsemi-huawei-liteos\microsemi-liteos\mscc-huawei-wsp\sc-gd450i-board-test\Debug/../kernel/base/ipc/los_queue.c:158
            {
                break;
20001902:	bf00      	nop
C:\Users\nitin.deshpande\Documents\GitHub\microsemi-huawei-liteos\microsemi-liteos\mscc-huawei-wsp\sc-gd450i-board-test\Debug/../kernel/base/ipc/los_queue.c:161
            }
        }
        LOS_ListAdd(pstTskCB->stPendList.pstPrev, pstPendObj);
20001904:	697b      	ldr	r3, [r7, #20]
20001906:	6bdb      	ldr	r3, [r3, #60]	; 0x3c
20001908:	6939      	ldr	r1, [r7, #16]
2000190a:	4618      	mov	r0, r3
2000190c:	f7ff feea 	bl	200016e4 <LOS_ListAdd>
C:\Users\nitin.deshpande\Documents\GitHub\microsemi-huawei-liteos\microsemi-liteos\mscc-huawei-wsp\sc-gd450i-board-test\Debug/../kernel/base/ipc/los_queue.c:164
    }

    if (uwTimeOut != LOS_WAIT_FOREVER)
20001910:	687b      	ldr	r3, [r7, #4]
20001912:	f1b3 3fff 	cmp.w	r3, #4294967295
20001916:	d00b      	beq.n	20001930 <osQueuePend+0xb0>
C:\Users\nitin.deshpande\Documents\GitHub\microsemi-huawei-liteos\microsemi-liteos\mscc-huawei-wsp\sc-gd450i-board-test\Debug/../kernel/base/ipc/los_queue.c:166
    {
        pstRunTsk->usTaskStatus |= OS_TASK_STATUS_TIMEOUT;
20001918:	68fb      	ldr	r3, [r7, #12]
2000191a:	889b      	ldrh	r3, [r3, #4]
2000191c:	f043 0340 	orr.w	r3, r3, #64	; 0x40
20001920:	b29a      	uxth	r2, r3
20001922:	68fb      	ldr	r3, [r7, #12]
20001924:	809a      	strh	r2, [r3, #4]
C:\Users\nitin.deshpande\Documents\GitHub\microsemi-huawei-liteos\microsemi-liteos\mscc-huawei-wsp\sc-gd450i-board-test\Debug/../kernel/base/ipc/los_queue.c:167
        osTaskAdd2TimerList(pstRunTsk, uwTimeOut);
20001926:	6879      	ldr	r1, [r7, #4]
20001928:	68f8      	ldr	r0, [r7, #12]
2000192a:	f000 fe73 	bl	20002614 <osTaskAdd2TimerList>
C:\Users\nitin.deshpande\Documents\GitHub\microsemi-huawei-liteos\microsemi-liteos\mscc-huawei-wsp\sc-gd450i-board-test\Debug/../kernel/base/ipc/los_queue.c:170
    }

    return;
2000192e:	bf00      	nop
20001930:	bf00      	nop
C:\Users\nitin.deshpande\Documents\GitHub\microsemi-huawei-liteos\microsemi-liteos\mscc-huawei-wsp\sc-gd450i-board-test\Debug/../kernel/base/ipc/los_queue.c:171
}
20001932:	3718      	adds	r7, #24
20001934:	46bd      	mov	sp, r7
20001936:	bd80      	pop	{r7, pc}

20001938 <osQueueWakeUp>:
osQueueWakeUp():
C:\Users\nitin.deshpande\Documents\GitHub\microsemi-huawei-liteos\microsemi-liteos\mscc-huawei-wsp\sc-gd450i-board-test\Debug/../kernel/base/ipc/los_queue.c:181
 Input       : pstPendList
 Output      : pstPendList
 Return      : none
**************************************************************************/
LITE_OS_SEC_TEXT static VOID osQueueWakeUp(LOS_DL_LIST *pstPendList)
{
20001938:	b580      	push	{r7, lr}
2000193a:	b084      	sub	sp, #16
2000193c:	af00      	add	r7, sp, #0
2000193e:	6078      	str	r0, [r7, #4]
C:\Users\nitin.deshpande\Documents\GitHub\microsemi-huawei-liteos\microsemi-liteos\mscc-huawei-wsp\sc-gd450i-board-test\Debug/../kernel/base/ipc/los_queue.c:184
    LOS_TASK_CB    *pstResumedTask;

    pstResumedTask = OS_TCB_FROM_PENDLIST(LOS_DL_LIST_FIRST(pstPendList)); /*lint !e413*/
20001940:	687b      	ldr	r3, [r7, #4]
20001942:	685b      	ldr	r3, [r3, #4]
20001944:	3b3c      	subs	r3, #60	; 0x3c
20001946:	60fb      	str	r3, [r7, #12]
C:\Users\nitin.deshpande\Documents\GitHub\microsemi-huawei-liteos\microsemi-liteos\mscc-huawei-wsp\sc-gd450i-board-test\Debug/../kernel/base/ipc/los_queue.c:185
    LOS_ListDelete(LOS_DL_LIST_FIRST(pstPendList));
20001948:	687b      	ldr	r3, [r7, #4]
2000194a:	685b      	ldr	r3, [r3, #4]
2000194c:	4618      	mov	r0, r3
2000194e:	f7ff fef1 	bl	20001734 <LOS_ListDelete>
C:\Users\nitin.deshpande\Documents\GitHub\microsemi-huawei-liteos\microsemi-liteos\mscc-huawei-wsp\sc-gd450i-board-test\Debug/../kernel/base/ipc/los_queue.c:186
    pstResumedTask->usTaskStatus &= (~OS_TASK_STATUS_PEND_QUEUE);
20001952:	68fb      	ldr	r3, [r7, #12]
20001954:	889b      	ldrh	r3, [r3, #4]
20001956:	f423 5300 	bic.w	r3, r3, #8192	; 0x2000
2000195a:	b29a      	uxth	r2, r3
2000195c:	68fb      	ldr	r3, [r7, #12]
2000195e:	809a      	strh	r2, [r3, #4]
C:\Users\nitin.deshpande\Documents\GitHub\microsemi-huawei-liteos\microsemi-liteos\mscc-huawei-wsp\sc-gd450i-board-test\Debug/../kernel/base/ipc/los_queue.c:187
    if (pstResumedTask->usTaskStatus & OS_TASK_STATUS_TIMEOUT)
20001960:	68fb      	ldr	r3, [r7, #12]
20001962:	889b      	ldrh	r3, [r3, #4]
20001964:	f003 0340 	and.w	r3, r3, #64	; 0x40
20001968:	2b00      	cmp	r3, #0
2000196a:	d009      	beq.n	20001980 <osQueueWakeUp+0x48>
C:\Users\nitin.deshpande\Documents\GitHub\microsemi-huawei-liteos\microsemi-liteos\mscc-huawei-wsp\sc-gd450i-board-test\Debug/../kernel/base/ipc/los_queue.c:189
    {
        osTimerListDelete(pstResumedTask);
2000196c:	68f8      	ldr	r0, [r7, #12]
2000196e:	f000 fed9 	bl	20002724 <osTimerListDelete>
C:\Users\nitin.deshpande\Documents\GitHub\microsemi-huawei-liteos\microsemi-liteos\mscc-huawei-wsp\sc-gd450i-board-test\Debug/../kernel/base/ipc/los_queue.c:190
        pstResumedTask->usTaskStatus &= (~OS_TASK_STATUS_TIMEOUT);
20001972:	68fb      	ldr	r3, [r7, #12]
20001974:	889b      	ldrh	r3, [r3, #4]
20001976:	f023 0340 	bic.w	r3, r3, #64	; 0x40
2000197a:	b29a      	uxth	r2, r3
2000197c:	68fb      	ldr	r3, [r7, #12]
2000197e:	809a      	strh	r2, [r3, #4]
C:\Users\nitin.deshpande\Documents\GitHub\microsemi-huawei-liteos\microsemi-liteos\mscc-huawei-wsp\sc-gd450i-board-test\Debug/../kernel/base/ipc/los_queue.c:193
    }

    if (!(pstResumedTask->usTaskStatus & OS_TASK_STATUS_SUSPEND))
20001980:	68fb      	ldr	r3, [r7, #12]
20001982:	889b      	ldrh	r3, [r3, #4]
20001984:	f003 0302 	and.w	r3, r3, #2
20001988:	2b00      	cmp	r3, #0
2000198a:	d110      	bne.n	200019ae <osQueueWakeUp+0x76>
C:\Users\nitin.deshpande\Documents\GitHub\microsemi-huawei-liteos\microsemi-liteos\mscc-huawei-wsp\sc-gd450i-board-test\Debug/../kernel/base/ipc/los_queue.c:195
    {
        pstResumedTask->usTaskStatus |= OS_TASK_STATUS_READY;
2000198c:	68fb      	ldr	r3, [r7, #12]
2000198e:	889b      	ldrh	r3, [r3, #4]
20001990:	f043 0304 	orr.w	r3, r3, #4
20001994:	b29a      	uxth	r2, r3
20001996:	68fb      	ldr	r3, [r7, #12]
20001998:	809a      	strh	r2, [r3, #4]
C:\Users\nitin.deshpande\Documents\GitHub\microsemi-huawei-liteos\microsemi-liteos\mscc-huawei-wsp\sc-gd450i-board-test\Debug/../kernel/base/ipc/los_queue.c:196
        LOS_PriqueueEnqueue(&pstResumedTask->stPendList, pstResumedTask->usPriority);
2000199a:	68fb      	ldr	r3, [r7, #12]
2000199c:	f103 023c 	add.w	r2, r3, #60	; 0x3c
200019a0:	68fb      	ldr	r3, [r7, #12]
200019a2:	88db      	ldrh	r3, [r3, #6]
200019a4:	4619      	mov	r1, r3
200019a6:	4610      	mov	r0, r2
200019a8:	f000 fbac 	bl	20002104 <LOS_PriqueueEnqueue>
C:\Users\nitin.deshpande\Documents\GitHub\microsemi-huawei-liteos\microsemi-liteos\mscc-huawei-wsp\sc-gd450i-board-test\Debug/../kernel/base/ipc/los_queue.c:199
    }

    return;
200019ac:	bf00      	nop
200019ae:	bf00      	nop
C:\Users\nitin.deshpande\Documents\GitHub\microsemi-huawei-liteos\microsemi-liteos\mscc-huawei-wsp\sc-gd450i-board-test\Debug/../kernel/base/ipc/los_queue.c:200
}
200019b0:	3710      	adds	r7, #16
200019b2:	46bd      	mov	sp, r7
200019b4:	bd80      	pop	{r7, pc}
	...

200019b8 <LOS_QueueCreate>:
LOS_QueueCreate():
C:\Users\nitin.deshpande\Documents\GitHub\microsemi-huawei-liteos\microsemi-liteos\mscc-huawei-wsp\sc-gd450i-board-test\Debug/../kernel/base/ipc/los_queue.c:217
LITE_OS_SEC_TEXT_INIT UINT32 LOS_QueueCreate(CHAR *pcQueueName,
                                          UINT16 usLen,
                                          UINT32 *puwQueueID,
                                          UINT32 uwFlags,
                                          UINT16 usMaxMsgSize )
{
200019b8:	b580      	push	{r7, lr}
200019ba:	b088      	sub	sp, #32
200019bc:	af00      	add	r7, sp, #0
200019be:	60f8      	str	r0, [r7, #12]
200019c0:	607a      	str	r2, [r7, #4]
200019c2:	603b      	str	r3, [r7, #0]
200019c4:	460b      	mov	r3, r1
200019c6:	817b      	strh	r3, [r7, #10]
C:\Users\nitin.deshpande\Documents\GitHub\microsemi-huawei-liteos\microsemi-liteos\mscc-huawei-wsp\sc-gd450i-board-test\Debug/../kernel/base/ipc/los_queue.c:225
    UINT32      uwRet;

    (VOID)pcQueueName;
    (VOID)uwFlags;

    if (NULL == puwQueueID)
200019c8:	687b      	ldr	r3, [r7, #4]
200019ca:	2b00      	cmp	r3, #0
200019cc:	d101      	bne.n	200019d2 <LOS_QueueCreate+0x1a>
C:\Users\nitin.deshpande\Documents\GitHub\microsemi-huawei-liteos\microsemi-liteos\mscc-huawei-wsp\sc-gd450i-board-test\Debug/../kernel/base/ipc/los_queue.c:227
    {
        return LOS_ERRNO_QUEUE_CREAT_PTR_NULL;
200019ce:	4b20      	ldr	r3, [pc, #128]	; (20001a50 <LOS_QueueCreate+0x98>)
200019d0:	e039      	b.n	20001a46 <LOS_QueueCreate+0x8e>
C:\Users\nitin.deshpande\Documents\GitHub\microsemi-huawei-liteos\microsemi-liteos\mscc-huawei-wsp\sc-gd450i-board-test\Debug/../kernel/base/ipc/los_queue.c:230
    }

    if(usMaxMsgSize > OS_NULL_SHORT -4)
200019d2:	8d3b      	ldrh	r3, [r7, #40]	; 0x28
200019d4:	f64f 72fb 	movw	r2, #65531	; 0xfffb
200019d8:	4293      	cmp	r3, r2
200019da:	d901      	bls.n	200019e0 <LOS_QueueCreate+0x28>
C:\Users\nitin.deshpande\Documents\GitHub\microsemi-huawei-liteos\microsemi-liteos\mscc-huawei-wsp\sc-gd450i-board-test\Debug/../kernel/base/ipc/los_queue.c:232
    {
        return LOS_ERRNO_QUEUE_SIZE_TOO_BIG;
200019dc:	4b1d      	ldr	r3, [pc, #116]	; (20001a54 <LOS_QueueCreate+0x9c>)
200019de:	e032      	b.n	20001a46 <LOS_QueueCreate+0x8e>
C:\Users\nitin.deshpande\Documents\GitHub\microsemi-huawei-liteos\microsemi-liteos\mscc-huawei-wsp\sc-gd450i-board-test\Debug/../kernel/base/ipc/los_queue.c:235
    }

    if ((0 == usLen) || (0 == usMaxMsgSize))
200019e0:	897b      	ldrh	r3, [r7, #10]
200019e2:	2b00      	cmp	r3, #0
200019e4:	d002      	beq.n	200019ec <LOS_QueueCreate+0x34>
C:\Users\nitin.deshpande\Documents\GitHub\microsemi-huawei-liteos\microsemi-liteos\mscc-huawei-wsp\sc-gd450i-board-test\Debug/../kernel/base/ipc/los_queue.c:235 (discriminator 1)
200019e6:	8d3b      	ldrh	r3, [r7, #40]	; 0x28
200019e8:	2b00      	cmp	r3, #0
200019ea:	d101      	bne.n	200019f0 <LOS_QueueCreate+0x38>
C:\Users\nitin.deshpande\Documents\GitHub\microsemi-huawei-liteos\microsemi-liteos\mscc-huawei-wsp\sc-gd450i-board-test\Debug/../kernel/base/ipc/los_queue.c:237
    {
        return LOS_ERRNO_QUEUE_PARA_ISZERO;
200019ec:	4b1a      	ldr	r3, [pc, #104]	; (20001a58 <LOS_QueueCreate+0xa0>)
200019ee:	e02a      	b.n	20001a46 <LOS_QueueCreate+0x8e>
C:\Users\nitin.deshpande\Documents\GitHub\microsemi-huawei-liteos\microsemi-liteos\mscc-huawei-wsp\sc-gd450i-board-test\Debug/../kernel/base/ipc/los_queue.c:240
    }

    uvIntSave = LOS_IntLock();
200019f0:	f7fe fd05 	bl	200003fe <LOS_IntLock>
200019f4:	61f8      	str	r0, [r7, #28]
C:\Users\nitin.deshpande\Documents\GitHub\microsemi-huawei-liteos\microsemi-liteos\mscc-huawei-wsp\sc-gd450i-board-test\Debug/../kernel/base/ipc/los_queue.c:241
    uwRet = osQueueCreate(usLen, puwQueueID, (usMaxMsgSize + sizeof(UINT32)), &pstQueueCB);
200019f6:	8d3b      	ldrh	r3, [r7, #40]	; 0x28
200019f8:	3304      	adds	r3, #4
200019fa:	b29a      	uxth	r2, r3
200019fc:	f107 0314 	add.w	r3, r7, #20
20001a00:	8978      	ldrh	r0, [r7, #10]
20001a02:	6879      	ldr	r1, [r7, #4]
20001a04:	f7ff fee6 	bl	200017d4 <osQueueCreate>
20001a08:	61b8      	str	r0, [r7, #24]
C:\Users\nitin.deshpande\Documents\GitHub\microsemi-huawei-liteos\microsemi-liteos\mscc-huawei-wsp\sc-gd450i-board-test\Debug/../kernel/base/ipc/los_queue.c:242
    if(LOS_OK != uwRet)
20001a0a:	69bb      	ldr	r3, [r7, #24]
20001a0c:	2b00      	cmp	r3, #0
20001a0e:	d004      	beq.n	20001a1a <LOS_QueueCreate+0x62>
C:\Users\nitin.deshpande\Documents\GitHub\microsemi-huawei-liteos\microsemi-liteos\mscc-huawei-wsp\sc-gd450i-board-test\Debug/../kernel/base/ipc/los_queue.c:244
    {
        LOS_IntRestore(uvIntSave);
20001a10:	69f8      	ldr	r0, [r7, #28]
20001a12:	f7fe fcfc 	bl	2000040e <LOS_IntRestore>
C:\Users\nitin.deshpande\Documents\GitHub\microsemi-huawei-liteos\microsemi-liteos\mscc-huawei-wsp\sc-gd450i-board-test\Debug/../kernel/base/ipc/los_queue.c:245
        return uwRet;
20001a16:	69bb      	ldr	r3, [r7, #24]
20001a18:	e015      	b.n	20001a46 <LOS_QueueCreate+0x8e>
C:\Users\nitin.deshpande\Documents\GitHub\microsemi-huawei-liteos\microsemi-liteos\mscc-huawei-wsp\sc-gd450i-board-test\Debug/../kernel/base/ipc/los_queue.c:247
    }
    LOS_ListInit(&pstQueueCB->stWriteList);
20001a1a:	697b      	ldr	r3, [r7, #20]
20001a1c:	3314      	adds	r3, #20
20001a1e:	4618      	mov	r0, r3
20001a20:	f7ff fe50 	bl	200016c4 <LOS_ListInit>
C:\Users\nitin.deshpande\Documents\GitHub\microsemi-huawei-liteos\microsemi-liteos\mscc-huawei-wsp\sc-gd450i-board-test\Debug/../kernel/base/ipc/los_queue.c:248
    LOS_ListInit(&pstQueueCB->stReadList);
20001a24:	697b      	ldr	r3, [r7, #20]
20001a26:	331c      	adds	r3, #28
20001a28:	4618      	mov	r0, r3
20001a2a:	f7ff fe4b 	bl	200016c4 <LOS_ListInit>
C:\Users\nitin.deshpande\Documents\GitHub\microsemi-huawei-liteos\microsemi-liteos\mscc-huawei-wsp\sc-gd450i-board-test\Debug/../kernel/base/ipc/los_queue.c:249
    LOS_ListInit(&pstQueueCB->stMemList);
20001a2e:	697b      	ldr	r3, [r7, #20]
20001a30:	3324      	adds	r3, #36	; 0x24
20001a32:	4618      	mov	r0, r3
20001a34:	f7ff fe46 	bl	200016c4 <LOS_ListInit>
C:\Users\nitin.deshpande\Documents\GitHub\microsemi-huawei-liteos\microsemi-liteos\mscc-huawei-wsp\sc-gd450i-board-test\Debug/../kernel/base/ipc/los_queue.c:250
    pstQueueCB->usWritableCnt = usLen;
20001a38:	697b      	ldr	r3, [r7, #20]
20001a3a:	897a      	ldrh	r2, [r7, #10]
20001a3c:	81da      	strh	r2, [r3, #14]
C:\Users\nitin.deshpande\Documents\GitHub\microsemi-huawei-liteos\microsemi-liteos\mscc-huawei-wsp\sc-gd450i-board-test\Debug/../kernel/base/ipc/los_queue.c:252

    LOS_IntRestore(uvIntSave);
20001a3e:	69f8      	ldr	r0, [r7, #28]
20001a40:	f7fe fce5 	bl	2000040e <LOS_IntRestore>
C:\Users\nitin.deshpande\Documents\GitHub\microsemi-huawei-liteos\microsemi-liteos\mscc-huawei-wsp\sc-gd450i-board-test\Debug/../kernel/base/ipc/los_queue.c:254

    return LOS_OK;
20001a44:	2300      	movs	r3, #0
C:\Users\nitin.deshpande\Documents\GitHub\microsemi-huawei-liteos\microsemi-liteos\mscc-huawei-wsp\sc-gd450i-board-test\Debug/../kernel/base/ipc/los_queue.c:255 (discriminator 1)
}
20001a46:	4618      	mov	r0, r3
20001a48:	3720      	adds	r7, #32
20001a4a:	46bd      	mov	sp, r7
20001a4c:	bd80      	pop	{r7, pc}
20001a4e:	bf00      	nop
20001a50:	0200060c 	.word	0x0200060c
20001a54:	02000603 	.word	0x02000603
20001a58:	0200060d 	.word	0x0200060d

20001a5c <LOS_QueueRead>:
LOS_QueueRead():
C:\Users\nitin.deshpande\Documents\GitHub\microsemi-huawei-liteos\microsemi-liteos\mscc-huawei-wsp\sc-gd450i-board-test\Debug/../kernel/base/ipc/los_queue.c:270
 *****************************************************************************/
LITE_OS_SEC_TEXT UINT32 LOS_QueueRead(UINT32  uwQueueID,
                    VOID *  pBufferAddr,
                    UINT32  uwBufferSize,
                    UINT32  uwTimeOut)
{
20001a5c:	b580      	push	{r7, lr}
20001a5e:	b08a      	sub	sp, #40	; 0x28
20001a60:	af00      	add	r7, sp, #0
20001a62:	60f8      	str	r0, [r7, #12]
20001a64:	60b9      	str	r1, [r7, #8]
20001a66:	607a      	str	r2, [r7, #4]
20001a68:	603b      	str	r3, [r7, #0]
C:\Users\nitin.deshpande\Documents\GitHub\microsemi-huawei-liteos\microsemi-liteos\mscc-huawei-wsp\sc-gd450i-board-test\Debug/../kernel/base/ipc/los_queue.c:275
    QUEUE_CB_S    *pstQueueCB;
    UINT8       *pucQueueNode;
    LOS_TASK_CB  *pstRunTsk;
    UINTPTR     uvIntSave;
    UINT32      uwRet = LOS_OK;
20001a6a:	2300      	movs	r3, #0
20001a6c:	623b      	str	r3, [r7, #32]
C:\Users\nitin.deshpande\Documents\GitHub\microsemi-huawei-liteos\microsemi-liteos\mscc-huawei-wsp\sc-gd450i-board-test\Debug/../kernel/base/ipc/los_queue.c:276
    UINT32 uwInnerID = uwQueueID - 1;
20001a6e:	68fb      	ldr	r3, [r7, #12]
20001a70:	3b01      	subs	r3, #1
20001a72:	61fb      	str	r3, [r7, #28]
C:\Users\nitin.deshpande\Documents\GitHub\microsemi-huawei-liteos\microsemi-liteos\mscc-huawei-wsp\sc-gd450i-board-test\Debug/../kernel/base/ipc/los_queue.c:278

    if ( uwInnerID >= LOSCFG_BASE_IPC_QUEUE_LIMIT)
20001a74:	69fb      	ldr	r3, [r7, #28]
20001a76:	2b09      	cmp	r3, #9
20001a78:	d901      	bls.n	20001a7e <LOS_QueueRead+0x22>
C:\Users\nitin.deshpande\Documents\GitHub\microsemi-huawei-liteos\microsemi-liteos\mscc-huawei-wsp\sc-gd450i-board-test\Debug/../kernel/base/ipc/los_queue.c:280
    {
        return LOS_ERRNO_QUEUE_READ_INVALID;
20001a7a:	4b50      	ldr	r3, [pc, #320]	; (20001bbc <LOS_QueueRead+0x160>)
20001a7c:	e099      	b.n	20001bb2 <LOS_QueueRead+0x156>
C:\Users\nitin.deshpande\Documents\GitHub\microsemi-huawei-liteos\microsemi-liteos\mscc-huawei-wsp\sc-gd450i-board-test\Debug/../kernel/base/ipc/los_queue.c:283
    }

    if (NULL == pBufferAddr)
20001a7e:	68bb      	ldr	r3, [r7, #8]
20001a80:	2b00      	cmp	r3, #0
20001a82:	d101      	bne.n	20001a88 <LOS_QueueRead+0x2c>
C:\Users\nitin.deshpande\Documents\GitHub\microsemi-huawei-liteos\microsemi-liteos\mscc-huawei-wsp\sc-gd450i-board-test\Debug/../kernel/base/ipc/los_queue.c:285
    {
        return LOS_ERRNO_QUEUE_READ_PTR_NULL;
20001a84:	4b4e      	ldr	r3, [pc, #312]	; (20001bc0 <LOS_QueueRead+0x164>)
20001a86:	e094      	b.n	20001bb2 <LOS_QueueRead+0x156>
C:\Users\nitin.deshpande\Documents\GitHub\microsemi-huawei-liteos\microsemi-liteos\mscc-huawei-wsp\sc-gd450i-board-test\Debug/../kernel/base/ipc/los_queue.c:288
    }

    if (0 == uwBufferSize)
20001a88:	687b      	ldr	r3, [r7, #4]
20001a8a:	2b00      	cmp	r3, #0
20001a8c:	d101      	bne.n	20001a92 <LOS_QueueRead+0x36>
C:\Users\nitin.deshpande\Documents\GitHub\microsemi-huawei-liteos\microsemi-liteos\mscc-huawei-wsp\sc-gd450i-board-test\Debug/../kernel/base/ipc/los_queue.c:290
    {
        return LOS_ERRNO_QUEUE_READSIZE_ISZERO;
20001a8e:	4b4d      	ldr	r3, [pc, #308]	; (20001bc4 <LOS_QueueRead+0x168>)
20001a90:	e08f      	b.n	20001bb2 <LOS_QueueRead+0x156>
C:\Users\nitin.deshpande\Documents\GitHub\microsemi-huawei-liteos\microsemi-liteos\mscc-huawei-wsp\sc-gd450i-board-test\Debug/../kernel/base/ipc/los_queue.c:293
    }

    if (LOS_NO_WAIT != uwTimeOut)
20001a92:	683b      	ldr	r3, [r7, #0]
20001a94:	2b00      	cmp	r3, #0
20001a96:	d005      	beq.n	20001aa4 <LOS_QueueRead+0x48>
C:\Users\nitin.deshpande\Documents\GitHub\microsemi-huawei-liteos\microsemi-liteos\mscc-huawei-wsp\sc-gd450i-board-test\Debug/../kernel/base/ipc/los_queue.c:295
    {
        if (OS_INT_ACTIVE)
20001a98:	4b4b      	ldr	r3, [pc, #300]	; (20001bc8 <LOS_QueueRead+0x16c>)
20001a9a:	681b      	ldr	r3, [r3, #0]
20001a9c:	2b00      	cmp	r3, #0
20001a9e:	d001      	beq.n	20001aa4 <LOS_QueueRead+0x48>
C:\Users\nitin.deshpande\Documents\GitHub\microsemi-huawei-liteos\microsemi-liteos\mscc-huawei-wsp\sc-gd450i-board-test\Debug/../kernel/base/ipc/los_queue.c:297
        {
            return LOS_ERRNO_QUEUE_READ_IN_INTERRUPT;
20001aa0:	4b4a      	ldr	r3, [pc, #296]	; (20001bcc <LOS_QueueRead+0x170>)
20001aa2:	e086      	b.n	20001bb2 <LOS_QueueRead+0x156>
C:\Users\nitin.deshpande\Documents\GitHub\microsemi-huawei-liteos\microsemi-liteos\mscc-huawei-wsp\sc-gd450i-board-test\Debug/../kernel/base/ipc/los_queue.c:301
        }
    }

    uvIntSave = LOS_IntLock();
20001aa4:	f7fe fcab 	bl	200003fe <LOS_IntLock>
20001aa8:	6278      	str	r0, [r7, #36]	; 0x24
C:\Users\nitin.deshpande\Documents\GitHub\microsemi-huawei-liteos\microsemi-liteos\mscc-huawei-wsp\sc-gd450i-board-test\Debug/../kernel/base/ipc/los_queue.c:302
    pstQueueCB = (QUEUE_CB_S *)GET_QUEUE_HANDLE(uwInnerID);
20001aaa:	4b49      	ldr	r3, [pc, #292]	; (20001bd0 <LOS_QueueRead+0x174>)
20001aac:	681a      	ldr	r2, [r3, #0]
20001aae:	69fb      	ldr	r3, [r7, #28]
20001ab0:	212c      	movs	r1, #44	; 0x2c
20001ab2:	fb01 f303 	mul.w	r3, r1, r3
20001ab6:	4413      	add	r3, r2
20001ab8:	61bb      	str	r3, [r7, #24]
C:\Users\nitin.deshpande\Documents\GitHub\microsemi-huawei-liteos\microsemi-liteos\mscc-huawei-wsp\sc-gd450i-board-test\Debug/../kernel/base/ipc/los_queue.c:304

    if (OS_QUEUE_UNUSED == pstQueueCB->usQueueState)
20001aba:	69bb      	ldr	r3, [r7, #24]
20001abc:	889b      	ldrh	r3, [r3, #4]
20001abe:	2b00      	cmp	r3, #0
20001ac0:	d102      	bne.n	20001ac8 <LOS_QueueRead+0x6c>
C:\Users\nitin.deshpande\Documents\GitHub\microsemi-huawei-liteos\microsemi-liteos\mscc-huawei-wsp\sc-gd450i-board-test\Debug/../kernel/base/ipc/los_queue.c:306
    {
        GOTO_QUEUE_END(LOS_ERRNO_QUEUE_READ_NOT_CREATE);
20001ac2:	4b44      	ldr	r3, [pc, #272]	; (20001bd4 <LOS_QueueRead+0x178>)
20001ac4:	623b      	str	r3, [r7, #32]
20001ac6:	e070      	b.n	20001baa <LOS_QueueRead+0x14e>
C:\Users\nitin.deshpande\Documents\GitHub\microsemi-huawei-liteos\microsemi-liteos\mscc-huawei-wsp\sc-gd450i-board-test\Debug/../kernel/base/ipc/los_queue.c:309
    }

    if (0 == pstQueueCB->usReadableCnt)
20001ac8:	69bb      	ldr	r3, [r7, #24]
20001aca:	8a1b      	ldrh	r3, [r3, #16]
20001acc:	2b00      	cmp	r3, #0
20001ace:	d12e      	bne.n	20001b2e <LOS_QueueRead+0xd2>
C:\Users\nitin.deshpande\Documents\GitHub\microsemi-huawei-liteos\microsemi-liteos\mscc-huawei-wsp\sc-gd450i-board-test\Debug/../kernel/base/ipc/los_queue.c:311
    {
        if (LOS_NO_WAIT == uwTimeOut)
20001ad0:	683b      	ldr	r3, [r7, #0]
20001ad2:	2b00      	cmp	r3, #0
20001ad4:	d102      	bne.n	20001adc <LOS_QueueRead+0x80>
C:\Users\nitin.deshpande\Documents\GitHub\microsemi-huawei-liteos\microsemi-liteos\mscc-huawei-wsp\sc-gd450i-board-test\Debug/../kernel/base/ipc/los_queue.c:313
        {
            GOTO_QUEUE_END(LOS_ERRNO_QUEUE_ISEMPTY);
20001ad6:	4b40      	ldr	r3, [pc, #256]	; (20001bd8 <LOS_QueueRead+0x17c>)
20001ad8:	623b      	str	r3, [r7, #32]
20001ada:	e066      	b.n	20001baa <LOS_QueueRead+0x14e>
C:\Users\nitin.deshpande\Documents\GitHub\microsemi-huawei-liteos\microsemi-liteos\mscc-huawei-wsp\sc-gd450i-board-test\Debug/../kernel/base/ipc/los_queue.c:316
        }

        if (g_usLosTaskLock)
20001adc:	4b3f      	ldr	r3, [pc, #252]	; (20001bdc <LOS_QueueRead+0x180>)
20001ade:	881b      	ldrh	r3, [r3, #0]
20001ae0:	2b00      	cmp	r3, #0
20001ae2:	d002      	beq.n	20001aea <LOS_QueueRead+0x8e>
C:\Users\nitin.deshpande\Documents\GitHub\microsemi-huawei-liteos\microsemi-liteos\mscc-huawei-wsp\sc-gd450i-board-test\Debug/../kernel/base/ipc/los_queue.c:318
        {
            GOTO_QUEUE_END(LOS_ERRNO_QUEUE_PEND_IN_LOCK);
20001ae4:	4b3e      	ldr	r3, [pc, #248]	; (20001be0 <LOS_QueueRead+0x184>)
20001ae6:	623b      	str	r3, [r7, #32]
20001ae8:	e05f      	b.n	20001baa <LOS_QueueRead+0x14e>
C:\Users\nitin.deshpande\Documents\GitHub\microsemi-huawei-liteos\microsemi-liteos\mscc-huawei-wsp\sc-gd450i-board-test\Debug/../kernel/base/ipc/los_queue.c:321
        }

        pstRunTsk = (LOS_TASK_CB *)g_stLosTask.pstRunTask;
20001aea:	4b3e      	ldr	r3, [pc, #248]	; (20001be4 <LOS_QueueRead+0x188>)
20001aec:	681b      	ldr	r3, [r3, #0]
20001aee:	617b      	str	r3, [r7, #20]
C:\Users\nitin.deshpande\Documents\GitHub\microsemi-huawei-liteos\microsemi-liteos\mscc-huawei-wsp\sc-gd450i-board-test\Debug/../kernel/base/ipc/los_queue.c:322
        osQueuePend(pstRunTsk, &pstQueueCB->stReadList, uwTimeOut);
20001af0:	69bb      	ldr	r3, [r7, #24]
20001af2:	331c      	adds	r3, #28
20001af4:	683a      	ldr	r2, [r7, #0]
20001af6:	4619      	mov	r1, r3
20001af8:	6978      	ldr	r0, [r7, #20]
20001afa:	f7ff fec1 	bl	20001880 <osQueuePend>
C:\Users\nitin.deshpande\Documents\GitHub\microsemi-huawei-liteos\microsemi-liteos\mscc-huawei-wsp\sc-gd450i-board-test\Debug/../kernel/base/ipc/los_queue.c:323
        LOS_IntRestore(uvIntSave);
20001afe:	6a78      	ldr	r0, [r7, #36]	; 0x24
20001b00:	f7fe fc85 	bl	2000040e <LOS_IntRestore>
C:\Users\nitin.deshpande\Documents\GitHub\microsemi-huawei-liteos\microsemi-liteos\mscc-huawei-wsp\sc-gd450i-board-test\Debug/../kernel/base/ipc/los_queue.c:324
        LOS_Schedule();
20001b04:	f7fe fcdc 	bl	200004c0 <LOS_Schedule>
C:\Users\nitin.deshpande\Documents\GitHub\microsemi-huawei-liteos\microsemi-liteos\mscc-huawei-wsp\sc-gd450i-board-test\Debug/../kernel/base/ipc/los_queue.c:326

        uvIntSave = LOS_IntLock();
20001b08:	f7fe fc79 	bl	200003fe <LOS_IntLock>
20001b0c:	6278      	str	r0, [r7, #36]	; 0x24
C:\Users\nitin.deshpande\Documents\GitHub\microsemi-huawei-liteos\microsemi-liteos\mscc-huawei-wsp\sc-gd450i-board-test\Debug/../kernel/base/ipc/los_queue.c:328

        if (pstRunTsk->usTaskStatus & OS_TASK_STATUS_TIMEOUT)
20001b0e:	697b      	ldr	r3, [r7, #20]
20001b10:	889b      	ldrh	r3, [r3, #4]
20001b12:	f003 0340 	and.w	r3, r3, #64	; 0x40
20001b16:	2b00      	cmp	r3, #0
20001b18:	d00f      	beq.n	20001b3a <LOS_QueueRead+0xde>
C:\Users\nitin.deshpande\Documents\GitHub\microsemi-huawei-liteos\microsemi-liteos\mscc-huawei-wsp\sc-gd450i-board-test\Debug/../kernel/base/ipc/los_queue.c:330
        {
            pstRunTsk->usTaskStatus &= (~OS_TASK_STATUS_TIMEOUT);
20001b1a:	697b      	ldr	r3, [r7, #20]
20001b1c:	889b      	ldrh	r3, [r3, #4]
20001b1e:	f023 0340 	bic.w	r3, r3, #64	; 0x40
20001b22:	b29a      	uxth	r2, r3
20001b24:	697b      	ldr	r3, [r7, #20]
20001b26:	809a      	strh	r2, [r3, #4]
C:\Users\nitin.deshpande\Documents\GitHub\microsemi-huawei-liteos\microsemi-liteos\mscc-huawei-wsp\sc-gd450i-board-test\Debug/../kernel/base/ipc/los_queue.c:331
            GOTO_QUEUE_END(LOS_ERRNO_QUEUE_TIMEOUT);
20001b28:	4b2f      	ldr	r3, [pc, #188]	; (20001be8 <LOS_QueueRead+0x18c>)
20001b2a:	623b      	str	r3, [r7, #32]
20001b2c:	e03d      	b.n	20001baa <LOS_QueueRead+0x14e>
C:\Users\nitin.deshpande\Documents\GitHub\microsemi-huawei-liteos\microsemi-liteos\mscc-huawei-wsp\sc-gd450i-board-test\Debug/../kernel/base/ipc/los_queue.c:336
        }
    }
    else
    {
        pstQueueCB->usReadableCnt--;
20001b2e:	69bb      	ldr	r3, [r7, #24]
20001b30:	8a1b      	ldrh	r3, [r3, #16]
20001b32:	3b01      	subs	r3, #1
20001b34:	b29a      	uxth	r2, r3
20001b36:	69bb      	ldr	r3, [r7, #24]
20001b38:	821a      	strh	r2, [r3, #16]
C:\Users\nitin.deshpande\Documents\GitHub\microsemi-huawei-liteos\microsemi-liteos\mscc-huawei-wsp\sc-gd450i-board-test\Debug/../kernel/base/ipc/los_queue.c:339
    }

    pucQueueNode = &(pstQueueCB->pucQueue[((pstQueueCB->usQueueHead) * (pstQueueCB->usQueueSize))]);
20001b3a:	69bb      	ldr	r3, [r7, #24]
20001b3c:	681b      	ldr	r3, [r3, #0]
20001b3e:	69ba      	ldr	r2, [r7, #24]
20001b40:	8952      	ldrh	r2, [r2, #10]
20001b42:	4611      	mov	r1, r2
20001b44:	69ba      	ldr	r2, [r7, #24]
20001b46:	8912      	ldrh	r2, [r2, #8]
20001b48:	fb02 f201 	mul.w	r2, r2, r1
20001b4c:	4413      	add	r3, r2
20001b4e:	613b      	str	r3, [r7, #16]
C:\Users\nitin.deshpande\Documents\GitHub\microsemi-huawei-liteos\microsemi-liteos\mscc-huawei-wsp\sc-gd450i-board-test\Debug/../kernel/base/ipc/los_queue.c:340
   *(UINT32*)pBufferAddr = *(UINT32*)(pucQueueNode);
20001b50:	693b      	ldr	r3, [r7, #16]
20001b52:	681a      	ldr	r2, [r3, #0]
20001b54:	68bb      	ldr	r3, [r7, #8]
20001b56:	601a      	str	r2, [r3, #0]
C:\Users\nitin.deshpande\Documents\GitHub\microsemi-huawei-liteos\microsemi-liteos\mscc-huawei-wsp\sc-gd450i-board-test\Debug/../kernel/base/ipc/los_queue.c:341
    if (++pstQueueCB->usQueueHead == pstQueueCB->usQueueLen)
20001b58:	69bb      	ldr	r3, [r7, #24]
20001b5a:	895b      	ldrh	r3, [r3, #10]
20001b5c:	3301      	adds	r3, #1
20001b5e:	b29a      	uxth	r2, r3
20001b60:	69bb      	ldr	r3, [r7, #24]
20001b62:	815a      	strh	r2, [r3, #10]
20001b64:	69bb      	ldr	r3, [r7, #24]
20001b66:	895a      	ldrh	r2, [r3, #10]
20001b68:	69bb      	ldr	r3, [r7, #24]
20001b6a:	88db      	ldrh	r3, [r3, #6]
20001b6c:	429a      	cmp	r2, r3
20001b6e:	d102      	bne.n	20001b76 <LOS_QueueRead+0x11a>
C:\Users\nitin.deshpande\Documents\GitHub\microsemi-huawei-liteos\microsemi-liteos\mscc-huawei-wsp\sc-gd450i-board-test\Debug/../kernel/base/ipc/los_queue.c:343
    {
        pstQueueCB->usQueueHead = 0;
20001b70:	69bb      	ldr	r3, [r7, #24]
20001b72:	2200      	movs	r2, #0
20001b74:	815a      	strh	r2, [r3, #10]
C:\Users\nitin.deshpande\Documents\GitHub\microsemi-huawei-liteos\microsemi-liteos\mscc-huawei-wsp\sc-gd450i-board-test\Debug/../kernel/base/ipc/los_queue.c:346
    }

    if (!LOS_ListEmpty(&pstQueueCB->stWriteList))
20001b76:	69bb      	ldr	r3, [r7, #24]
20001b78:	3314      	adds	r3, #20
20001b7a:	4618      	mov	r0, r3
20001b7c:	f7ff fdf4 	bl	20001768 <LOS_ListEmpty>
20001b80:	4603      	mov	r3, r0
20001b82:	2b00      	cmp	r3, #0
20001b84:	d10b      	bne.n	20001b9e <LOS_QueueRead+0x142>
C:\Users\nitin.deshpande\Documents\GitHub\microsemi-huawei-liteos\microsemi-liteos\mscc-huawei-wsp\sc-gd450i-board-test\Debug/../kernel/base/ipc/los_queue.c:348
    {
        osQueueWakeUp(&pstQueueCB->stWriteList);
20001b86:	69bb      	ldr	r3, [r7, #24]
20001b88:	3314      	adds	r3, #20
20001b8a:	4618      	mov	r0, r3
20001b8c:	f7ff fed4 	bl	20001938 <osQueueWakeUp>
C:\Users\nitin.deshpande\Documents\GitHub\microsemi-huawei-liteos\microsemi-liteos\mscc-huawei-wsp\sc-gd450i-board-test\Debug/../kernel/base/ipc/los_queue.c:349
        LOS_IntRestore(uvIntSave);
20001b90:	6a78      	ldr	r0, [r7, #36]	; 0x24
20001b92:	f7fe fc3c 	bl	2000040e <LOS_IntRestore>
C:\Users\nitin.deshpande\Documents\GitHub\microsemi-huawei-liteos\microsemi-liteos\mscc-huawei-wsp\sc-gd450i-board-test\Debug/../kernel/base/ipc/los_queue.c:350
        LOS_Schedule();
20001b96:	f7fe fc93 	bl	200004c0 <LOS_Schedule>
C:\Users\nitin.deshpande\Documents\GitHub\microsemi-huawei-liteos\microsemi-liteos\mscc-huawei-wsp\sc-gd450i-board-test\Debug/../kernel/base/ipc/los_queue.c:352

        return LOS_OK;
20001b9a:	2300      	movs	r3, #0
20001b9c:	e009      	b.n	20001bb2 <LOS_QueueRead+0x156>
C:\Users\nitin.deshpande\Documents\GitHub\microsemi-huawei-liteos\microsemi-liteos\mscc-huawei-wsp\sc-gd450i-board-test\Debug/../kernel/base/ipc/los_queue.c:356
    }
    else
    {
        pstQueueCB->usWritableCnt++;
20001b9e:	69bb      	ldr	r3, [r7, #24]
20001ba0:	89db      	ldrh	r3, [r3, #14]
20001ba2:	3301      	adds	r3, #1
20001ba4:	b29a      	uxth	r2, r3
20001ba6:	69bb      	ldr	r3, [r7, #24]
20001ba8:	81da      	strh	r2, [r3, #14]
C:\Users\nitin.deshpande\Documents\GitHub\microsemi-huawei-liteos\microsemi-liteos\mscc-huawei-wsp\sc-gd450i-board-test\Debug/../kernel/base/ipc/los_queue.c:360
    }

QUEUE_END:
    LOS_IntRestore(uvIntSave);
20001baa:	6a78      	ldr	r0, [r7, #36]	; 0x24
20001bac:	f7fe fc2f 	bl	2000040e <LOS_IntRestore>
C:\Users\nitin.deshpande\Documents\GitHub\microsemi-huawei-liteos\microsemi-liteos\mscc-huawei-wsp\sc-gd450i-board-test\Debug/../kernel/base/ipc/los_queue.c:361
    return uwRet;
20001bb0:	6a3b      	ldr	r3, [r7, #32]
C:\Users\nitin.deshpande\Documents\GitHub\microsemi-huawei-liteos\microsemi-liteos\mscc-huawei-wsp\sc-gd450i-board-test\Debug/../kernel/base/ipc/los_queue.c:362
}
20001bb2:	4618      	mov	r0, r3
20001bb4:	3728      	adds	r7, #40	; 0x28
20001bb6:	46bd      	mov	sp, r7
20001bb8:	bd80      	pop	{r7, pc}
20001bba:	bf00      	nop
20001bbc:	0200060e 	.word	0x0200060e
20001bc0:	0200060f 	.word	0x0200060f
20001bc4:	02000610 	.word	0x02000610
20001bc8:	200047f0 	.word	0x200047f0
20001bcc:	02000618 	.word	0x02000618
20001bd0:	20004858 	.word	0x20004858
20001bd4:	0200061c 	.word	0x0200061c
20001bd8:	0200061d 	.word	0x0200061d
20001bdc:	20004968 	.word	0x20004968
20001be0:	02000606 	.word	0x02000606
20001be4:	2000496c 	.word	0x2000496c
20001be8:	02000607 	.word	0x02000607

20001bec <LOS_QueueWrite>:
LOS_QueueWrite():
C:\Users\nitin.deshpande\Documents\GitHub\microsemi-huawei-liteos\microsemi-liteos\mscc-huawei-wsp\sc-gd450i-board-test\Debug/../kernel/base/ipc/los_queue.c:378
 *****************************************************************************/
LITE_OS_SEC_TEXT UINT32 LOS_QueueWrite( UINT32 uwQueueID,
                                     VOID * pBufferAddr,
                                     UINT32 uwBufferSize,
                                     UINT32 uwTimeOut )
{
20001bec:	b580      	push	{r7, lr}
20001bee:	b08a      	sub	sp, #40	; 0x28
20001bf0:	af00      	add	r7, sp, #0
20001bf2:	60f8      	str	r0, [r7, #12]
20001bf4:	60b9      	str	r1, [r7, #8]
20001bf6:	607a      	str	r2, [r7, #4]
20001bf8:	603b      	str	r3, [r7, #0]
C:\Users\nitin.deshpande\Documents\GitHub\microsemi-huawei-liteos\microsemi-liteos\mscc-huawei-wsp\sc-gd450i-board-test\Debug/../kernel/base/ipc/los_queue.c:383
    QUEUE_CB_S *pstQueueCB;
    UINT8    *pucQueueNode;
    LOS_TASK_CB *pstRunTsk;
    UINTPTR  uvIntSave;
    UINT32  uwRet = LOS_OK;
20001bfa:	2300      	movs	r3, #0
20001bfc:	623b      	str	r3, [r7, #32]
C:\Users\nitin.deshpande\Documents\GitHub\microsemi-huawei-liteos\microsemi-liteos\mscc-huawei-wsp\sc-gd450i-board-test\Debug/../kernel/base/ipc/los_queue.c:384
    UINT32 uwInnerID = uwQueueID - 1;
20001bfe:	68fb      	ldr	r3, [r7, #12]
20001c00:	3b01      	subs	r3, #1
20001c02:	61fb      	str	r3, [r7, #28]
C:\Users\nitin.deshpande\Documents\GitHub\microsemi-huawei-liteos\microsemi-liteos\mscc-huawei-wsp\sc-gd450i-board-test\Debug/../kernel/base/ipc/los_queue.c:386

    if(uwInnerID >= LOSCFG_BASE_IPC_QUEUE_LIMIT)
20001c04:	69fb      	ldr	r3, [r7, #28]
20001c06:	2b09      	cmp	r3, #9
20001c08:	d901      	bls.n	20001c0e <LOS_QueueWrite+0x22>
C:\Users\nitin.deshpande\Documents\GitHub\microsemi-huawei-liteos\microsemi-liteos\mscc-huawei-wsp\sc-gd450i-board-test\Debug/../kernel/base/ipc/los_queue.c:388
    {
        return LOS_ERRNO_QUEUE_WRITE_INVALID;
20001c0a:	4b54      	ldr	r3, [pc, #336]	; (20001d5c <LOS_QueueWrite+0x170>)
20001c0c:	e0a1      	b.n	20001d52 <LOS_QueueWrite+0x166>
C:\Users\nitin.deshpande\Documents\GitHub\microsemi-huawei-liteos\microsemi-liteos\mscc-huawei-wsp\sc-gd450i-board-test\Debug/../kernel/base/ipc/los_queue.c:391
    }

    if (NULL == pBufferAddr)
20001c0e:	68bb      	ldr	r3, [r7, #8]
20001c10:	2b00      	cmp	r3, #0
20001c12:	d101      	bne.n	20001c18 <LOS_QueueWrite+0x2c>
C:\Users\nitin.deshpande\Documents\GitHub\microsemi-huawei-liteos\microsemi-liteos\mscc-huawei-wsp\sc-gd450i-board-test\Debug/../kernel/base/ipc/los_queue.c:393
    {
        return LOS_ERRNO_QUEUE_WRITE_PTR_NULL;
20001c14:	4b52      	ldr	r3, [pc, #328]	; (20001d60 <LOS_QueueWrite+0x174>)
20001c16:	e09c      	b.n	20001d52 <LOS_QueueWrite+0x166>
C:\Users\nitin.deshpande\Documents\GitHub\microsemi-huawei-liteos\microsemi-liteos\mscc-huawei-wsp\sc-gd450i-board-test\Debug/../kernel/base/ipc/los_queue.c:396
    }

    if(0 == uwBufferSize)
20001c18:	687b      	ldr	r3, [r7, #4]
20001c1a:	2b00      	cmp	r3, #0
20001c1c:	d101      	bne.n	20001c22 <LOS_QueueWrite+0x36>
C:\Users\nitin.deshpande\Documents\GitHub\microsemi-huawei-liteos\microsemi-liteos\mscc-huawei-wsp\sc-gd450i-board-test\Debug/../kernel/base/ipc/los_queue.c:398
    {
        return LOS_ERRNO_QUEUE_WRITESIZE_ISZERO;
20001c1e:	4b51      	ldr	r3, [pc, #324]	; (20001d64 <LOS_QueueWrite+0x178>)
20001c20:	e097      	b.n	20001d52 <LOS_QueueWrite+0x166>
C:\Users\nitin.deshpande\Documents\GitHub\microsemi-huawei-liteos\microsemi-liteos\mscc-huawei-wsp\sc-gd450i-board-test\Debug/../kernel/base/ipc/los_queue.c:401
    }

    if (LOS_NO_WAIT != uwTimeOut)
20001c22:	683b      	ldr	r3, [r7, #0]
20001c24:	2b00      	cmp	r3, #0
20001c26:	d005      	beq.n	20001c34 <LOS_QueueWrite+0x48>
C:\Users\nitin.deshpande\Documents\GitHub\microsemi-huawei-liteos\microsemi-liteos\mscc-huawei-wsp\sc-gd450i-board-test\Debug/../kernel/base/ipc/los_queue.c:403
    {
        if (OS_INT_ACTIVE)
20001c28:	4b4f      	ldr	r3, [pc, #316]	; (20001d68 <LOS_QueueWrite+0x17c>)
20001c2a:	681b      	ldr	r3, [r3, #0]
20001c2c:	2b00      	cmp	r3, #0
20001c2e:	d001      	beq.n	20001c34 <LOS_QueueWrite+0x48>
C:\Users\nitin.deshpande\Documents\GitHub\microsemi-huawei-liteos\microsemi-liteos\mscc-huawei-wsp\sc-gd450i-board-test\Debug/../kernel/base/ipc/los_queue.c:405
        {
            return LOS_ERRNO_QUEUE_WRITE_IN_INTERRUPT;
20001c30:	4b4e      	ldr	r3, [pc, #312]	; (20001d6c <LOS_QueueWrite+0x180>)
20001c32:	e08e      	b.n	20001d52 <LOS_QueueWrite+0x166>
C:\Users\nitin.deshpande\Documents\GitHub\microsemi-huawei-liteos\microsemi-liteos\mscc-huawei-wsp\sc-gd450i-board-test\Debug/../kernel/base/ipc/los_queue.c:409
        }
    }

    uvIntSave = LOS_IntLock();
20001c34:	f7fe fbe3 	bl	200003fe <LOS_IntLock>
20001c38:	6278      	str	r0, [r7, #36]	; 0x24
C:\Users\nitin.deshpande\Documents\GitHub\microsemi-huawei-liteos\microsemi-liteos\mscc-huawei-wsp\sc-gd450i-board-test\Debug/../kernel/base/ipc/los_queue.c:411

    pstQueueCB = (QUEUE_CB_S *)GET_QUEUE_HANDLE(uwInnerID);
20001c3a:	4b4d      	ldr	r3, [pc, #308]	; (20001d70 <LOS_QueueWrite+0x184>)
20001c3c:	681a      	ldr	r2, [r3, #0]
20001c3e:	69fb      	ldr	r3, [r7, #28]
20001c40:	212c      	movs	r1, #44	; 0x2c
20001c42:	fb01 f303 	mul.w	r3, r1, r3
20001c46:	4413      	add	r3, r2
20001c48:	61bb      	str	r3, [r7, #24]
C:\Users\nitin.deshpande\Documents\GitHub\microsemi-huawei-liteos\microsemi-liteos\mscc-huawei-wsp\sc-gd450i-board-test\Debug/../kernel/base/ipc/los_queue.c:413

    if (OS_QUEUE_UNUSED == pstQueueCB->usQueueState)
20001c4a:	69bb      	ldr	r3, [r7, #24]
20001c4c:	889b      	ldrh	r3, [r3, #4]
20001c4e:	2b00      	cmp	r3, #0
20001c50:	d102      	bne.n	20001c58 <LOS_QueueWrite+0x6c>
C:\Users\nitin.deshpande\Documents\GitHub\microsemi-huawei-liteos\microsemi-liteos\mscc-huawei-wsp\sc-gd450i-board-test\Debug/../kernel/base/ipc/los_queue.c:415
    {
        GOTO_QUEUE_END(LOS_ERRNO_QUEUE_WRITE_NOT_CREATE);
20001c52:	4b48      	ldr	r3, [pc, #288]	; (20001d74 <LOS_QueueWrite+0x188>)
20001c54:	623b      	str	r3, [r7, #32]
20001c56:	e078      	b.n	20001d4a <LOS_QueueWrite+0x15e>
C:\Users\nitin.deshpande\Documents\GitHub\microsemi-huawei-liteos\microsemi-liteos\mscc-huawei-wsp\sc-gd450i-board-test\Debug/../kernel/base/ipc/los_queue.c:418
    }

    if (uwBufferSize > pstQueueCB->usQueueSize)
20001c58:	69bb      	ldr	r3, [r7, #24]
20001c5a:	891b      	ldrh	r3, [r3, #8]
20001c5c:	461a      	mov	r2, r3
20001c5e:	687b      	ldr	r3, [r7, #4]
20001c60:	429a      	cmp	r2, r3
20001c62:	d202      	bcs.n	20001c6a <LOS_QueueWrite+0x7e>
C:\Users\nitin.deshpande\Documents\GitHub\microsemi-huawei-liteos\microsemi-liteos\mscc-huawei-wsp\sc-gd450i-board-test\Debug/../kernel/base/ipc/los_queue.c:420
    {
        GOTO_QUEUE_END(LOS_ERRNO_QUEUE_WRITE_SIZE_TOO_BIG);
20001c64:	4b44      	ldr	r3, [pc, #272]	; (20001d78 <LOS_QueueWrite+0x18c>)
20001c66:	623b      	str	r3, [r7, #32]
20001c68:	e06f      	b.n	20001d4a <LOS_QueueWrite+0x15e>
C:\Users\nitin.deshpande\Documents\GitHub\microsemi-huawei-liteos\microsemi-liteos\mscc-huawei-wsp\sc-gd450i-board-test\Debug/../kernel/base/ipc/los_queue.c:423
    }

    if (0 == pstQueueCB->usWritableCnt)
20001c6a:	69bb      	ldr	r3, [r7, #24]
20001c6c:	89db      	ldrh	r3, [r3, #14]
20001c6e:	2b00      	cmp	r3, #0
20001c70:	d12e      	bne.n	20001cd0 <LOS_QueueWrite+0xe4>
C:\Users\nitin.deshpande\Documents\GitHub\microsemi-huawei-liteos\microsemi-liteos\mscc-huawei-wsp\sc-gd450i-board-test\Debug/../kernel/base/ipc/los_queue.c:425
    {
        if (LOS_NO_WAIT == uwTimeOut)
20001c72:	683b      	ldr	r3, [r7, #0]
20001c74:	2b00      	cmp	r3, #0
20001c76:	d102      	bne.n	20001c7e <LOS_QueueWrite+0x92>
C:\Users\nitin.deshpande\Documents\GitHub\microsemi-huawei-liteos\microsemi-liteos\mscc-huawei-wsp\sc-gd450i-board-test\Debug/../kernel/base/ipc/los_queue.c:427
        {
            GOTO_QUEUE_END(LOS_ERRNO_QUEUE_ISFULL);
20001c78:	4b40      	ldr	r3, [pc, #256]	; (20001d7c <LOS_QueueWrite+0x190>)
20001c7a:	623b      	str	r3, [r7, #32]
20001c7c:	e065      	b.n	20001d4a <LOS_QueueWrite+0x15e>
C:\Users\nitin.deshpande\Documents\GitHub\microsemi-huawei-liteos\microsemi-liteos\mscc-huawei-wsp\sc-gd450i-board-test\Debug/../kernel/base/ipc/los_queue.c:430
        }

        if (g_usLosTaskLock)
20001c7e:	4b40      	ldr	r3, [pc, #256]	; (20001d80 <LOS_QueueWrite+0x194>)
20001c80:	881b      	ldrh	r3, [r3, #0]
20001c82:	2b00      	cmp	r3, #0
20001c84:	d002      	beq.n	20001c8c <LOS_QueueWrite+0xa0>
C:\Users\nitin.deshpande\Documents\GitHub\microsemi-huawei-liteos\microsemi-liteos\mscc-huawei-wsp\sc-gd450i-board-test\Debug/../kernel/base/ipc/los_queue.c:432
        {
            GOTO_QUEUE_END(LOS_ERRNO_QUEUE_PEND_IN_LOCK);
20001c86:	4b3f      	ldr	r3, [pc, #252]	; (20001d84 <LOS_QueueWrite+0x198>)
20001c88:	623b      	str	r3, [r7, #32]
20001c8a:	e05e      	b.n	20001d4a <LOS_QueueWrite+0x15e>
C:\Users\nitin.deshpande\Documents\GitHub\microsemi-huawei-liteos\microsemi-liteos\mscc-huawei-wsp\sc-gd450i-board-test\Debug/../kernel/base/ipc/los_queue.c:435
        }

        pstRunTsk = (LOS_TASK_CB *)g_stLosTask.pstRunTask;
20001c8c:	4b3e      	ldr	r3, [pc, #248]	; (20001d88 <LOS_QueueWrite+0x19c>)
20001c8e:	681b      	ldr	r3, [r3, #0]
20001c90:	617b      	str	r3, [r7, #20]
C:\Users\nitin.deshpande\Documents\GitHub\microsemi-huawei-liteos\microsemi-liteos\mscc-huawei-wsp\sc-gd450i-board-test\Debug/../kernel/base/ipc/los_queue.c:436
        osQueuePend(pstRunTsk, &pstQueueCB->stWriteList, uwTimeOut);
20001c92:	69bb      	ldr	r3, [r7, #24]
20001c94:	3314      	adds	r3, #20
20001c96:	683a      	ldr	r2, [r7, #0]
20001c98:	4619      	mov	r1, r3
20001c9a:	6978      	ldr	r0, [r7, #20]
20001c9c:	f7ff fdf0 	bl	20001880 <osQueuePend>
C:\Users\nitin.deshpande\Documents\GitHub\microsemi-huawei-liteos\microsemi-liteos\mscc-huawei-wsp\sc-gd450i-board-test\Debug/../kernel/base/ipc/los_queue.c:437
        LOS_IntRestore(uvIntSave);
20001ca0:	6a78      	ldr	r0, [r7, #36]	; 0x24
20001ca2:	f7fe fbb4 	bl	2000040e <LOS_IntRestore>
C:\Users\nitin.deshpande\Documents\GitHub\microsemi-huawei-liteos\microsemi-liteos\mscc-huawei-wsp\sc-gd450i-board-test\Debug/../kernel/base/ipc/los_queue.c:438
        LOS_Schedule();
20001ca6:	f7fe fc0b 	bl	200004c0 <LOS_Schedule>
C:\Users\nitin.deshpande\Documents\GitHub\microsemi-huawei-liteos\microsemi-liteos\mscc-huawei-wsp\sc-gd450i-board-test\Debug/../kernel/base/ipc/los_queue.c:440

        uvIntSave = LOS_IntLock();
20001caa:	f7fe fba8 	bl	200003fe <LOS_IntLock>
20001cae:	6278      	str	r0, [r7, #36]	; 0x24
C:\Users\nitin.deshpande\Documents\GitHub\microsemi-huawei-liteos\microsemi-liteos\mscc-huawei-wsp\sc-gd450i-board-test\Debug/../kernel/base/ipc/los_queue.c:441
        if (pstRunTsk->usTaskStatus & OS_TASK_STATUS_TIMEOUT)
20001cb0:	697b      	ldr	r3, [r7, #20]
20001cb2:	889b      	ldrh	r3, [r3, #4]
20001cb4:	f003 0340 	and.w	r3, r3, #64	; 0x40
20001cb8:	2b00      	cmp	r3, #0
20001cba:	d00f      	beq.n	20001cdc <LOS_QueueWrite+0xf0>
C:\Users\nitin.deshpande\Documents\GitHub\microsemi-huawei-liteos\microsemi-liteos\mscc-huawei-wsp\sc-gd450i-board-test\Debug/../kernel/base/ipc/los_queue.c:443
        {
            pstRunTsk->usTaskStatus &= (~OS_TASK_STATUS_TIMEOUT);
20001cbc:	697b      	ldr	r3, [r7, #20]
20001cbe:	889b      	ldrh	r3, [r3, #4]
20001cc0:	f023 0340 	bic.w	r3, r3, #64	; 0x40
20001cc4:	b29a      	uxth	r2, r3
20001cc6:	697b      	ldr	r3, [r7, #20]
20001cc8:	809a      	strh	r2, [r3, #4]
C:\Users\nitin.deshpande\Documents\GitHub\microsemi-huawei-liteos\microsemi-liteos\mscc-huawei-wsp\sc-gd450i-board-test\Debug/../kernel/base/ipc/los_queue.c:444
            GOTO_QUEUE_END(LOS_ERRNO_QUEUE_TIMEOUT);
20001cca:	4b30      	ldr	r3, [pc, #192]	; (20001d8c <LOS_QueueWrite+0x1a0>)
20001ccc:	623b      	str	r3, [r7, #32]
20001cce:	e03c      	b.n	20001d4a <LOS_QueueWrite+0x15e>
C:\Users\nitin.deshpande\Documents\GitHub\microsemi-huawei-liteos\microsemi-liteos\mscc-huawei-wsp\sc-gd450i-board-test\Debug/../kernel/base/ipc/los_queue.c:449
        }
    }
    else
    {
         pstQueueCB->usWritableCnt--;
20001cd0:	69bb      	ldr	r3, [r7, #24]
20001cd2:	89db      	ldrh	r3, [r3, #14]
20001cd4:	3b01      	subs	r3, #1
20001cd6:	b29a      	uxth	r2, r3
20001cd8:	69bb      	ldr	r3, [r7, #24]
20001cda:	81da      	strh	r2, [r3, #14]
C:\Users\nitin.deshpande\Documents\GitHub\microsemi-huawei-liteos\microsemi-liteos\mscc-huawei-wsp\sc-gd450i-board-test\Debug/../kernel/base/ipc/los_queue.c:452
    }

    pucQueueNode = &(pstQueueCB->pucQueue[((pstQueueCB->usQueueTail) * (pstQueueCB->usQueueSize))]);
20001cdc:	69bb      	ldr	r3, [r7, #24]
20001cde:	681b      	ldr	r3, [r3, #0]
20001ce0:	69ba      	ldr	r2, [r7, #24]
20001ce2:	8992      	ldrh	r2, [r2, #12]
20001ce4:	4611      	mov	r1, r2
20001ce6:	69ba      	ldr	r2, [r7, #24]
20001ce8:	8912      	ldrh	r2, [r2, #8]
20001cea:	fb02 f201 	mul.w	r2, r2, r1
20001cee:	4413      	add	r3, r2
20001cf0:	613b      	str	r3, [r7, #16]
C:\Users\nitin.deshpande\Documents\GitHub\microsemi-huawei-liteos\microsemi-liteos\mscc-huawei-wsp\sc-gd450i-board-test\Debug/../kernel/base/ipc/los_queue.c:453
    *((UINT32 *)pucQueueNode) = (UINT32)pBufferAddr;
20001cf2:	68ba      	ldr	r2, [r7, #8]
20001cf4:	693b      	ldr	r3, [r7, #16]
20001cf6:	601a      	str	r2, [r3, #0]
C:\Users\nitin.deshpande\Documents\GitHub\microsemi-huawei-liteos\microsemi-liteos\mscc-huawei-wsp\sc-gd450i-board-test\Debug/../kernel/base/ipc/los_queue.c:455

    if(++pstQueueCB->usQueueTail == pstQueueCB->usQueueLen)
20001cf8:	69bb      	ldr	r3, [r7, #24]
20001cfa:	899b      	ldrh	r3, [r3, #12]
20001cfc:	3301      	adds	r3, #1
20001cfe:	b29a      	uxth	r2, r3
20001d00:	69bb      	ldr	r3, [r7, #24]
20001d02:	819a      	strh	r2, [r3, #12]
20001d04:	69bb      	ldr	r3, [r7, #24]
20001d06:	899a      	ldrh	r2, [r3, #12]
20001d08:	69bb      	ldr	r3, [r7, #24]
20001d0a:	88db      	ldrh	r3, [r3, #6]
20001d0c:	429a      	cmp	r2, r3
20001d0e:	d102      	bne.n	20001d16 <LOS_QueueWrite+0x12a>
C:\Users\nitin.deshpande\Documents\GitHub\microsemi-huawei-liteos\microsemi-liteos\mscc-huawei-wsp\sc-gd450i-board-test\Debug/../kernel/base/ipc/los_queue.c:457
    {
        pstQueueCB->usQueueTail = 0;
20001d10:	69bb      	ldr	r3, [r7, #24]
20001d12:	2200      	movs	r2, #0
20001d14:	819a      	strh	r2, [r3, #12]
C:\Users\nitin.deshpande\Documents\GitHub\microsemi-huawei-liteos\microsemi-liteos\mscc-huawei-wsp\sc-gd450i-board-test\Debug/../kernel/base/ipc/los_queue.c:460
    }

    if (!LOS_ListEmpty(&pstQueueCB->stReadList))
20001d16:	69bb      	ldr	r3, [r7, #24]
20001d18:	331c      	adds	r3, #28
20001d1a:	4618      	mov	r0, r3
20001d1c:	f7ff fd24 	bl	20001768 <LOS_ListEmpty>
20001d20:	4603      	mov	r3, r0
20001d22:	2b00      	cmp	r3, #0
20001d24:	d10b      	bne.n	20001d3e <LOS_QueueWrite+0x152>
C:\Users\nitin.deshpande\Documents\GitHub\microsemi-huawei-liteos\microsemi-liteos\mscc-huawei-wsp\sc-gd450i-board-test\Debug/../kernel/base/ipc/los_queue.c:462
    {
        osQueueWakeUp(&pstQueueCB->stReadList);
20001d26:	69bb      	ldr	r3, [r7, #24]
20001d28:	331c      	adds	r3, #28
20001d2a:	4618      	mov	r0, r3
20001d2c:	f7ff fe04 	bl	20001938 <osQueueWakeUp>
C:\Users\nitin.deshpande\Documents\GitHub\microsemi-huawei-liteos\microsemi-liteos\mscc-huawei-wsp\sc-gd450i-board-test\Debug/../kernel/base/ipc/los_queue.c:463
        LOS_IntRestore(uvIntSave);
20001d30:	6a78      	ldr	r0, [r7, #36]	; 0x24
20001d32:	f7fe fb6c 	bl	2000040e <LOS_IntRestore>
C:\Users\nitin.deshpande\Documents\GitHub\microsemi-huawei-liteos\microsemi-liteos\mscc-huawei-wsp\sc-gd450i-board-test\Debug/../kernel/base/ipc/los_queue.c:464
        LOS_Schedule();
20001d36:	f7fe fbc3 	bl	200004c0 <LOS_Schedule>
C:\Users\nitin.deshpande\Documents\GitHub\microsemi-huawei-liteos\microsemi-liteos\mscc-huawei-wsp\sc-gd450i-board-test\Debug/../kernel/base/ipc/los_queue.c:465
        return LOS_OK;
20001d3a:	2300      	movs	r3, #0
20001d3c:	e009      	b.n	20001d52 <LOS_QueueWrite+0x166>
C:\Users\nitin.deshpande\Documents\GitHub\microsemi-huawei-liteos\microsemi-liteos\mscc-huawei-wsp\sc-gd450i-board-test\Debug/../kernel/base/ipc/los_queue.c:469
    }
    else
    {
        pstQueueCB->usReadableCnt++;
20001d3e:	69bb      	ldr	r3, [r7, #24]
20001d40:	8a1b      	ldrh	r3, [r3, #16]
20001d42:	3301      	adds	r3, #1
20001d44:	b29a      	uxth	r2, r3
20001d46:	69bb      	ldr	r3, [r7, #24]
20001d48:	821a      	strh	r2, [r3, #16]
C:\Users\nitin.deshpande\Documents\GitHub\microsemi-huawei-liteos\microsemi-liteos\mscc-huawei-wsp\sc-gd450i-board-test\Debug/../kernel/base/ipc/los_queue.c:472
    }
QUEUE_END:
    LOS_IntRestore(uvIntSave);
20001d4a:	6a78      	ldr	r0, [r7, #36]	; 0x24
20001d4c:	f7fe fb5f 	bl	2000040e <LOS_IntRestore>
C:\Users\nitin.deshpande\Documents\GitHub\microsemi-huawei-liteos\microsemi-liteos\mscc-huawei-wsp\sc-gd450i-board-test\Debug/../kernel/base/ipc/los_queue.c:473
    return uwRet;
20001d50:	6a3b      	ldr	r3, [r7, #32]
C:\Users\nitin.deshpande\Documents\GitHub\microsemi-huawei-liteos\microsemi-liteos\mscc-huawei-wsp\sc-gd450i-board-test\Debug/../kernel/base/ipc/los_queue.c:474
}
20001d52:	4618      	mov	r0, r3
20001d54:	3728      	adds	r7, #40	; 0x28
20001d56:	46bd      	mov	sp, r7
20001d58:	bd80      	pop	{r7, pc}
20001d5a:	bf00      	nop
20001d5c:	02000611 	.word	0x02000611
20001d60:	02000612 	.word	0x02000612
20001d64:	02000613 	.word	0x02000613
20001d68:	200047f0 	.word	0x200047f0
20001d6c:	02000609 	.word	0x02000609
20001d70:	20004858 	.word	0x20004858
20001d74:	02000614 	.word	0x02000614
20001d78:	02000615 	.word	0x02000615
20001d7c:	02000616 	.word	0x02000616
20001d80:	20004968 	.word	0x20004968
20001d84:	02000606 	.word	0x02000606
20001d88:	2000496c 	.word	0x2000496c
20001d8c:	02000607 	.word	0x02000607

20001d90 <LOS_ListInit>:
LOS_ListInit():
C:\Users\nitin.deshpande\Documents\GitHub\microsemi-huawei-liteos\microsemi-liteos\mscc-huawei-wsp\sc-gd450i-board-test\kernel\include/los_list.h:81
{
20001d90:	b480      	push	{r7}
20001d92:	b083      	sub	sp, #12
20001d94:	af00      	add	r7, sp, #0
20001d96:	6078      	str	r0, [r7, #4]
C:\Users\nitin.deshpande\Documents\GitHub\microsemi-huawei-liteos\microsemi-liteos\mscc-huawei-wsp\sc-gd450i-board-test\kernel\include/los_list.h:82
    pstList->pstNext = pstList;
20001d98:	687b      	ldr	r3, [r7, #4]
20001d9a:	687a      	ldr	r2, [r7, #4]
20001d9c:	605a      	str	r2, [r3, #4]
C:\Users\nitin.deshpande\Documents\GitHub\microsemi-huawei-liteos\microsemi-liteos\mscc-huawei-wsp\sc-gd450i-board-test\kernel\include/los_list.h:83
    pstList->pstPrev = pstList;
20001d9e:	687b      	ldr	r3, [r7, #4]
20001da0:	687a      	ldr	r2, [r7, #4]
20001da2:	601a      	str	r2, [r3, #0]
C:\Users\nitin.deshpande\Documents\GitHub\microsemi-huawei-liteos\microsemi-liteos\mscc-huawei-wsp\sc-gd450i-board-test\kernel\include/los_list.h:84
}
20001da4:	bf00      	nop
20001da6:	370c      	adds	r7, #12
20001da8:	46bd      	mov	sp, r7
20001daa:	f85d 7b04 	ldr.w	r7, [sp], #4
20001dae:	4770      	bx	lr

20001db0 <LOS_ListAdd>:
LOS_ListAdd():
C:\Users\nitin.deshpande\Documents\GitHub\microsemi-huawei-liteos\microsemi-liteos\mscc-huawei-wsp\sc-gd450i-board-test\kernel\include/los_list.h:130
{
20001db0:	b480      	push	{r7}
20001db2:	b083      	sub	sp, #12
20001db4:	af00      	add	r7, sp, #0
20001db6:	6078      	str	r0, [r7, #4]
20001db8:	6039      	str	r1, [r7, #0]
C:\Users\nitin.deshpande\Documents\GitHub\microsemi-huawei-liteos\microsemi-liteos\mscc-huawei-wsp\sc-gd450i-board-test\kernel\include/los_list.h:131
    pstNode->pstNext = pstList->pstNext;
20001dba:	687b      	ldr	r3, [r7, #4]
20001dbc:	685a      	ldr	r2, [r3, #4]
20001dbe:	683b      	ldr	r3, [r7, #0]
20001dc0:	605a      	str	r2, [r3, #4]
C:\Users\nitin.deshpande\Documents\GitHub\microsemi-huawei-liteos\microsemi-liteos\mscc-huawei-wsp\sc-gd450i-board-test\kernel\include/los_list.h:132
    pstNode->pstPrev = pstList;
20001dc2:	683b      	ldr	r3, [r7, #0]
20001dc4:	687a      	ldr	r2, [r7, #4]
20001dc6:	601a      	str	r2, [r3, #0]
C:\Users\nitin.deshpande\Documents\GitHub\microsemi-huawei-liteos\microsemi-liteos\mscc-huawei-wsp\sc-gd450i-board-test\kernel\include/los_list.h:133
    pstList->pstNext->pstPrev = pstNode;
20001dc8:	687b      	ldr	r3, [r7, #4]
20001dca:	685b      	ldr	r3, [r3, #4]
20001dcc:	683a      	ldr	r2, [r7, #0]
20001dce:	601a      	str	r2, [r3, #0]
C:\Users\nitin.deshpande\Documents\GitHub\microsemi-huawei-liteos\microsemi-liteos\mscc-huawei-wsp\sc-gd450i-board-test\kernel\include/los_list.h:134
    pstList->pstNext = pstNode;
20001dd0:	687b      	ldr	r3, [r7, #4]
20001dd2:	683a      	ldr	r2, [r7, #0]
20001dd4:	605a      	str	r2, [r3, #4]
C:\Users\nitin.deshpande\Documents\GitHub\microsemi-huawei-liteos\microsemi-liteos\mscc-huawei-wsp\sc-gd450i-board-test\kernel\include/los_list.h:135
}
20001dd6:	bf00      	nop
20001dd8:	370c      	adds	r7, #12
20001dda:	46bd      	mov	sp, r7
20001ddc:	f85d 7b04 	ldr.w	r7, [sp], #4
20001de0:	4770      	bx	lr

20001de2 <LOS_ListTailInsert>:
LOS_ListTailInsert():
C:\Users\nitin.deshpande\Documents\GitHub\microsemi-huawei-liteos\microsemi-liteos\mscc-huawei-wsp\sc-gd450i-board-test\kernel\include/los_list.h:158
{
20001de2:	b580      	push	{r7, lr}
20001de4:	b082      	sub	sp, #8
20001de6:	af00      	add	r7, sp, #0
20001de8:	6078      	str	r0, [r7, #4]
20001dea:	6039      	str	r1, [r7, #0]
C:\Users\nitin.deshpande\Documents\GitHub\microsemi-huawei-liteos\microsemi-liteos\mscc-huawei-wsp\sc-gd450i-board-test\kernel\include/los_list.h:159
    LOS_ListAdd(pstList->pstPrev, pstNode);
20001dec:	687b      	ldr	r3, [r7, #4]
20001dee:	681b      	ldr	r3, [r3, #0]
20001df0:	6839      	ldr	r1, [r7, #0]
20001df2:	4618      	mov	r0, r3
20001df4:	f7ff ffdc 	bl	20001db0 <LOS_ListAdd>
C:\Users\nitin.deshpande\Documents\GitHub\microsemi-huawei-liteos\microsemi-liteos\mscc-huawei-wsp\sc-gd450i-board-test\kernel\include/los_list.h:160
}
20001df8:	bf00      	nop
20001dfa:	3708      	adds	r7, #8
20001dfc:	46bd      	mov	sp, r7
20001dfe:	bd80      	pop	{r7, pc}

20001e00 <LOS_ListDelete>:
LOS_ListDelete():
C:\Users\nitin.deshpande\Documents\GitHub\microsemi-huawei-liteos\microsemi-liteos\mscc-huawei-wsp\sc-gd450i-board-test\kernel\include/los_list.h:184
{
20001e00:	b480      	push	{r7}
20001e02:	b083      	sub	sp, #12
20001e04:	af00      	add	r7, sp, #0
20001e06:	6078      	str	r0, [r7, #4]
C:\Users\nitin.deshpande\Documents\GitHub\microsemi-huawei-liteos\microsemi-liteos\mscc-huawei-wsp\sc-gd450i-board-test\kernel\include/los_list.h:185
    pstNode->pstNext->pstPrev = pstNode->pstPrev;
20001e08:	687b      	ldr	r3, [r7, #4]
20001e0a:	685b      	ldr	r3, [r3, #4]
20001e0c:	687a      	ldr	r2, [r7, #4]
20001e0e:	6812      	ldr	r2, [r2, #0]
20001e10:	601a      	str	r2, [r3, #0]
C:\Users\nitin.deshpande\Documents\GitHub\microsemi-huawei-liteos\microsemi-liteos\mscc-huawei-wsp\sc-gd450i-board-test\kernel\include/los_list.h:186
    pstNode->pstPrev->pstNext = pstNode->pstNext;
20001e12:	687b      	ldr	r3, [r7, #4]
20001e14:	681b      	ldr	r3, [r3, #0]
20001e16:	687a      	ldr	r2, [r7, #4]
20001e18:	6852      	ldr	r2, [r2, #4]
20001e1a:	605a      	str	r2, [r3, #4]
C:\Users\nitin.deshpande\Documents\GitHub\microsemi-huawei-liteos\microsemi-liteos\mscc-huawei-wsp\sc-gd450i-board-test\kernel\include/los_list.h:187
    pstNode->pstNext = (LOS_DL_LIST *)NULL;
20001e1c:	687b      	ldr	r3, [r7, #4]
20001e1e:	2200      	movs	r2, #0
20001e20:	605a      	str	r2, [r3, #4]
C:\Users\nitin.deshpande\Documents\GitHub\microsemi-huawei-liteos\microsemi-liteos\mscc-huawei-wsp\sc-gd450i-board-test\kernel\include/los_list.h:188
    pstNode->pstPrev = (LOS_DL_LIST *)NULL;
20001e22:	687b      	ldr	r3, [r7, #4]
20001e24:	2200      	movs	r2, #0
20001e26:	601a      	str	r2, [r3, #0]
C:\Users\nitin.deshpande\Documents\GitHub\microsemi-huawei-liteos\microsemi-liteos\mscc-huawei-wsp\sc-gd450i-board-test\kernel\include/los_list.h:189
}
20001e28:	bf00      	nop
20001e2a:	370c      	adds	r7, #12
20001e2c:	46bd      	mov	sp, r7
20001e2e:	f85d 7b04 	ldr.w	r7, [sp], #4
20001e32:	4770      	bx	lr

20001e34 <LOS_ListEmpty>:
LOS_ListEmpty():
C:\Users\nitin.deshpande\Documents\GitHub\microsemi-huawei-liteos\microsemi-liteos\mscc-huawei-wsp\sc-gd450i-board-test\kernel\include/los_list.h:214
{
20001e34:	b480      	push	{r7}
20001e36:	b083      	sub	sp, #12
20001e38:	af00      	add	r7, sp, #0
20001e3a:	6078      	str	r0, [r7, #4]
C:\Users\nitin.deshpande\Documents\GitHub\microsemi-huawei-liteos\microsemi-liteos\mscc-huawei-wsp\sc-gd450i-board-test\kernel\include/los_list.h:215
    return (UINTBOOL)(pstNode->pstNext == pstNode);
20001e3c:	687b      	ldr	r3, [r7, #4]
20001e3e:	685a      	ldr	r2, [r3, #4]
20001e40:	687b      	ldr	r3, [r7, #4]
20001e42:	429a      	cmp	r2, r3
20001e44:	bf0c      	ite	eq
20001e46:	2301      	moveq	r3, #1
20001e48:	2300      	movne	r3, #0
20001e4a:	b2db      	uxtb	r3, r3
C:\Users\nitin.deshpande\Documents\GitHub\microsemi-huawei-liteos\microsemi-liteos\mscc-huawei-wsp\sc-gd450i-board-test\kernel\include/los_list.h:216
}
20001e4c:	4618      	mov	r0, r3
20001e4e:	370c      	adds	r7, #12
20001e50:	46bd      	mov	sp, r7
20001e52:	f85d 7b04 	ldr.w	r7, [sp], #4
20001e56:	4770      	bx	lr

20001e58 <osSemInit>:
osSemInit():
C:\Users\nitin.deshpande\Documents\GitHub\microsemi-huawei-liteos\microsemi-liteos\mscc-huawei-wsp\sc-gd450i-board-test\Debug/../kernel/base/ipc/los_sem.c:64
 Input        : None,
 Output       : None,
 Return       : LOS_OK on success ,or error code on failure
 *****************************************************************************/
LITE_OS_SEC_TEXT_INIT UINT32 osSemInit(VOID)
{
20001e58:	b580      	push	{r7, lr}
20001e5a:	b082      	sub	sp, #8
20001e5c:	af00      	add	r7, sp, #0
C:\Users\nitin.deshpande\Documents\GitHub\microsemi-huawei-liteos\microsemi-liteos\mscc-huawei-wsp\sc-gd450i-board-test\Debug/../kernel/base/ipc/los_sem.c:68
    SEM_CB_S    *pstSemNode;
    UINT32      uwIndex;

    LOS_ListInit(&g_stUnusedSemList);
20001e5e:	4819      	ldr	r0, [pc, #100]	; (20001ec4 <osSemInit+0x6c>)
20001e60:	f7ff ff96 	bl	20001d90 <LOS_ListInit>
C:\Users\nitin.deshpande\Documents\GitHub\microsemi-huawei-liteos\microsemi-liteos\mscc-huawei-wsp\sc-gd450i-board-test\Debug/../kernel/base/ipc/los_sem.c:71
    if (LOSCFG_BASE_IPC_SEM_LIMIT > 0)  /*lint !e506*/
    {
        g_pstAllSem = (SEM_CB_S *)LOS_MemAlloc(m_aucSysMem0, (LOSCFG_BASE_IPC_SEM_LIMIT * sizeof(SEM_CB_S)));
20001e64:	4b18      	ldr	r3, [pc, #96]	; (20001ec8 <osSemInit+0x70>)
20001e66:	681b      	ldr	r3, [r3, #0]
20001e68:	21a0      	movs	r1, #160	; 0xa0
20001e6a:	4618      	mov	r0, r3
20001e6c:	f7ff f980 	bl	20001170 <LOS_MemAlloc>
20001e70:	4602      	mov	r2, r0
20001e72:	4b16      	ldr	r3, [pc, #88]	; (20001ecc <osSemInit+0x74>)
20001e74:	601a      	str	r2, [r3, #0]
C:\Users\nitin.deshpande\Documents\GitHub\microsemi-huawei-liteos\microsemi-liteos\mscc-huawei-wsp\sc-gd450i-board-test\Debug/../kernel/base/ipc/los_sem.c:72
        if (NULL == g_pstAllSem)
20001e76:	4b15      	ldr	r3, [pc, #84]	; (20001ecc <osSemInit+0x74>)
20001e78:	681b      	ldr	r3, [r3, #0]
20001e7a:	2b00      	cmp	r3, #0
20001e7c:	d101      	bne.n	20001e82 <osSemInit+0x2a>
C:\Users\nitin.deshpande\Documents\GitHub\microsemi-huawei-liteos\microsemi-liteos\mscc-huawei-wsp\sc-gd450i-board-test\Debug/../kernel/base/ipc/los_sem.c:74
        {
            return LOS_ERRNO_SEM_NO_MEMORY;
20001e7e:	4b14      	ldr	r3, [pc, #80]	; (20001ed0 <osSemInit+0x78>)
20001e80:	e01b      	b.n	20001eba <osSemInit+0x62>
C:\Users\nitin.deshpande\Documents\GitHub\microsemi-huawei-liteos\microsemi-liteos\mscc-huawei-wsp\sc-gd450i-board-test\Debug/../kernel/base/ipc/los_sem.c:78
        }

        /* Connect all the ECBs in a doubly linked list. */
        for (uwIndex = 0; uwIndex < LOSCFG_BASE_IPC_SEM_LIMIT; uwIndex++)
20001e82:	2300      	movs	r3, #0
20001e84:	607b      	str	r3, [r7, #4]
20001e86:	e014      	b.n	20001eb2 <osSemInit+0x5a>
C:\Users\nitin.deshpande\Documents\GitHub\microsemi-huawei-liteos\microsemi-liteos\mscc-huawei-wsp\sc-gd450i-board-test\Debug/../kernel/base/ipc/los_sem.c:80 (discriminator 3)
        {
            pstSemNode = ((SEM_CB_S *)g_pstAllSem) + uwIndex;
20001e88:	4b10      	ldr	r3, [pc, #64]	; (20001ecc <osSemInit+0x74>)
20001e8a:	681a      	ldr	r2, [r3, #0]
20001e8c:	687b      	ldr	r3, [r7, #4]
20001e8e:	011b      	lsls	r3, r3, #4
20001e90:	4413      	add	r3, r2
20001e92:	603b      	str	r3, [r7, #0]
C:\Users\nitin.deshpande\Documents\GitHub\microsemi-huawei-liteos\microsemi-liteos\mscc-huawei-wsp\sc-gd450i-board-test\Debug/../kernel/base/ipc/los_sem.c:81 (discriminator 3)
            pstSemNode->usSemID = uwIndex;
20001e94:	683b      	ldr	r3, [r7, #0]
20001e96:	687a      	ldr	r2, [r7, #4]
20001e98:	605a      	str	r2, [r3, #4]
C:\Users\nitin.deshpande\Documents\GitHub\microsemi-huawei-liteos\microsemi-liteos\mscc-huawei-wsp\sc-gd450i-board-test\Debug/../kernel/base/ipc/los_sem.c:82 (discriminator 3)
            pstSemNode->usSemStat = OS_SEM_UNUSED;
20001e9a:	683b      	ldr	r3, [r7, #0]
20001e9c:	2200      	movs	r2, #0
20001e9e:	701a      	strb	r2, [r3, #0]
C:\Users\nitin.deshpande\Documents\GitHub\microsemi-huawei-liteos\microsemi-liteos\mscc-huawei-wsp\sc-gd450i-board-test\Debug/../kernel/base/ipc/los_sem.c:83 (discriminator 3)
            LOS_ListTailInsert(&g_stUnusedSemList, &pstSemNode->stSemList);
20001ea0:	683b      	ldr	r3, [r7, #0]
20001ea2:	3308      	adds	r3, #8
20001ea4:	4619      	mov	r1, r3
20001ea6:	4807      	ldr	r0, [pc, #28]	; (20001ec4 <osSemInit+0x6c>)
20001ea8:	f7ff ff9b 	bl	20001de2 <LOS_ListTailInsert>
C:\Users\nitin.deshpande\Documents\GitHub\microsemi-huawei-liteos\microsemi-liteos\mscc-huawei-wsp\sc-gd450i-board-test\Debug/../kernel/base/ipc/los_sem.c:78 (discriminator 3)
        for (uwIndex = 0; uwIndex < LOSCFG_BASE_IPC_SEM_LIMIT; uwIndex++)
20001eac:	687b      	ldr	r3, [r7, #4]
20001eae:	3301      	adds	r3, #1
20001eb0:	607b      	str	r3, [r7, #4]
C:\Users\nitin.deshpande\Documents\GitHub\microsemi-huawei-liteos\microsemi-liteos\mscc-huawei-wsp\sc-gd450i-board-test\Debug/../kernel/base/ipc/los_sem.c:78 (discriminator 1)
20001eb2:	687b      	ldr	r3, [r7, #4]
20001eb4:	2b09      	cmp	r3, #9
20001eb6:	d9e7      	bls.n	20001e88 <osSemInit+0x30>
C:\Users\nitin.deshpande\Documents\GitHub\microsemi-huawei-liteos\microsemi-liteos\mscc-huawei-wsp\sc-gd450i-board-test\Debug/../kernel/base/ipc/los_sem.c:87
        }
    }

    return LOS_OK;
20001eb8:	2300      	movs	r3, #0
C:\Users\nitin.deshpande\Documents\GitHub\microsemi-huawei-liteos\microsemi-liteos\mscc-huawei-wsp\sc-gd450i-board-test\Debug/../kernel/base/ipc/los_sem.c:88
}
20001eba:	4618      	mov	r0, r3
20001ebc:	3708      	adds	r7, #8
20001ebe:	46bd      	mov	sp, r7
20001ec0:	bd80      	pop	{r7, pc}
20001ec2:	bf00      	nop
20001ec4:	2000485c 	.word	0x2000485c
20001ec8:	20004808 	.word	0x20004808
20001ecc:	20004864 	.word	0x20004864
20001ed0:	02000700 	.word	0x02000700

20001ed4 <LOS_SemPost>:
LOS_SemPost():
C:\Users\nitin.deshpande\Documents\GitHub\microsemi-huawei-liteos\microsemi-liteos\mscc-huawei-wsp\sc-gd450i-board-test\Debug/../kernel/base/ipc/los_sem.c:261
 Input        : uwSemHandle--------- semaphore operation handle,
 Output       : None
 Return       : LOS_OK on success or error code on failure
 *****************************************************************************/
LITE_OS_SEC_TEXT UINT32 LOS_SemPost(UINT32 uwSemHandle)
{
20001ed4:	b580      	push	{r7, lr}
20001ed6:	b086      	sub	sp, #24
20001ed8:	af00      	add	r7, sp, #0
20001eda:	6078      	str	r0, [r7, #4]
C:\Users\nitin.deshpande\Documents\GitHub\microsemi-huawei-liteos\microsemi-liteos\mscc-huawei-wsp\sc-gd450i-board-test\Debug/../kernel/base/ipc/los_sem.c:263
    UINT32      uwIntSave;
    SEM_CB_S    *pstSemPosted = GET_SEM(uwSemHandle);
20001edc:	4b3b      	ldr	r3, [pc, #236]	; (20001fcc <LOS_SemPost+0xf8>)
20001ede:	681a      	ldr	r2, [r3, #0]
20001ee0:	687b      	ldr	r3, [r7, #4]
20001ee2:	011b      	lsls	r3, r3, #4
20001ee4:	4413      	add	r3, r2
20001ee6:	617b      	str	r3, [r7, #20]
C:\Users\nitin.deshpande\Documents\GitHub\microsemi-huawei-liteos\microsemi-liteos\mscc-huawei-wsp\sc-gd450i-board-test\Debug/../kernel/base/ipc/los_sem.c:266
    LOS_TASK_CB *pstResumedTask;

    if (uwSemHandle >= LOSCFG_BASE_IPC_SEM_LIMIT)
20001ee8:	687b      	ldr	r3, [r7, #4]
20001eea:	2b09      	cmp	r3, #9
20001eec:	d901      	bls.n	20001ef2 <LOS_SemPost+0x1e>
C:\Users\nitin.deshpande\Documents\GitHub\microsemi-huawei-liteos\microsemi-liteos\mscc-huawei-wsp\sc-gd450i-board-test\Debug/../kernel/base/ipc/los_sem.c:268
    {
        return LOS_ERRNO_SEM_INVALID;
20001eee:	4b38      	ldr	r3, [pc, #224]	; (20001fd0 <LOS_SemPost+0xfc>)
20001ef0:	e067      	b.n	20001fc2 <LOS_SemPost+0xee>
C:\Users\nitin.deshpande\Documents\GitHub\microsemi-huawei-liteos\microsemi-liteos\mscc-huawei-wsp\sc-gd450i-board-test\Debug/../kernel/base/ipc/los_sem.c:271
    }

    uwIntSave = LOS_IntLock();
20001ef2:	f7fe fa84 	bl	200003fe <LOS_IntLock>
20001ef6:	6138      	str	r0, [r7, #16]
C:\Users\nitin.deshpande\Documents\GitHub\microsemi-huawei-liteos\microsemi-liteos\mscc-huawei-wsp\sc-gd450i-board-test\Debug/../kernel/base/ipc/los_sem.c:273

    if (OS_SEM_UNUSED == pstSemPosted->usSemStat)
20001ef8:	697b      	ldr	r3, [r7, #20]
20001efa:	781b      	ldrb	r3, [r3, #0]
20001efc:	2b00      	cmp	r3, #0
20001efe:	d104      	bne.n	20001f0a <LOS_SemPost+0x36>
C:\Users\nitin.deshpande\Documents\GitHub\microsemi-huawei-liteos\microsemi-liteos\mscc-huawei-wsp\sc-gd450i-board-test\Debug/../kernel/base/ipc/los_sem.c:275
    {
        LOS_IntRestore(uwIntSave);
20001f00:	6938      	ldr	r0, [r7, #16]
20001f02:	f7fe fa84 	bl	2000040e <LOS_IntRestore>
C:\Users\nitin.deshpande\Documents\GitHub\microsemi-huawei-liteos\microsemi-liteos\mscc-huawei-wsp\sc-gd450i-board-test\Debug/../kernel/base/ipc/los_sem.c:276
        return LOS_ERRNO_SEM_INVALID;
20001f06:	4b32      	ldr	r3, [pc, #200]	; (20001fd0 <LOS_SemPost+0xfc>)
20001f08:	e05b      	b.n	20001fc2 <LOS_SemPost+0xee>
C:\Users\nitin.deshpande\Documents\GitHub\microsemi-huawei-liteos\microsemi-liteos\mscc-huawei-wsp\sc-gd450i-board-test\Debug/../kernel/base/ipc/los_sem.c:279
    }

    if (OS_SEM_COUNT_MAX == pstSemPosted->uwSemCount )
20001f0a:	697b      	ldr	r3, [r7, #20]
20001f0c:	885b      	ldrh	r3, [r3, #2]
20001f0e:	f64f 72fe 	movw	r2, #65534	; 0xfffe
20001f12:	4293      	cmp	r3, r2
20001f14:	d104      	bne.n	20001f20 <LOS_SemPost+0x4c>
C:\Users\nitin.deshpande\Documents\GitHub\microsemi-huawei-liteos\microsemi-liteos\mscc-huawei-wsp\sc-gd450i-board-test\Debug/../kernel/base/ipc/los_sem.c:281
    {
        (VOID)LOS_IntRestore(uwIntSave);
20001f16:	6938      	ldr	r0, [r7, #16]
20001f18:	f7fe fa79 	bl	2000040e <LOS_IntRestore>
C:\Users\nitin.deshpande\Documents\GitHub\microsemi-huawei-liteos\microsemi-liteos\mscc-huawei-wsp\sc-gd450i-board-test\Debug/../kernel/base/ipc/los_sem.c:282
        return LOS_ERRNO_SEM_OVERFLOW;
20001f1c:	4b2d      	ldr	r3, [pc, #180]	; (20001fd4 <LOS_SemPost+0x100>)
20001f1e:	e050      	b.n	20001fc2 <LOS_SemPost+0xee>
C:\Users\nitin.deshpande\Documents\GitHub\microsemi-huawei-liteos\microsemi-liteos\mscc-huawei-wsp\sc-gd450i-board-test\Debug/../kernel/base/ipc/los_sem.c:284
    }
    if (!LOS_ListEmpty(&pstSemPosted->stSemList))
20001f20:	697b      	ldr	r3, [r7, #20]
20001f22:	3308      	adds	r3, #8
20001f24:	4618      	mov	r0, r3
20001f26:	f7ff ff85 	bl	20001e34 <LOS_ListEmpty>
20001f2a:	4603      	mov	r3, r0
20001f2c:	2b00      	cmp	r3, #0
20001f2e:	d13e      	bne.n	20001fae <LOS_SemPost+0xda>
C:\Users\nitin.deshpande\Documents\GitHub\microsemi-huawei-liteos\microsemi-liteos\mscc-huawei-wsp\sc-gd450i-board-test\Debug/../kernel/base/ipc/los_sem.c:286
    {
        pstResumedTask = OS_TCB_FROM_PENDLIST(LOS_DL_LIST_FIRST(&(pstSemPosted->stSemList))); /*lint !e413*/
20001f30:	697b      	ldr	r3, [r7, #20]
20001f32:	68db      	ldr	r3, [r3, #12]
20001f34:	3b3c      	subs	r3, #60	; 0x3c
20001f36:	60fb      	str	r3, [r7, #12]
C:\Users\nitin.deshpande\Documents\GitHub\microsemi-huawei-liteos\microsemi-liteos\mscc-huawei-wsp\sc-gd450i-board-test\Debug/../kernel/base/ipc/los_sem.c:287
        LOS_ListDelete(LOS_DL_LIST_FIRST(&(pstSemPosted->stSemList)));
20001f38:	697b      	ldr	r3, [r7, #20]
20001f3a:	68db      	ldr	r3, [r3, #12]
20001f3c:	4618      	mov	r0, r3
20001f3e:	f7ff ff5f 	bl	20001e00 <LOS_ListDelete>
C:\Users\nitin.deshpande\Documents\GitHub\microsemi-huawei-liteos\microsemi-liteos\mscc-huawei-wsp\sc-gd450i-board-test\Debug/../kernel/base/ipc/los_sem.c:289
        LOS_ASSERT_COND(pstResumedTask->usTaskStatus & OS_TASK_STATUS_PEND);
        pstResumedTask->usTaskStatus &= (~OS_TASK_STATUS_PEND);
20001f42:	68fb      	ldr	r3, [r7, #12]
20001f44:	889b      	ldrh	r3, [r3, #4]
20001f46:	f023 0308 	bic.w	r3, r3, #8
20001f4a:	b29a      	uxth	r2, r3
20001f4c:	68fb      	ldr	r3, [r7, #12]
20001f4e:	809a      	strh	r2, [r3, #4]
C:\Users\nitin.deshpande\Documents\GitHub\microsemi-huawei-liteos\microsemi-liteos\mscc-huawei-wsp\sc-gd450i-board-test\Debug/../kernel/base/ipc/los_sem.c:290
        if (pstResumedTask->usTaskStatus & OS_TASK_STATUS_TIMEOUT)
20001f50:	68fb      	ldr	r3, [r7, #12]
20001f52:	889b      	ldrh	r3, [r3, #4]
20001f54:	f003 0340 	and.w	r3, r3, #64	; 0x40
20001f58:	2b00      	cmp	r3, #0
20001f5a:	d009      	beq.n	20001f70 <LOS_SemPost+0x9c>
C:\Users\nitin.deshpande\Documents\GitHub\microsemi-huawei-liteos\microsemi-liteos\mscc-huawei-wsp\sc-gd450i-board-test\Debug/../kernel/base/ipc/los_sem.c:292
        {
            osTimerListDelete(pstResumedTask);
20001f5c:	68f8      	ldr	r0, [r7, #12]
20001f5e:	f000 fbe1 	bl	20002724 <osTimerListDelete>
C:\Users\nitin.deshpande\Documents\GitHub\microsemi-huawei-liteos\microsemi-liteos\mscc-huawei-wsp\sc-gd450i-board-test\Debug/../kernel/base/ipc/los_sem.c:293
            pstResumedTask->usTaskStatus &= (~OS_TASK_STATUS_TIMEOUT);
20001f62:	68fb      	ldr	r3, [r7, #12]
20001f64:	889b      	ldrh	r3, [r3, #4]
20001f66:	f023 0340 	bic.w	r3, r3, #64	; 0x40
20001f6a:	b29a      	uxth	r2, r3
20001f6c:	68fb      	ldr	r3, [r7, #12]
20001f6e:	809a      	strh	r2, [r3, #4]
C:\Users\nitin.deshpande\Documents\GitHub\microsemi-huawei-liteos\microsemi-liteos\mscc-huawei-wsp\sc-gd450i-board-test\Debug/../kernel/base/ipc/los_sem.c:296
        }

        pstResumedTask->pTaskSem = NULL;
20001f70:	68fb      	ldr	r3, [r7, #12]
20001f72:	2200      	movs	r2, #0
20001f74:	619a      	str	r2, [r3, #24]
C:\Users\nitin.deshpande\Documents\GitHub\microsemi-huawei-liteos\microsemi-liteos\mscc-huawei-wsp\sc-gd450i-board-test\Debug/../kernel/base/ipc/los_sem.c:297
        if (!(pstResumedTask->usTaskStatus & OS_TASK_STATUS_SUSPEND))
20001f76:	68fb      	ldr	r3, [r7, #12]
20001f78:	889b      	ldrh	r3, [r3, #4]
20001f7a:	f003 0302 	and.w	r3, r3, #2
20001f7e:	2b00      	cmp	r3, #0
20001f80:	d10f      	bne.n	20001fa2 <LOS_SemPost+0xce>
C:\Users\nitin.deshpande\Documents\GitHub\microsemi-huawei-liteos\microsemi-liteos\mscc-huawei-wsp\sc-gd450i-board-test\Debug/../kernel/base/ipc/los_sem.c:299
        {
            pstResumedTask->usTaskStatus |= OS_TASK_STATUS_READY;
20001f82:	68fb      	ldr	r3, [r7, #12]
20001f84:	889b      	ldrh	r3, [r3, #4]
20001f86:	f043 0304 	orr.w	r3, r3, #4
20001f8a:	b29a      	uxth	r2, r3
20001f8c:	68fb      	ldr	r3, [r7, #12]
20001f8e:	809a      	strh	r2, [r3, #4]
C:\Users\nitin.deshpande\Documents\GitHub\microsemi-huawei-liteos\microsemi-liteos\mscc-huawei-wsp\sc-gd450i-board-test\Debug/../kernel/base/ipc/los_sem.c:300
            LOS_PriqueueEnqueue(&pstResumedTask->stPendList, pstResumedTask->usPriority);
20001f90:	68fb      	ldr	r3, [r7, #12]
20001f92:	f103 023c 	add.w	r2, r3, #60	; 0x3c
20001f96:	68fb      	ldr	r3, [r7, #12]
20001f98:	88db      	ldrh	r3, [r3, #6]
20001f9a:	4619      	mov	r1, r3
20001f9c:	4610      	mov	r0, r2
20001f9e:	f000 f8b1 	bl	20002104 <LOS_PriqueueEnqueue>
C:\Users\nitin.deshpande\Documents\GitHub\microsemi-huawei-liteos\microsemi-liteos\mscc-huawei-wsp\sc-gd450i-board-test\Debug/../kernel/base/ipc/los_sem.c:303
        }

        (VOID)LOS_IntRestore(uwIntSave);
20001fa2:	6938      	ldr	r0, [r7, #16]
20001fa4:	f7fe fa33 	bl	2000040e <LOS_IntRestore>
C:\Users\nitin.deshpande\Documents\GitHub\microsemi-huawei-liteos\microsemi-liteos\mscc-huawei-wsp\sc-gd450i-board-test\Debug/../kernel/base/ipc/los_sem.c:304
        LOS_Schedule();
20001fa8:	f7fe fa8a 	bl	200004c0 <LOS_Schedule>
20001fac:	e008      	b.n	20001fc0 <LOS_SemPost+0xec>
C:\Users\nitin.deshpande\Documents\GitHub\microsemi-huawei-liteos\microsemi-liteos\mscc-huawei-wsp\sc-gd450i-board-test\Debug/../kernel/base/ipc/los_sem.c:308
    }
    else
    {
        pstSemPosted->uwSemCount++;
20001fae:	697b      	ldr	r3, [r7, #20]
20001fb0:	885b      	ldrh	r3, [r3, #2]
20001fb2:	3301      	adds	r3, #1
20001fb4:	b29a      	uxth	r2, r3
20001fb6:	697b      	ldr	r3, [r7, #20]
20001fb8:	805a      	strh	r2, [r3, #2]
C:\Users\nitin.deshpande\Documents\GitHub\microsemi-huawei-liteos\microsemi-liteos\mscc-huawei-wsp\sc-gd450i-board-test\Debug/../kernel/base/ipc/los_sem.c:309
        (VOID)LOS_IntRestore(uwIntSave);
20001fba:	6938      	ldr	r0, [r7, #16]
20001fbc:	f7fe fa27 	bl	2000040e <LOS_IntRestore>
C:\Users\nitin.deshpande\Documents\GitHub\microsemi-huawei-liteos\microsemi-liteos\mscc-huawei-wsp\sc-gd450i-board-test\Debug/../kernel/base/ipc/los_sem.c:312
    }

    return LOS_OK;
20001fc0:	2300      	movs	r3, #0
C:\Users\nitin.deshpande\Documents\GitHub\microsemi-huawei-liteos\microsemi-liteos\mscc-huawei-wsp\sc-gd450i-board-test\Debug/../kernel/base/ipc/los_sem.c:313
}
20001fc2:	4618      	mov	r0, r3
20001fc4:	3718      	adds	r7, #24
20001fc6:	46bd      	mov	sp, r7
20001fc8:	bd80      	pop	{r7, pc}
20001fca:	bf00      	nop
20001fcc:	20004864 	.word	0x20004864
20001fd0:	02000701 	.word	0x02000701
20001fd4:	02000708 	.word	0x02000708

20001fd8 <LOS_ListInit>:
LOS_ListInit():
C:\Users\nitin.deshpande\Documents\GitHub\microsemi-huawei-liteos\microsemi-liteos\mscc-huawei-wsp\sc-gd450i-board-test\kernel\include/los_list.h:81
{
20001fd8:	b480      	push	{r7}
20001fda:	b083      	sub	sp, #12
20001fdc:	af00      	add	r7, sp, #0
20001fde:	6078      	str	r0, [r7, #4]
C:\Users\nitin.deshpande\Documents\GitHub\microsemi-huawei-liteos\microsemi-liteos\mscc-huawei-wsp\sc-gd450i-board-test\kernel\include/los_list.h:82
    pstList->pstNext = pstList;
20001fe0:	687b      	ldr	r3, [r7, #4]
20001fe2:	687a      	ldr	r2, [r7, #4]
20001fe4:	605a      	str	r2, [r3, #4]
C:\Users\nitin.deshpande\Documents\GitHub\microsemi-huawei-liteos\microsemi-liteos\mscc-huawei-wsp\sc-gd450i-board-test\kernel\include/los_list.h:83
    pstList->pstPrev = pstList;
20001fe6:	687b      	ldr	r3, [r7, #4]
20001fe8:	687a      	ldr	r2, [r7, #4]
20001fea:	601a      	str	r2, [r3, #0]
C:\Users\nitin.deshpande\Documents\GitHub\microsemi-huawei-liteos\microsemi-liteos\mscc-huawei-wsp\sc-gd450i-board-test\kernel\include/los_list.h:84
}
20001fec:	bf00      	nop
20001fee:	370c      	adds	r7, #12
20001ff0:	46bd      	mov	sp, r7
20001ff2:	f85d 7b04 	ldr.w	r7, [sp], #4
20001ff6:	4770      	bx	lr

20001ff8 <LOS_ListAdd>:
LOS_ListAdd():
C:\Users\nitin.deshpande\Documents\GitHub\microsemi-huawei-liteos\microsemi-liteos\mscc-huawei-wsp\sc-gd450i-board-test\kernel\include/los_list.h:130
{
20001ff8:	b480      	push	{r7}
20001ffa:	b083      	sub	sp, #12
20001ffc:	af00      	add	r7, sp, #0
20001ffe:	6078      	str	r0, [r7, #4]
20002000:	6039      	str	r1, [r7, #0]
C:\Users\nitin.deshpande\Documents\GitHub\microsemi-huawei-liteos\microsemi-liteos\mscc-huawei-wsp\sc-gd450i-board-test\kernel\include/los_list.h:131
    pstNode->pstNext = pstList->pstNext;
20002002:	687b      	ldr	r3, [r7, #4]
20002004:	685a      	ldr	r2, [r3, #4]
20002006:	683b      	ldr	r3, [r7, #0]
20002008:	605a      	str	r2, [r3, #4]
C:\Users\nitin.deshpande\Documents\GitHub\microsemi-huawei-liteos\microsemi-liteos\mscc-huawei-wsp\sc-gd450i-board-test\kernel\include/los_list.h:132
    pstNode->pstPrev = pstList;
2000200a:	683b      	ldr	r3, [r7, #0]
2000200c:	687a      	ldr	r2, [r7, #4]
2000200e:	601a      	str	r2, [r3, #0]
C:\Users\nitin.deshpande\Documents\GitHub\microsemi-huawei-liteos\microsemi-liteos\mscc-huawei-wsp\sc-gd450i-board-test\kernel\include/los_list.h:133
    pstList->pstNext->pstPrev = pstNode;
20002010:	687b      	ldr	r3, [r7, #4]
20002012:	685b      	ldr	r3, [r3, #4]
20002014:	683a      	ldr	r2, [r7, #0]
20002016:	601a      	str	r2, [r3, #0]
C:\Users\nitin.deshpande\Documents\GitHub\microsemi-huawei-liteos\microsemi-liteos\mscc-huawei-wsp\sc-gd450i-board-test\kernel\include/los_list.h:134
    pstList->pstNext = pstNode;
20002018:	687b      	ldr	r3, [r7, #4]
2000201a:	683a      	ldr	r2, [r7, #0]
2000201c:	605a      	str	r2, [r3, #4]
C:\Users\nitin.deshpande\Documents\GitHub\microsemi-huawei-liteos\microsemi-liteos\mscc-huawei-wsp\sc-gd450i-board-test\kernel\include/los_list.h:135
}
2000201e:	bf00      	nop
20002020:	370c      	adds	r7, #12
20002022:	46bd      	mov	sp, r7
20002024:	f85d 7b04 	ldr.w	r7, [sp], #4
20002028:	4770      	bx	lr

2000202a <LOS_ListTailInsert>:
LOS_ListTailInsert():
C:\Users\nitin.deshpande\Documents\GitHub\microsemi-huawei-liteos\microsemi-liteos\mscc-huawei-wsp\sc-gd450i-board-test\kernel\include/los_list.h:158
{
2000202a:	b580      	push	{r7, lr}
2000202c:	b082      	sub	sp, #8
2000202e:	af00      	add	r7, sp, #0
20002030:	6078      	str	r0, [r7, #4]
20002032:	6039      	str	r1, [r7, #0]
C:\Users\nitin.deshpande\Documents\GitHub\microsemi-huawei-liteos\microsemi-liteos\mscc-huawei-wsp\sc-gd450i-board-test\kernel\include/los_list.h:159
    LOS_ListAdd(pstList->pstPrev, pstNode);
20002034:	687b      	ldr	r3, [r7, #4]
20002036:	681b      	ldr	r3, [r3, #0]
20002038:	6839      	ldr	r1, [r7, #0]
2000203a:	4618      	mov	r0, r3
2000203c:	f7ff ffdc 	bl	20001ff8 <LOS_ListAdd>
C:\Users\nitin.deshpande\Documents\GitHub\microsemi-huawei-liteos\microsemi-liteos\mscc-huawei-wsp\sc-gd450i-board-test\kernel\include/los_list.h:160
}
20002040:	bf00      	nop
20002042:	3708      	adds	r7, #8
20002044:	46bd      	mov	sp, r7
20002046:	bd80      	pop	{r7, pc}

20002048 <LOS_ListDelete>:
LOS_ListDelete():
C:\Users\nitin.deshpande\Documents\GitHub\microsemi-huawei-liteos\microsemi-liteos\mscc-huawei-wsp\sc-gd450i-board-test\kernel\include/los_list.h:184
{
20002048:	b480      	push	{r7}
2000204a:	b083      	sub	sp, #12
2000204c:	af00      	add	r7, sp, #0
2000204e:	6078      	str	r0, [r7, #4]
C:\Users\nitin.deshpande\Documents\GitHub\microsemi-huawei-liteos\microsemi-liteos\mscc-huawei-wsp\sc-gd450i-board-test\kernel\include/los_list.h:185
    pstNode->pstNext->pstPrev = pstNode->pstPrev;
20002050:	687b      	ldr	r3, [r7, #4]
20002052:	685b      	ldr	r3, [r3, #4]
20002054:	687a      	ldr	r2, [r7, #4]
20002056:	6812      	ldr	r2, [r2, #0]
20002058:	601a      	str	r2, [r3, #0]
C:\Users\nitin.deshpande\Documents\GitHub\microsemi-huawei-liteos\microsemi-liteos\mscc-huawei-wsp\sc-gd450i-board-test\kernel\include/los_list.h:186
    pstNode->pstPrev->pstNext = pstNode->pstNext;
2000205a:	687b      	ldr	r3, [r7, #4]
2000205c:	681b      	ldr	r3, [r3, #0]
2000205e:	687a      	ldr	r2, [r7, #4]
20002060:	6852      	ldr	r2, [r2, #4]
20002062:	605a      	str	r2, [r3, #4]
C:\Users\nitin.deshpande\Documents\GitHub\microsemi-huawei-liteos\microsemi-liteos\mscc-huawei-wsp\sc-gd450i-board-test\kernel\include/los_list.h:187
    pstNode->pstNext = (LOS_DL_LIST *)NULL;
20002064:	687b      	ldr	r3, [r7, #4]
20002066:	2200      	movs	r2, #0
20002068:	605a      	str	r2, [r3, #4]
C:\Users\nitin.deshpande\Documents\GitHub\microsemi-huawei-liteos\microsemi-liteos\mscc-huawei-wsp\sc-gd450i-board-test\kernel\include/los_list.h:188
    pstNode->pstPrev = (LOS_DL_LIST *)NULL;
2000206a:	687b      	ldr	r3, [r7, #4]
2000206c:	2200      	movs	r2, #0
2000206e:	601a      	str	r2, [r3, #0]
C:\Users\nitin.deshpande\Documents\GitHub\microsemi-huawei-liteos\microsemi-liteos\mscc-huawei-wsp\sc-gd450i-board-test\kernel\include/los_list.h:189
}
20002070:	bf00      	nop
20002072:	370c      	adds	r7, #12
20002074:	46bd      	mov	sp, r7
20002076:	f85d 7b04 	ldr.w	r7, [sp], #4
2000207a:	4770      	bx	lr

2000207c <LOS_ListEmpty>:
LOS_ListEmpty():
C:\Users\nitin.deshpande\Documents\GitHub\microsemi-huawei-liteos\microsemi-liteos\mscc-huawei-wsp\sc-gd450i-board-test\kernel\include/los_list.h:214
{
2000207c:	b480      	push	{r7}
2000207e:	b083      	sub	sp, #12
20002080:	af00      	add	r7, sp, #0
20002082:	6078      	str	r0, [r7, #4]
C:\Users\nitin.deshpande\Documents\GitHub\microsemi-huawei-liteos\microsemi-liteos\mscc-huawei-wsp\sc-gd450i-board-test\kernel\include/los_list.h:215
    return (UINTBOOL)(pstNode->pstNext == pstNode);
20002084:	687b      	ldr	r3, [r7, #4]
20002086:	685a      	ldr	r2, [r3, #4]
20002088:	687b      	ldr	r3, [r7, #4]
2000208a:	429a      	cmp	r2, r3
2000208c:	bf0c      	ite	eq
2000208e:	2301      	moveq	r3, #1
20002090:	2300      	movne	r3, #0
20002092:	b2db      	uxtb	r3, r3
C:\Users\nitin.deshpande\Documents\GitHub\microsemi-huawei-liteos\microsemi-liteos\mscc-huawei-wsp\sc-gd450i-board-test\kernel\include/los_list.h:216
}
20002094:	4618      	mov	r0, r3
20002096:	370c      	adds	r7, #12
20002098:	46bd      	mov	sp, r7
2000209a:	f85d 7b04 	ldr.w	r7, [sp], #4
2000209e:	4770      	bx	lr

200020a0 <osPriqueueInit>:
osPriqueueInit():
C:\Users\nitin.deshpande\Documents\GitHub\microsemi-huawei-liteos\microsemi-liteos\mscc-huawei-wsp\sc-gd450i-board-test\Debug/../kernel/base/core/los_priqueue.c:45
#include "los_memory.h"

LITE_OS_SEC_BSS LOS_DL_LIST *g_pstLosPriorityQueueList;

VOID osPriqueueInit(VOID)
{
200020a0:	b580      	push	{r7, lr}
200020a2:	b082      	sub	sp, #8
200020a4:	af00      	add	r7, sp, #0
C:\Users\nitin.deshpande\Documents\GitHub\microsemi-huawei-liteos\microsemi-liteos\mscc-huawei-wsp\sc-gd450i-board-test\Debug/../kernel/base/core/los_priqueue.c:46
    UINT32 uwPri = 0;
200020a6:	2300      	movs	r3, #0
200020a8:	607b      	str	r3, [r7, #4]
C:\Users\nitin.deshpande\Documents\GitHub\microsemi-huawei-liteos\microsemi-liteos\mscc-huawei-wsp\sc-gd450i-board-test\Debug/../kernel/base/core/los_priqueue.c:47
    UINT32 uwSize = 0;
200020aa:	2300      	movs	r3, #0
200020ac:	603b      	str	r3, [r7, #0]
C:\Users\nitin.deshpande\Documents\GitHub\microsemi-huawei-liteos\microsemi-liteos\mscc-huawei-wsp\sc-gd450i-board-test\Debug/../kernel/base/core/los_priqueue.c:49

    uwSize = LOS_PRIORITY_QUEUE_PRIORITYNUM * sizeof(LOS_DL_LIST);
200020ae:	f44f 7380 	mov.w	r3, #256	; 0x100
200020b2:	603b      	str	r3, [r7, #0]
C:\Users\nitin.deshpande\Documents\GitHub\microsemi-huawei-liteos\microsemi-liteos\mscc-huawei-wsp\sc-gd450i-board-test\Debug/../kernel/base/core/los_priqueue.c:50
    g_pstLosPriorityQueueList = (LOS_DL_LIST *)LOS_MemAlloc(m_aucSysMem0, uwSize);
200020b4:	4b11      	ldr	r3, [pc, #68]	; (200020fc <osPriqueueInit+0x5c>)
200020b6:	681b      	ldr	r3, [r3, #0]
200020b8:	6839      	ldr	r1, [r7, #0]
200020ba:	4618      	mov	r0, r3
200020bc:	f7ff f858 	bl	20001170 <LOS_MemAlloc>
200020c0:	4602      	mov	r2, r0
200020c2:	4b0f      	ldr	r3, [pc, #60]	; (20002100 <osPriqueueInit+0x60>)
200020c4:	601a      	str	r2, [r3, #0]
C:\Users\nitin.deshpande\Documents\GitHub\microsemi-huawei-liteos\microsemi-liteos\mscc-huawei-wsp\sc-gd450i-board-test\Debug/../kernel/base/core/los_priqueue.c:51
    if (NULL == g_pstLosPriorityQueueList)
200020c6:	4b0e      	ldr	r3, [pc, #56]	; (20002100 <osPriqueueInit+0x60>)
200020c8:	681b      	ldr	r3, [r3, #0]
200020ca:	2b00      	cmp	r3, #0
200020cc:	d011      	beq.n	200020f2 <osPriqueueInit+0x52>
C:\Users\nitin.deshpande\Documents\GitHub\microsemi-huawei-liteos\microsemi-liteos\mscc-huawei-wsp\sc-gd450i-board-test\Debug/../kernel/base/core/los_priqueue.c:56
    {
        return;
    }

    for (uwPri = 0; uwPri < LOS_PRIORITY_QUEUE_PRIORITYNUM; ++uwPri)
200020ce:	2300      	movs	r3, #0
200020d0:	607b      	str	r3, [r7, #4]
200020d2:	e00a      	b.n	200020ea <osPriqueueInit+0x4a>
C:\Users\nitin.deshpande\Documents\GitHub\microsemi-huawei-liteos\microsemi-liteos\mscc-huawei-wsp\sc-gd450i-board-test\Debug/../kernel/base/core/los_priqueue.c:58 (discriminator 3)
    {
        LOS_ListInit(&g_pstLosPriorityQueueList[uwPri]);
200020d4:	4b0a      	ldr	r3, [pc, #40]	; (20002100 <osPriqueueInit+0x60>)
200020d6:	681a      	ldr	r2, [r3, #0]
200020d8:	687b      	ldr	r3, [r7, #4]
200020da:	00db      	lsls	r3, r3, #3
200020dc:	4413      	add	r3, r2
200020de:	4618      	mov	r0, r3
200020e0:	f7ff ff7a 	bl	20001fd8 <LOS_ListInit>
C:\Users\nitin.deshpande\Documents\GitHub\microsemi-huawei-liteos\microsemi-liteos\mscc-huawei-wsp\sc-gd450i-board-test\Debug/../kernel/base/core/los_priqueue.c:56 (discriminator 3)
    for (uwPri = 0; uwPri < LOS_PRIORITY_QUEUE_PRIORITYNUM; ++uwPri)
200020e4:	687b      	ldr	r3, [r7, #4]
200020e6:	3301      	adds	r3, #1
200020e8:	607b      	str	r3, [r7, #4]
C:\Users\nitin.deshpande\Documents\GitHub\microsemi-huawei-liteos\microsemi-liteos\mscc-huawei-wsp\sc-gd450i-board-test\Debug/../kernel/base/core/los_priqueue.c:56 (discriminator 1)
200020ea:	687b      	ldr	r3, [r7, #4]
200020ec:	2b1f      	cmp	r3, #31
200020ee:	d9f1      	bls.n	200020d4 <osPriqueueInit+0x34>
200020f0:	e000      	b.n	200020f4 <osPriqueueInit+0x54>
C:\Users\nitin.deshpande\Documents\GitHub\microsemi-huawei-liteos\microsemi-liteos\mscc-huawei-wsp\sc-gd450i-board-test\Debug/../kernel/base/core/los_priqueue.c:53
        return;
200020f2:	bf00      	nop
C:\Users\nitin.deshpande\Documents\GitHub\microsemi-huawei-liteos\microsemi-liteos\mscc-huawei-wsp\sc-gd450i-board-test\Debug/../kernel/base/core/los_priqueue.c:60
    }
}
200020f4:	3708      	adds	r7, #8
200020f6:	46bd      	mov	sp, r7
200020f8:	bd80      	pop	{r7, pc}
200020fa:	bf00      	nop
200020fc:	20004808 	.word	0x20004808
20002100:	20004868 	.word	0x20004868

20002104 <LOS_PriqueueEnqueue>:
LOS_PriqueueEnqueue():
C:\Users\nitin.deshpande\Documents\GitHub\microsemi-huawei-liteos\microsemi-liteos\mscc-huawei-wsp\sc-gd450i-board-test\Debug/../kernel/base/core/los_priqueue.c:63

VOID LOS_PriqueueEnqueue(LOS_DL_LIST *ptrPQItem, UINT32 uwPri)
{
20002104:	b580      	push	{r7, lr}
20002106:	b082      	sub	sp, #8
20002108:	af00      	add	r7, sp, #0
2000210a:	6078      	str	r0, [r7, #4]
2000210c:	6039      	str	r1, [r7, #0]
C:\Users\nitin.deshpande\Documents\GitHub\microsemi-huawei-liteos\microsemi-liteos\mscc-huawei-wsp\sc-gd450i-board-test\Debug/../kernel/base/core/los_priqueue.c:64
    LOS_ListTailInsert(&g_pstLosPriorityQueueList[uwPri], ptrPQItem);
2000210e:	4b06      	ldr	r3, [pc, #24]	; (20002128 <LOS_PriqueueEnqueue+0x24>)
20002110:	681a      	ldr	r2, [r3, #0]
20002112:	683b      	ldr	r3, [r7, #0]
20002114:	00db      	lsls	r3, r3, #3
20002116:	4413      	add	r3, r2
20002118:	6879      	ldr	r1, [r7, #4]
2000211a:	4618      	mov	r0, r3
2000211c:	f7ff ff85 	bl	2000202a <LOS_ListTailInsert>
C:\Users\nitin.deshpande\Documents\GitHub\microsemi-huawei-liteos\microsemi-liteos\mscc-huawei-wsp\sc-gd450i-board-test\Debug/../kernel/base/core/los_priqueue.c:65
}
20002120:	bf00      	nop
20002122:	3708      	adds	r7, #8
20002124:	46bd      	mov	sp, r7
20002126:	bd80      	pop	{r7, pc}
20002128:	20004868 	.word	0x20004868

2000212c <LOS_PriqueueDequeue>:
LOS_PriqueueDequeue():
C:\Users\nitin.deshpande\Documents\GitHub\microsemi-huawei-liteos\microsemi-liteos\mscc-huawei-wsp\sc-gd450i-board-test\Debug/../kernel/base/core/los_priqueue.c:68

VOID LOS_PriqueueDequeue(LOS_DL_LIST *ptrPQItem)
{
2000212c:	b580      	push	{r7, lr}
2000212e:	b082      	sub	sp, #8
20002130:	af00      	add	r7, sp, #0
20002132:	6078      	str	r0, [r7, #4]
C:\Users\nitin.deshpande\Documents\GitHub\microsemi-huawei-liteos\microsemi-liteos\mscc-huawei-wsp\sc-gd450i-board-test\Debug/../kernel/base/core/los_priqueue.c:69
    LOS_ListDelete(ptrPQItem);
20002134:	6878      	ldr	r0, [r7, #4]
20002136:	f7ff ff87 	bl	20002048 <LOS_ListDelete>
C:\Users\nitin.deshpande\Documents\GitHub\microsemi-huawei-liteos\microsemi-liteos\mscc-huawei-wsp\sc-gd450i-board-test\Debug/../kernel/base/core/los_priqueue.c:70
}
2000213a:	bf00      	nop
2000213c:	3708      	adds	r7, #8
2000213e:	46bd      	mov	sp, r7
20002140:	bd80      	pop	{r7, pc}
	...

20002144 <LOS_PriqueueTop>:
LOS_PriqueueTop():
C:\Users\nitin.deshpande\Documents\GitHub\microsemi-huawei-liteos\microsemi-liteos\mscc-huawei-wsp\sc-gd450i-board-test\Debug/../kernel/base/core/los_priqueue.c:73

LOS_DL_LIST *LOS_PriqueueTop(VOID)
{
20002144:	b580      	push	{r7, lr}
20002146:	b082      	sub	sp, #8
20002148:	af00      	add	r7, sp, #0
C:\Users\nitin.deshpande\Documents\GitHub\microsemi-huawei-liteos\microsemi-liteos\mscc-huawei-wsp\sc-gd450i-board-test\Debug/../kernel/base/core/los_priqueue.c:74
    UINT32 uwPri = 0;
2000214a:	2300      	movs	r3, #0
2000214c:	607b      	str	r3, [r7, #4]
C:\Users\nitin.deshpande\Documents\GitHub\microsemi-huawei-liteos\microsemi-liteos\mscc-huawei-wsp\sc-gd450i-board-test\Debug/../kernel/base/core/los_priqueue.c:76

    for (uwPri = 0; uwPri < LOS_PRIORITY_QUEUE_PRIORITYNUM; ++uwPri)
2000214e:	2300      	movs	r3, #0
20002150:	607b      	str	r3, [r7, #4]
20002152:	e014      	b.n	2000217e <LOS_PriqueueTop+0x3a>
C:\Users\nitin.deshpande\Documents\GitHub\microsemi-huawei-liteos\microsemi-liteos\mscc-huawei-wsp\sc-gd450i-board-test\Debug/../kernel/base/core/los_priqueue.c:78
    {
        if (!LOS_ListEmpty(&g_pstLosPriorityQueueList[uwPri]))
20002154:	4b0e      	ldr	r3, [pc, #56]	; (20002190 <LOS_PriqueueTop+0x4c>)
20002156:	681a      	ldr	r2, [r3, #0]
20002158:	687b      	ldr	r3, [r7, #4]
2000215a:	00db      	lsls	r3, r3, #3
2000215c:	4413      	add	r3, r2
2000215e:	4618      	mov	r0, r3
20002160:	f7ff ff8c 	bl	2000207c <LOS_ListEmpty>
20002164:	4603      	mov	r3, r0
20002166:	2b00      	cmp	r3, #0
20002168:	d106      	bne.n	20002178 <LOS_PriqueueTop+0x34>
C:\Users\nitin.deshpande\Documents\GitHub\microsemi-huawei-liteos\microsemi-liteos\mscc-huawei-wsp\sc-gd450i-board-test\Debug/../kernel/base/core/los_priqueue.c:80
        {
            return LOS_DL_LIST_FIRST(&g_pstLosPriorityQueueList[uwPri]);
2000216a:	4b09      	ldr	r3, [pc, #36]	; (20002190 <LOS_PriqueueTop+0x4c>)
2000216c:	681a      	ldr	r2, [r3, #0]
2000216e:	687b      	ldr	r3, [r7, #4]
20002170:	00db      	lsls	r3, r3, #3
20002172:	4413      	add	r3, r2
20002174:	685b      	ldr	r3, [r3, #4]
20002176:	e006      	b.n	20002186 <LOS_PriqueueTop+0x42>
C:\Users\nitin.deshpande\Documents\GitHub\microsemi-huawei-liteos\microsemi-liteos\mscc-huawei-wsp\sc-gd450i-board-test\Debug/../kernel/base/core/los_priqueue.c:76 (discriminator 2)
    for (uwPri = 0; uwPri < LOS_PRIORITY_QUEUE_PRIORITYNUM; ++uwPri)
20002178:	687b      	ldr	r3, [r7, #4]
2000217a:	3301      	adds	r3, #1
2000217c:	607b      	str	r3, [r7, #4]
C:\Users\nitin.deshpande\Documents\GitHub\microsemi-huawei-liteos\microsemi-liteos\mscc-huawei-wsp\sc-gd450i-board-test\Debug/../kernel/base/core/los_priqueue.c:76 (discriminator 1)
2000217e:	687b      	ldr	r3, [r7, #4]
20002180:	2b1f      	cmp	r3, #31
20002182:	d9e7      	bls.n	20002154 <LOS_PriqueueTop+0x10>
C:\Users\nitin.deshpande\Documents\GitHub\microsemi-huawei-liteos\microsemi-liteos\mscc-huawei-wsp\sc-gd450i-board-test\Debug/../kernel/base/core/los_priqueue.c:84
        }
    }

    return (LOS_DL_LIST *)NULL;
20002184:	2300      	movs	r3, #0
C:\Users\nitin.deshpande\Documents\GitHub\microsemi-huawei-liteos\microsemi-liteos\mscc-huawei-wsp\sc-gd450i-board-test\Debug/../kernel/base/core/los_priqueue.c:85
}
20002186:	4618      	mov	r0, r3
20002188:	3708      	adds	r7, #8
2000218a:	46bd      	mov	sp, r7
2000218c:	bd80      	pop	{r7, pc}
2000218e:	bf00      	nop
20002190:	20004868 	.word	0x20004868

20002194 <LOS_PriqueueSize>:
LOS_PriqueueSize():
C:\Users\nitin.deshpande\Documents\GitHub\microsemi-huawei-liteos\microsemi-liteos\mscc-huawei-wsp\sc-gd450i-board-test\Debug/../kernel/base/core/los_priqueue.c:88

UINT32 LOS_PriqueueSize(UINT32 uwPri)
{
20002194:	b480      	push	{r7}
20002196:	b085      	sub	sp, #20
20002198:	af00      	add	r7, sp, #0
2000219a:	6078      	str	r0, [r7, #4]
C:\Users\nitin.deshpande\Documents\GitHub\microsemi-huawei-liteos\microsemi-liteos\mscc-huawei-wsp\sc-gd450i-board-test\Debug/../kernel/base/core/los_priqueue.c:89
    UINT32      uwItemCnt = 0;
2000219c:	2300      	movs	r3, #0
2000219e:	60fb      	str	r3, [r7, #12]
C:\Users\nitin.deshpande\Documents\GitHub\microsemi-huawei-liteos\microsemi-liteos\mscc-huawei-wsp\sc-gd450i-board-test\Debug/../kernel/base/core/los_priqueue.c:90
    LOS_DL_LIST *pstCurPQNode = (LOS_DL_LIST *)NULL;
200021a0:	2300      	movs	r3, #0
200021a2:	60bb      	str	r3, [r7, #8]
C:\Users\nitin.deshpande\Documents\GitHub\microsemi-huawei-liteos\microsemi-liteos\mscc-huawei-wsp\sc-gd450i-board-test\Debug/../kernel/base/core/los_priqueue.c:92

    LOS_DL_LIST_FOR_EACH(pstCurPQNode, &g_pstLosPriorityQueueList[uwPri])
200021a4:	4b0e      	ldr	r3, [pc, #56]	; (200021e0 <LOS_PriqueueSize+0x4c>)
200021a6:	681a      	ldr	r2, [r3, #0]
200021a8:	687b      	ldr	r3, [r7, #4]
200021aa:	00db      	lsls	r3, r3, #3
200021ac:	4413      	add	r3, r2
200021ae:	685b      	ldr	r3, [r3, #4]
200021b0:	60bb      	str	r3, [r7, #8]
200021b2:	e005      	b.n	200021c0 <LOS_PriqueueSize+0x2c>
C:\Users\nitin.deshpande\Documents\GitHub\microsemi-huawei-liteos\microsemi-liteos\mscc-huawei-wsp\sc-gd450i-board-test\Debug/../kernel/base/core/los_priqueue.c:94 (discriminator 3)
    {
        ++uwItemCnt;
200021b4:	68fb      	ldr	r3, [r7, #12]
200021b6:	3301      	adds	r3, #1
200021b8:	60fb      	str	r3, [r7, #12]
C:\Users\nitin.deshpande\Documents\GitHub\microsemi-huawei-liteos\microsemi-liteos\mscc-huawei-wsp\sc-gd450i-board-test\Debug/../kernel/base/core/los_priqueue.c:92 (discriminator 3)
    LOS_DL_LIST_FOR_EACH(pstCurPQNode, &g_pstLosPriorityQueueList[uwPri])
200021ba:	68bb      	ldr	r3, [r7, #8]
200021bc:	685b      	ldr	r3, [r3, #4]
200021be:	60bb      	str	r3, [r7, #8]
C:\Users\nitin.deshpande\Documents\GitHub\microsemi-huawei-liteos\microsemi-liteos\mscc-huawei-wsp\sc-gd450i-board-test\Debug/../kernel/base/core/los_priqueue.c:92 (discriminator 1)
200021c0:	4b07      	ldr	r3, [pc, #28]	; (200021e0 <LOS_PriqueueSize+0x4c>)
200021c2:	681a      	ldr	r2, [r3, #0]
200021c4:	687b      	ldr	r3, [r7, #4]
200021c6:	00db      	lsls	r3, r3, #3
200021c8:	441a      	add	r2, r3
200021ca:	68bb      	ldr	r3, [r7, #8]
200021cc:	429a      	cmp	r2, r3
200021ce:	d1f1      	bne.n	200021b4 <LOS_PriqueueSize+0x20>
C:\Users\nitin.deshpande\Documents\GitHub\microsemi-huawei-liteos\microsemi-liteos\mscc-huawei-wsp\sc-gd450i-board-test\Debug/../kernel/base/core/los_priqueue.c:97
    }

    return uwItemCnt;
200021d0:	68fb      	ldr	r3, [r7, #12]
C:\Users\nitin.deshpande\Documents\GitHub\microsemi-huawei-liteos\microsemi-liteos\mscc-huawei-wsp\sc-gd450i-board-test\Debug/../kernel/base/core/los_priqueue.c:98
}
200021d2:	4618      	mov	r0, r3
200021d4:	3714      	adds	r7, #20
200021d6:	46bd      	mov	sp, r7
200021d8:	f85d 7b04 	ldr.w	r7, [sp], #4
200021dc:	4770      	bx	lr
200021de:	bf00      	nop
200021e0:	20004868 	.word	0x20004868

200021e4 <osSwTmrTask>:
osSwTmrTask():
C:\Users\nitin.deshpande\Documents\GitHub\microsemi-huawei-liteos\microsemi-liteos\mscc-huawei-wsp\sc-gd450i-board-test\Debug/../kernel/base/core/los_swtmr.c:73
Input      : None
Output     : None
Return     : None
*****************************************************************************/
LITE_OS_SEC_TEXT VOID osSwTmrTask(VOID)
{
200021e4:	b580      	push	{r7, lr}
200021e6:	b084      	sub	sp, #16
200021e8:	af00      	add	r7, sp, #0
C:\Users\nitin.deshpande\Documents\GitHub\microsemi-huawei-liteos\microsemi-liteos\mscc-huawei-wsp\sc-gd450i-board-test\Debug/../kernel/base/core/los_swtmr.c:74
    SWTMR_HANDLER_ITEM_P pstSwtmrHandle = (SWTMR_HANDLER_ITEM_P)NULL;
200021ea:	2300      	movs	r3, #0
200021ec:	60bb      	str	r3, [r7, #8]
C:\Users\nitin.deshpande\Documents\GitHub\microsemi-huawei-liteos\microsemi-liteos\mscc-huawei-wsp\sc-gd450i-board-test\Debug/../kernel/base/core/los_swtmr.c:80
    SWTMR_HANDLER_ITEM_S stSwtmrHandle;
    UINT32 uwRet;

    for ( ; ; )
    {
        uwRet = LOS_QueueRead(m_uwSwTmrHandlerQueue, &pstSwtmrHandle, sizeof(SWTMR_HANDLER_ITEM_P), LOS_WAIT_FOREVER);
200021ee:	4b11      	ldr	r3, [pc, #68]	; (20002234 <osSwTmrTask+0x50>)
200021f0:	6818      	ldr	r0, [r3, #0]
200021f2:	f107 0108 	add.w	r1, r7, #8
200021f6:	f04f 33ff 	mov.w	r3, #4294967295
200021fa:	2204      	movs	r2, #4
200021fc:	f7ff fc2e 	bl	20001a5c <LOS_QueueRead>
20002200:	60f8      	str	r0, [r7, #12]
C:\Users\nitin.deshpande\Documents\GitHub\microsemi-huawei-liteos\microsemi-liteos\mscc-huawei-wsp\sc-gd450i-board-test\Debug/../kernel/base/core/los_swtmr.c:81
        if (uwRet == LOS_OK)
20002202:	68fb      	ldr	r3, [r7, #12]
20002204:	2b00      	cmp	r3, #0
20002206:	d1f2      	bne.n	200021ee <osSwTmrTask+0xa>
C:\Users\nitin.deshpande\Documents\GitHub\microsemi-huawei-liteos\microsemi-liteos\mscc-huawei-wsp\sc-gd450i-board-test\Debug/../kernel/base/core/los_swtmr.c:83
        {
            if (pstSwtmrHandle != NULL)
20002208:	68bb      	ldr	r3, [r7, #8]
2000220a:	2b00      	cmp	r3, #0
2000220c:	d0ef      	beq.n	200021ee <osSwTmrTask+0xa>
C:\Users\nitin.deshpande\Documents\GitHub\microsemi-huawei-liteos\microsemi-liteos\mscc-huawei-wsp\sc-gd450i-board-test\Debug/../kernel/base/core/los_swtmr.c:85
            {
                stSwtmrHandle.pfnHandler = pstSwtmrHandle->pfnHandler;
2000220e:	68bb      	ldr	r3, [r7, #8]
20002210:	681b      	ldr	r3, [r3, #0]
20002212:	603b      	str	r3, [r7, #0]
C:\Users\nitin.deshpande\Documents\GitHub\microsemi-huawei-liteos\microsemi-liteos\mscc-huawei-wsp\sc-gd450i-board-test\Debug/../kernel/base/core/los_swtmr.c:86
                stSwtmrHandle.uwArg = pstSwtmrHandle->uwArg;
20002214:	68bb      	ldr	r3, [r7, #8]
20002216:	685b      	ldr	r3, [r3, #4]
20002218:	607b      	str	r3, [r7, #4]
C:\Users\nitin.deshpande\Documents\GitHub\microsemi-huawei-liteos\microsemi-liteos\mscc-huawei-wsp\sc-gd450i-board-test\Debug/../kernel/base/core/los_swtmr.c:87
                (VOID)LOS_MemboxFree(m_aucSwTmrHandlerPool, pstSwtmrHandle);
2000221a:	68bb      	ldr	r3, [r7, #8]
2000221c:	4619      	mov	r1, r3
2000221e:	4806      	ldr	r0, [pc, #24]	; (20002238 <osSwTmrTask+0x54>)
20002220:	f7fe fc78 	bl	20000b14 <LOS_MemboxFree>
C:\Users\nitin.deshpande\Documents\GitHub\microsemi-huawei-liteos\microsemi-liteos\mscc-huawei-wsp\sc-gd450i-board-test\Debug/../kernel/base/core/los_swtmr.c:88
                if (stSwtmrHandle.pfnHandler != NULL)
20002224:	683b      	ldr	r3, [r7, #0]
20002226:	2b00      	cmp	r3, #0
20002228:	d0e1      	beq.n	200021ee <osSwTmrTask+0xa>
C:\Users\nitin.deshpande\Documents\GitHub\microsemi-huawei-liteos\microsemi-liteos\mscc-huawei-wsp\sc-gd450i-board-test\Debug/../kernel/base/core/los_swtmr.c:90
                {
                    stSwtmrHandle.pfnHandler(stSwtmrHandle.uwArg);
2000222a:	683b      	ldr	r3, [r7, #0]
2000222c:	687a      	ldr	r2, [r7, #4]
2000222e:	4610      	mov	r0, r2
20002230:	4798      	blx	r3
C:\Users\nitin.deshpande\Documents\GitHub\microsemi-huawei-liteos\microsemi-liteos\mscc-huawei-wsp\sc-gd450i-board-test\Debug/../kernel/base/core/los_swtmr.c:80
        uwRet = LOS_QueueRead(m_uwSwTmrHandlerQueue, &pstSwtmrHandle, sizeof(SWTMR_HANDLER_ITEM_P), LOS_WAIT_FOREVER);
20002232:	e7dc      	b.n	200021ee <osSwTmrTask+0xa>
20002234:	200047f8 	.word	0x200047f8
20002238:	20004878 	.word	0x20004878

2000223c <osSwTmrTaskCreate>:
osSwTmrTaskCreate():
C:\Users\nitin.deshpande\Documents\GitHub\microsemi-huawei-liteos\microsemi-liteos\mscc-huawei-wsp\sc-gd450i-board-test\Debug/../kernel/base/core/los_swtmr.c:105
Input      : None
Output     : None
Return     : LOS_OK on success or error code on failure
*****************************************************************************/
LITE_OS_SEC_TEXT_INIT UINT32 osSwTmrTaskCreate(VOID)
{
2000223c:	b580      	push	{r7, lr}
2000223e:	b08a      	sub	sp, #40	; 0x28
20002240:	af00      	add	r7, sp, #0
C:\Users\nitin.deshpande\Documents\GitHub\microsemi-huawei-liteos\microsemi-liteos\mscc-huawei-wsp\sc-gd450i-board-test\Debug/../kernel/base/core/los_swtmr.c:109
    UINT32 uwRet;
    TSK_INIT_PARAM_S stSwTmrTask;

    (VOID)memset(&stSwTmrTask, 0, sizeof(TSK_INIT_PARAM_S));
20002242:	463b      	mov	r3, r7
20002244:	2224      	movs	r2, #36	; 0x24
20002246:	2100      	movs	r1, #0
20002248:	4618      	mov	r0, r3
2000224a:	f002 f835 	bl	200042b8 <memset>
C:\Users\nitin.deshpande\Documents\GitHub\microsemi-huawei-liteos\microsemi-liteos\mscc-huawei-wsp\sc-gd450i-board-test\Debug/../kernel/base/core/los_swtmr.c:110
    stSwTmrTask.pfnTaskEntry    = (TSK_ENTRY_FUNC)osSwTmrTask;
2000224e:	4b0b      	ldr	r3, [pc, #44]	; (2000227c <osSwTmrTaskCreate+0x40>)
20002250:	603b      	str	r3, [r7, #0]
C:\Users\nitin.deshpande\Documents\GitHub\microsemi-huawei-liteos\microsemi-liteos\mscc-huawei-wsp\sc-gd450i-board-test\Debug/../kernel/base/core/los_swtmr.c:111
    stSwTmrTask.uwStackSize     = LOSCFG_BASE_CORE_TSK_DEFAULT_STACK_SIZE;
20002252:	f44f 7334 	mov.w	r3, #720	; 0x2d0
20002256:	61bb      	str	r3, [r7, #24]
C:\Users\nitin.deshpande\Documents\GitHub\microsemi-huawei-liteos\microsemi-liteos\mscc-huawei-wsp\sc-gd450i-board-test\Debug/../kernel/base/core/los_swtmr.c:112
    stSwTmrTask.pcName          = "Swt_Task";
20002258:	4b09      	ldr	r3, [pc, #36]	; (20002280 <osSwTmrTaskCreate+0x44>)
2000225a:	61fb      	str	r3, [r7, #28]
C:\Users\nitin.deshpande\Documents\GitHub\microsemi-huawei-liteos\microsemi-liteos\mscc-huawei-wsp\sc-gd450i-board-test\Debug/../kernel/base/core/los_swtmr.c:113
    stSwTmrTask.usTaskPrio      = 0;
2000225c:	2300      	movs	r3, #0
2000225e:	80bb      	strh	r3, [r7, #4]
C:\Users\nitin.deshpande\Documents\GitHub\microsemi-huawei-liteos\microsemi-liteos\mscc-huawei-wsp\sc-gd450i-board-test\Debug/../kernel/base/core/los_swtmr.c:114
    stSwTmrTask.uwResved        = LOS_TASK_STATUS_DETACHED;
20002260:	2380      	movs	r3, #128	; 0x80
20002262:	623b      	str	r3, [r7, #32]
C:\Users\nitin.deshpande\Documents\GitHub\microsemi-huawei-liteos\microsemi-liteos\mscc-huawei-wsp\sc-gd450i-board-test\Debug/../kernel/base/core/los_swtmr.c:115
    uwRet = LOS_TaskCreate(&g_uwSwtmrTaskID, &stSwTmrTask);
20002264:	463b      	mov	r3, r7
20002266:	4619      	mov	r1, r3
20002268:	4806      	ldr	r0, [pc, #24]	; (20002284 <osSwTmrTaskCreate+0x48>)
2000226a:	f000 fe3b 	bl	20002ee4 <LOS_TaskCreate>
2000226e:	6278      	str	r0, [r7, #36]	; 0x24
C:\Users\nitin.deshpande\Documents\GitHub\microsemi-huawei-liteos\microsemi-liteos\mscc-huawei-wsp\sc-gd450i-board-test\Debug/../kernel/base/core/los_swtmr.c:116
    return uwRet;
20002270:	6a7b      	ldr	r3, [r7, #36]	; 0x24
C:\Users\nitin.deshpande\Documents\GitHub\microsemi-huawei-liteos\microsemi-liteos\mscc-huawei-wsp\sc-gd450i-board-test\Debug/../kernel/base/core/los_swtmr.c:117
}
20002272:	4618      	mov	r0, r3
20002274:	3728      	adds	r7, #40	; 0x28
20002276:	46bd      	mov	sp, r7
20002278:	bd80      	pop	{r7, pc}
2000227a:	bf00      	nop
2000227c:	200021e5 	.word	0x200021e5
20002280:	20004300 	.word	0x20004300
20002284:	2000494c 	.word	0x2000494c

20002288 <osSwTmrInit>:
osSwTmrInit():
C:\Users\nitin.deshpande\Documents\GitHub\microsemi-huawei-liteos\microsemi-liteos\mscc-huawei-wsp\sc-gd450i-board-test\Debug/../kernel/base/core/los_swtmr.c:127
Input      : None
Output     : None
Return     : LOS_OK on success or error code on failure
*****************************************************************************/
LITE_OS_SEC_TEXT_INIT UINT32 osSwTmrInit(VOID)
{
20002288:	b580      	push	{r7, lr}
2000228a:	b088      	sub	sp, #32
2000228c:	af02      	add	r7, sp, #8
C:\Users\nitin.deshpande\Documents\GitHub\microsemi-huawei-liteos\microsemi-liteos\mscc-huawei-wsp\sc-gd450i-board-test\Debug/../kernel/base/core/los_swtmr.c:139
    if (0 == LOSCFG_BASE_CORE_SWTMR_LIMIT)  /*lint !e506*/
    {
        return LOS_ERRNO_SWTMR_MAXSIZE_INVALID;
    }

    m_pstSwtmrSortList = (SWTMR_CTRL_S *)NULL;
2000228e:	4b2f      	ldr	r3, [pc, #188]	; (2000234c <osSwTmrInit+0xc4>)
20002290:	2200      	movs	r2, #0
20002292:	601a      	str	r2, [r3, #0]
C:\Users\nitin.deshpande\Documents\GitHub\microsemi-huawei-liteos\microsemi-liteos\mscc-huawei-wsp\sc-gd450i-board-test\Debug/../kernel/base/core/los_swtmr.c:140
    uwSize = sizeof(SWTMR_CTRL_S) * LOSCFG_BASE_CORE_SWTMR_LIMIT;
20002294:	f44f 7300 	mov.w	r3, #512	; 0x200
20002298:	60bb      	str	r3, [r7, #8]
C:\Users\nitin.deshpande\Documents\GitHub\microsemi-huawei-liteos\microsemi-liteos\mscc-huawei-wsp\sc-gd450i-board-test\Debug/../kernel/base/core/los_swtmr.c:141
    pstSwtmr = (SWTMR_CTRL_S *)LOS_MemAlloc(m_aucSysMem0, uwSize);
2000229a:	4b2d      	ldr	r3, [pc, #180]	; (20002350 <osSwTmrInit+0xc8>)
2000229c:	681b      	ldr	r3, [r3, #0]
2000229e:	68b9      	ldr	r1, [r7, #8]
200022a0:	4618      	mov	r0, r3
200022a2:	f7fe ff65 	bl	20001170 <LOS_MemAlloc>
200022a6:	6138      	str	r0, [r7, #16]
C:\Users\nitin.deshpande\Documents\GitHub\microsemi-huawei-liteos\microsemi-liteos\mscc-huawei-wsp\sc-gd450i-board-test\Debug/../kernel/base/core/los_swtmr.c:142
    if (NULL == pstSwtmr)
200022a8:	693b      	ldr	r3, [r7, #16]
200022aa:	2b00      	cmp	r3, #0
200022ac:	d101      	bne.n	200022b2 <osSwTmrInit+0x2a>
C:\Users\nitin.deshpande\Documents\GitHub\microsemi-huawei-liteos\microsemi-liteos\mscc-huawei-wsp\sc-gd450i-board-test\Debug/../kernel/base/core/los_swtmr.c:144
    {
        return LOS_ERRNO_SWTMR_NO_MEMORY;
200022ae:	4b29      	ldr	r3, [pc, #164]	; (20002354 <osSwTmrInit+0xcc>)
200022b0:	e048      	b.n	20002344 <osSwTmrInit+0xbc>
C:\Users\nitin.deshpande\Documents\GitHub\microsemi-huawei-liteos\microsemi-liteos\mscc-huawei-wsp\sc-gd450i-board-test\Debug/../kernel/base/core/los_swtmr.c:147
    }

    (VOID)memset((void *)pstSwtmr, 0, uwSize);
200022b2:	68ba      	ldr	r2, [r7, #8]
200022b4:	2100      	movs	r1, #0
200022b6:	6938      	ldr	r0, [r7, #16]
200022b8:	f001 fffe 	bl	200042b8 <memset>
C:\Users\nitin.deshpande\Documents\GitHub\microsemi-huawei-liteos\microsemi-liteos\mscc-huawei-wsp\sc-gd450i-board-test\Debug/../kernel/base/core/los_swtmr.c:148
    m_pstSwtmrCBArray = pstSwtmr;
200022bc:	4a26      	ldr	r2, [pc, #152]	; (20002358 <osSwTmrInit+0xd0>)
200022be:	693b      	ldr	r3, [r7, #16]
200022c0:	6013      	str	r3, [r2, #0]
C:\Users\nitin.deshpande\Documents\GitHub\microsemi-huawei-liteos\microsemi-liteos\mscc-huawei-wsp\sc-gd450i-board-test\Debug/../kernel/base/core/los_swtmr.c:149
    m_pstSwtmrFreeList = pstSwtmr;
200022c2:	4a26      	ldr	r2, [pc, #152]	; (2000235c <osSwTmrInit+0xd4>)
200022c4:	693b      	ldr	r3, [r7, #16]
200022c6:	6013      	str	r3, [r2, #0]
C:\Users\nitin.deshpande\Documents\GitHub\microsemi-huawei-liteos\microsemi-liteos\mscc-huawei-wsp\sc-gd450i-board-test\Debug/../kernel/base/core/los_swtmr.c:150
    pstSwtmr->usTimerID = 0;
200022c8:	693b      	ldr	r3, [r7, #16]
200022ca:	2200      	movs	r2, #0
200022cc:	811a      	strh	r2, [r3, #8]
C:\Users\nitin.deshpande\Documents\GitHub\microsemi-huawei-liteos\microsemi-liteos\mscc-huawei-wsp\sc-gd450i-board-test\Debug/../kernel/base/core/los_swtmr.c:151
    pstTemp = pstSwtmr;
200022ce:	693b      	ldr	r3, [r7, #16]
200022d0:	60fb      	str	r3, [r7, #12]
C:\Users\nitin.deshpande\Documents\GitHub\microsemi-huawei-liteos\microsemi-liteos\mscc-huawei-wsp\sc-gd450i-board-test\Debug/../kernel/base/core/los_swtmr.c:152
    pstSwtmr++;
200022d2:	693b      	ldr	r3, [r7, #16]
200022d4:	3320      	adds	r3, #32
200022d6:	613b      	str	r3, [r7, #16]
C:\Users\nitin.deshpande\Documents\GitHub\microsemi-huawei-liteos\microsemi-liteos\mscc-huawei-wsp\sc-gd450i-board-test\Debug/../kernel/base/core/los_swtmr.c:153
    for (usIndex = 1; usIndex < LOSCFG_BASE_CORE_SWTMR_LIMIT; usIndex++, pstSwtmr++)
200022d8:	2301      	movs	r3, #1
200022da:	82fb      	strh	r3, [r7, #22]
200022dc:	e00d      	b.n	200022fa <osSwTmrInit+0x72>
C:\Users\nitin.deshpande\Documents\GitHub\microsemi-huawei-liteos\microsemi-liteos\mscc-huawei-wsp\sc-gd450i-board-test\Debug/../kernel/base/core/los_swtmr.c:155 (discriminator 3)
    {
        pstSwtmr->usTimerID = usIndex;
200022de:	693b      	ldr	r3, [r7, #16]
200022e0:	8afa      	ldrh	r2, [r7, #22]
200022e2:	811a      	strh	r2, [r3, #8]
C:\Users\nitin.deshpande\Documents\GitHub\microsemi-huawei-liteos\microsemi-liteos\mscc-huawei-wsp\sc-gd450i-board-test\Debug/../kernel/base/core/los_swtmr.c:156 (discriminator 3)
        pstTemp->pstNext = pstSwtmr;
200022e4:	68fb      	ldr	r3, [r7, #12]
200022e6:	693a      	ldr	r2, [r7, #16]
200022e8:	601a      	str	r2, [r3, #0]
C:\Users\nitin.deshpande\Documents\GitHub\microsemi-huawei-liteos\microsemi-liteos\mscc-huawei-wsp\sc-gd450i-board-test\Debug/../kernel/base/core/los_swtmr.c:157 (discriminator 3)
        pstTemp = pstSwtmr;
200022ea:	693b      	ldr	r3, [r7, #16]
200022ec:	60fb      	str	r3, [r7, #12]
C:\Users\nitin.deshpande\Documents\GitHub\microsemi-huawei-liteos\microsemi-liteos\mscc-huawei-wsp\sc-gd450i-board-test\Debug/../kernel/base/core/los_swtmr.c:153 (discriminator 3)
    for (usIndex = 1; usIndex < LOSCFG_BASE_CORE_SWTMR_LIMIT; usIndex++, pstSwtmr++)
200022ee:	8afb      	ldrh	r3, [r7, #22]
200022f0:	3301      	adds	r3, #1
200022f2:	82fb      	strh	r3, [r7, #22]
200022f4:	693b      	ldr	r3, [r7, #16]
200022f6:	3320      	adds	r3, #32
200022f8:	613b      	str	r3, [r7, #16]
C:\Users\nitin.deshpande\Documents\GitHub\microsemi-huawei-liteos\microsemi-liteos\mscc-huawei-wsp\sc-gd450i-board-test\Debug/../kernel/base/core/los_swtmr.c:153 (discriminator 1)
200022fa:	8afb      	ldrh	r3, [r7, #22]
200022fc:	2b0f      	cmp	r3, #15
200022fe:	d9ee      	bls.n	200022de <osSwTmrInit+0x56>
C:\Users\nitin.deshpande\Documents\GitHub\microsemi-huawei-liteos\microsemi-liteos\mscc-huawei-wsp\sc-gd450i-board-test\Debug/../kernel/base/core/los_swtmr.c:160
    }

    uwRet = LOS_MemboxInit(m_aucSwTmrHandlerPool, sizeof(m_aucSwTmrHandlerPool), sizeof(SWTMR_HANDLER_ITEM_S));
20002300:	2208      	movs	r2, #8
20002302:	21d0      	movs	r1, #208	; 0xd0
20002304:	4816      	ldr	r0, [pc, #88]	; (20002360 <osSwTmrInit+0xd8>)
20002306:	f7fe fb77 	bl	200009f8 <LOS_MemboxInit>
2000230a:	6078      	str	r0, [r7, #4]
C:\Users\nitin.deshpande\Documents\GitHub\microsemi-huawei-liteos\microsemi-liteos\mscc-huawei-wsp\sc-gd450i-board-test\Debug/../kernel/base/core/los_swtmr.c:161
    if (uwRet != LOS_OK)
2000230c:	687b      	ldr	r3, [r7, #4]
2000230e:	2b00      	cmp	r3, #0
20002310:	d001      	beq.n	20002316 <osSwTmrInit+0x8e>
C:\Users\nitin.deshpande\Documents\GitHub\microsemi-huawei-liteos\microsemi-liteos\mscc-huawei-wsp\sc-gd450i-board-test\Debug/../kernel/base/core/los_swtmr.c:163
    {
        return LOS_ERRNO_SWTMR_HANDLER_POOL_NO_MEM;
20002312:	4b14      	ldr	r3, [pc, #80]	; (20002364 <osSwTmrInit+0xdc>)
20002314:	e016      	b.n	20002344 <osSwTmrInit+0xbc>
C:\Users\nitin.deshpande\Documents\GitHub\microsemi-huawei-liteos\microsemi-liteos\mscc-huawei-wsp\sc-gd450i-board-test\Debug/../kernel/base/core/los_swtmr.c:166
    }

    uwRet = LOS_QueueCreate((CHAR *)NULL, OS_SWTMR_HANDLE_QUEUE_SIZE, &m_uwSwTmrHandlerQueue, 0, sizeof(SWTMR_HANDLER_ITEM_P));
20002316:	2304      	movs	r3, #4
20002318:	9300      	str	r3, [sp, #0]
2000231a:	2300      	movs	r3, #0
2000231c:	4a12      	ldr	r2, [pc, #72]	; (20002368 <osSwTmrInit+0xe0>)
2000231e:	2110      	movs	r1, #16
20002320:	2000      	movs	r0, #0
20002322:	f7ff fb49 	bl	200019b8 <LOS_QueueCreate>
20002326:	6078      	str	r0, [r7, #4]
C:\Users\nitin.deshpande\Documents\GitHub\microsemi-huawei-liteos\microsemi-liteos\mscc-huawei-wsp\sc-gd450i-board-test\Debug/../kernel/base/core/los_swtmr.c:167
    if (uwRet != LOS_OK)
20002328:	687b      	ldr	r3, [r7, #4]
2000232a:	2b00      	cmp	r3, #0
2000232c:	d001      	beq.n	20002332 <osSwTmrInit+0xaa>
C:\Users\nitin.deshpande\Documents\GitHub\microsemi-huawei-liteos\microsemi-liteos\mscc-huawei-wsp\sc-gd450i-board-test\Debug/../kernel/base/core/los_swtmr.c:169
    {
        return LOS_ERRNO_SWTMR_QUEUE_CREATE_FAILED;
2000232e:	4b0f      	ldr	r3, [pc, #60]	; (2000236c <osSwTmrInit+0xe4>)
20002330:	e008      	b.n	20002344 <osSwTmrInit+0xbc>
C:\Users\nitin.deshpande\Documents\GitHub\microsemi-huawei-liteos\microsemi-liteos\mscc-huawei-wsp\sc-gd450i-board-test\Debug/../kernel/base/core/los_swtmr.c:172
    }

    uwRet = osSwTmrTaskCreate();
20002332:	f7ff ff83 	bl	2000223c <osSwTmrTaskCreate>
20002336:	6078      	str	r0, [r7, #4]
C:\Users\nitin.deshpande\Documents\GitHub\microsemi-huawei-liteos\microsemi-liteos\mscc-huawei-wsp\sc-gd450i-board-test\Debug/../kernel/base/core/los_swtmr.c:173
    if (LOS_OK != uwRet)
20002338:	687b      	ldr	r3, [r7, #4]
2000233a:	2b00      	cmp	r3, #0
2000233c:	d001      	beq.n	20002342 <osSwTmrInit+0xba>
C:\Users\nitin.deshpande\Documents\GitHub\microsemi-huawei-liteos\microsemi-liteos\mscc-huawei-wsp\sc-gd450i-board-test\Debug/../kernel/base/core/los_swtmr.c:175
    {
        return LOS_ERRNO_SWTMR_TASK_CREATE_FAILED;
2000233e:	4b0c      	ldr	r3, [pc, #48]	; (20002370 <osSwTmrInit+0xe8>)
20002340:	e000      	b.n	20002344 <osSwTmrInit+0xbc>
C:\Users\nitin.deshpande\Documents\GitHub\microsemi-huawei-liteos\microsemi-liteos\mscc-huawei-wsp\sc-gd450i-board-test\Debug/../kernel/base/core/los_swtmr.c:178
    }

    return LOS_OK;
20002342:	2300      	movs	r3, #0
C:\Users\nitin.deshpande\Documents\GitHub\microsemi-huawei-liteos\microsemi-liteos\mscc-huawei-wsp\sc-gd450i-board-test\Debug/../kernel/base/core/los_swtmr.c:179
}
20002344:	4618      	mov	r0, r3
20002346:	3718      	adds	r7, #24
20002348:	46bd      	mov	sp, r7
2000234a:	bd80      	pop	{r7, pc}
2000234c:	20004874 	.word	0x20004874
20002350:	20004808 	.word	0x20004808
20002354:	02000307 	.word	0x02000307
20002358:	20004870 	.word	0x20004870
2000235c:	2000486c 	.word	0x2000486c
20002360:	20004878 	.word	0x20004878
20002364:	0200030a 	.word	0x0200030a
20002368:	200047f8 	.word	0x200047f8
2000236c:	0200030b 	.word	0x0200030b
20002370:	0200030c 	.word	0x0200030c

20002374 <osSwTmrStart>:
osSwTmrStart():
C:\Users\nitin.deshpande\Documents\GitHub\microsemi-huawei-liteos\microsemi-liteos\mscc-huawei-wsp\sc-gd450i-board-test\Debug/../kernel/base/core/los_swtmr.c:189
Input      : pstSwtmr ---------- Need to start Software Timer
Output     : None
Return     : None
*****************************************************************************/
LITE_OS_SEC_TEXT VOID osSwTmrStart(SWTMR_CTRL_S *pstSwtmr)
{
20002374:	b480      	push	{r7}
20002376:	b085      	sub	sp, #20
20002378:	af00      	add	r7, sp, #0
2000237a:	6078      	str	r0, [r7, #4]
C:\Users\nitin.deshpande\Documents\GitHub\microsemi-huawei-liteos\microsemi-liteos\mscc-huawei-wsp\sc-gd450i-board-test\Debug/../kernel/base/core/los_swtmr.c:190
    SWTMR_CTRL_S *pstPrev = (SWTMR_CTRL_S *)NULL;
2000237c:	2300      	movs	r3, #0
2000237e:	60fb      	str	r3, [r7, #12]
C:\Users\nitin.deshpande\Documents\GitHub\microsemi-huawei-liteos\microsemi-liteos\mscc-huawei-wsp\sc-gd450i-board-test\Debug/../kernel/base/core/los_swtmr.c:191
    SWTMR_CTRL_S *pstCur = (SWTMR_CTRL_S *)NULL;
20002380:	2300      	movs	r3, #0
20002382:	60bb      	str	r3, [r7, #8]
C:\Users\nitin.deshpande\Documents\GitHub\microsemi-huawei-liteos\microsemi-liteos\mscc-huawei-wsp\sc-gd450i-board-test\Debug/../kernel/base/core/los_swtmr.c:193

    if (pstSwtmr->ucOverrun == 0 && (pstSwtmr->ucMode == LOS_SWTMR_MODE_ONCE || pstSwtmr->ucMode == LOS_SWTMR_MODE_OPP))
20002384:	687b      	ldr	r3, [r7, #4]
20002386:	799b      	ldrb	r3, [r3, #6]
20002388:	2b00      	cmp	r3, #0
2000238a:	d10c      	bne.n	200023a6 <osSwTmrStart+0x32>
C:\Users\nitin.deshpande\Documents\GitHub\microsemi-huawei-liteos\microsemi-liteos\mscc-huawei-wsp\sc-gd450i-board-test\Debug/../kernel/base/core/los_swtmr.c:193 (discriminator 1)
2000238c:	687b      	ldr	r3, [r7, #4]
2000238e:	795b      	ldrb	r3, [r3, #5]
20002390:	2b00      	cmp	r3, #0
20002392:	d003      	beq.n	2000239c <osSwTmrStart+0x28>
C:\Users\nitin.deshpande\Documents\GitHub\microsemi-huawei-liteos\microsemi-liteos\mscc-huawei-wsp\sc-gd450i-board-test\Debug/../kernel/base/core/los_swtmr.c:193 (discriminator 2)
20002394:	687b      	ldr	r3, [r7, #4]
20002396:	795b      	ldrb	r3, [r3, #5]
20002398:	2b02      	cmp	r3, #2
2000239a:	d104      	bne.n	200023a6 <osSwTmrStart+0x32>
C:\Users\nitin.deshpande\Documents\GitHub\microsemi-huawei-liteos\microsemi-liteos\mscc-huawei-wsp\sc-gd450i-board-test\Debug/../kernel/base/core/los_swtmr.c:195
    {
        pstSwtmr->uwCount = pstSwtmr->uwExpiry;
2000239c:	687b      	ldr	r3, [r7, #4]
2000239e:	695a      	ldr	r2, [r3, #20]
200023a0:	687b      	ldr	r3, [r7, #4]
200023a2:	60da      	str	r2, [r3, #12]
200023a4:	e003      	b.n	200023ae <osSwTmrStart+0x3a>
C:\Users\nitin.deshpande\Documents\GitHub\microsemi-huawei-liteos\microsemi-liteos\mscc-huawei-wsp\sc-gd450i-board-test\Debug/../kernel/base/core/los_swtmr.c:199
    }
    else
    {
        pstSwtmr->uwCount = pstSwtmr->uwInterval;
200023a6:	687b      	ldr	r3, [r7, #4]
200023a8:	691a      	ldr	r2, [r3, #16]
200023aa:	687b      	ldr	r3, [r7, #4]
200023ac:	60da      	str	r2, [r3, #12]
C:\Users\nitin.deshpande\Documents\GitHub\microsemi-huawei-liteos\microsemi-liteos\mscc-huawei-wsp\sc-gd450i-board-test\Debug/../kernel/base/core/los_swtmr.c:201
    }
    pstCur = m_pstSwtmrSortList;
200023ae:	4b1d      	ldr	r3, [pc, #116]	; (20002424 <osSwTmrStart+0xb0>)
200023b0:	681b      	ldr	r3, [r3, #0]
200023b2:	60bb      	str	r3, [r7, #8]
C:\Users\nitin.deshpande\Documents\GitHub\microsemi-huawei-liteos\microsemi-liteos\mscc-huawei-wsp\sc-gd450i-board-test\Debug/../kernel/base/core/los_swtmr.c:203

    while (pstCur != NULL)
200023b4:	e011      	b.n	200023da <osSwTmrStart+0x66>
C:\Users\nitin.deshpande\Documents\GitHub\microsemi-huawei-liteos\microsemi-liteos\mscc-huawei-wsp\sc-gd450i-board-test\Debug/../kernel/base/core/los_swtmr.c:205
    {
        if (pstCur->uwCount > pstSwtmr->uwCount)
200023b6:	68bb      	ldr	r3, [r7, #8]
200023b8:	68da      	ldr	r2, [r3, #12]
200023ba:	687b      	ldr	r3, [r7, #4]
200023bc:	68db      	ldr	r3, [r3, #12]
200023be:	429a      	cmp	r2, r3
200023c0:	d80f      	bhi.n	200023e2 <osSwTmrStart+0x6e>
C:\Users\nitin.deshpande\Documents\GitHub\microsemi-huawei-liteos\microsemi-liteos\mscc-huawei-wsp\sc-gd450i-board-test\Debug/../kernel/base/core/los_swtmr.c:210
        {
            break;
        }

        pstSwtmr->uwCount -= pstCur->uwCount;
200023c2:	687b      	ldr	r3, [r7, #4]
200023c4:	68da      	ldr	r2, [r3, #12]
200023c6:	68bb      	ldr	r3, [r7, #8]
200023c8:	68db      	ldr	r3, [r3, #12]
200023ca:	1ad2      	subs	r2, r2, r3
200023cc:	687b      	ldr	r3, [r7, #4]
200023ce:	60da      	str	r2, [r3, #12]
C:\Users\nitin.deshpande\Documents\GitHub\microsemi-huawei-liteos\microsemi-liteos\mscc-huawei-wsp\sc-gd450i-board-test\Debug/../kernel/base/core/los_swtmr.c:211
        pstPrev = pstCur;
200023d0:	68bb      	ldr	r3, [r7, #8]
200023d2:	60fb      	str	r3, [r7, #12]
C:\Users\nitin.deshpande\Documents\GitHub\microsemi-huawei-liteos\microsemi-liteos\mscc-huawei-wsp\sc-gd450i-board-test\Debug/../kernel/base/core/los_swtmr.c:212
        pstCur = pstCur->pstNext;
200023d4:	68bb      	ldr	r3, [r7, #8]
200023d6:	681b      	ldr	r3, [r3, #0]
200023d8:	60bb      	str	r3, [r7, #8]
C:\Users\nitin.deshpande\Documents\GitHub\microsemi-huawei-liteos\microsemi-liteos\mscc-huawei-wsp\sc-gd450i-board-test\Debug/../kernel/base/core/los_swtmr.c:203
    while (pstCur != NULL)
200023da:	68bb      	ldr	r3, [r7, #8]
200023dc:	2b00      	cmp	r3, #0
200023de:	d1ea      	bne.n	200023b6 <osSwTmrStart+0x42>
200023e0:	e000      	b.n	200023e4 <osSwTmrStart+0x70>
C:\Users\nitin.deshpande\Documents\GitHub\microsemi-huawei-liteos\microsemi-liteos\mscc-huawei-wsp\sc-gd450i-board-test\Debug/../kernel/base/core/los_swtmr.c:207
            break;
200023e2:	bf00      	nop
C:\Users\nitin.deshpande\Documents\GitHub\microsemi-huawei-liteos\microsemi-liteos\mscc-huawei-wsp\sc-gd450i-board-test\Debug/../kernel/base/core/los_swtmr.c:215
    }

    pstSwtmr->pstNext = pstCur;
200023e4:	687b      	ldr	r3, [r7, #4]
200023e6:	68ba      	ldr	r2, [r7, #8]
200023e8:	601a      	str	r2, [r3, #0]
C:\Users\nitin.deshpande\Documents\GitHub\microsemi-huawei-liteos\microsemi-liteos\mscc-huawei-wsp\sc-gd450i-board-test\Debug/../kernel/base/core/los_swtmr.c:217

    if (pstCur != NULL)
200023ea:	68bb      	ldr	r3, [r7, #8]
200023ec:	2b00      	cmp	r3, #0
200023ee:	d006      	beq.n	200023fe <osSwTmrStart+0x8a>
C:\Users\nitin.deshpande\Documents\GitHub\microsemi-huawei-liteos\microsemi-liteos\mscc-huawei-wsp\sc-gd450i-board-test\Debug/../kernel/base/core/los_swtmr.c:219
    {
        pstCur->uwCount -= pstSwtmr->uwCount;
200023f0:	68bb      	ldr	r3, [r7, #8]
200023f2:	68da      	ldr	r2, [r3, #12]
200023f4:	687b      	ldr	r3, [r7, #4]
200023f6:	68db      	ldr	r3, [r3, #12]
200023f8:	1ad2      	subs	r2, r2, r3
200023fa:	68bb      	ldr	r3, [r7, #8]
200023fc:	60da      	str	r2, [r3, #12]
C:\Users\nitin.deshpande\Documents\GitHub\microsemi-huawei-liteos\microsemi-liteos\mscc-huawei-wsp\sc-gd450i-board-test\Debug/../kernel/base/core/los_swtmr.c:222
    }

    if (pstPrev == NULL)
200023fe:	68fb      	ldr	r3, [r7, #12]
20002400:	2b00      	cmp	r3, #0
20002402:	d103      	bne.n	2000240c <osSwTmrStart+0x98>
C:\Users\nitin.deshpande\Documents\GitHub\microsemi-huawei-liteos\microsemi-liteos\mscc-huawei-wsp\sc-gd450i-board-test\Debug/../kernel/base/core/los_swtmr.c:224
    {
        m_pstSwtmrSortList = pstSwtmr;
20002404:	4a07      	ldr	r2, [pc, #28]	; (20002424 <osSwTmrStart+0xb0>)
20002406:	687b      	ldr	r3, [r7, #4]
20002408:	6013      	str	r3, [r2, #0]
2000240a:	e002      	b.n	20002412 <osSwTmrStart+0x9e>
C:\Users\nitin.deshpande\Documents\GitHub\microsemi-huawei-liteos\microsemi-liteos\mscc-huawei-wsp\sc-gd450i-board-test\Debug/../kernel/base/core/los_swtmr.c:228
    }
    else
    {
        pstPrev->pstNext = pstSwtmr;
2000240c:	68fb      	ldr	r3, [r7, #12]
2000240e:	687a      	ldr	r2, [r7, #4]
20002410:	601a      	str	r2, [r3, #0]
C:\Users\nitin.deshpande\Documents\GitHub\microsemi-huawei-liteos\microsemi-liteos\mscc-huawei-wsp\sc-gd450i-board-test\Debug/../kernel/base/core/los_swtmr.c:231
    }

    pstSwtmr->ucState = OS_SWTMR_STATUS_TICKING;
20002412:	687b      	ldr	r3, [r7, #4]
20002414:	2202      	movs	r2, #2
20002416:	711a      	strb	r2, [r3, #4]
C:\Users\nitin.deshpande\Documents\GitHub\microsemi-huawei-liteos\microsemi-liteos\mscc-huawei-wsp\sc-gd450i-board-test\Debug/../kernel/base/core/los_swtmr.c:233

    return;
20002418:	bf00      	nop
C:\Users\nitin.deshpande\Documents\GitHub\microsemi-huawei-liteos\microsemi-liteos\mscc-huawei-wsp\sc-gd450i-board-test\Debug/../kernel/base/core/los_swtmr.c:234
}
2000241a:	3714      	adds	r7, #20
2000241c:	46bd      	mov	sp, r7
2000241e:	f85d 7b04 	ldr.w	r7, [sp], #4
20002422:	4770      	bx	lr
20002424:	20004874 	.word	0x20004874

20002428 <osSwtmrDelete>:
osSwtmrDelete():
C:\Users\nitin.deshpande\Documents\GitHub\microsemi-huawei-liteos\microsemi-liteos\mscc-huawei-wsp\sc-gd450i-board-test\Debug/../kernel/base/core/los_swtmr.c:244
Input      : pstSwtmr --- Need to delete Software Timer, When using, Ensure that it can't be NULL.
Output     : None
Return     : None
*****************************************************************************/
INLINE VOID osSwtmrDelete(SWTMR_CTRL_S *pstSwtmr)
{
20002428:	b480      	push	{r7}
2000242a:	b083      	sub	sp, #12
2000242c:	af00      	add	r7, sp, #0
2000242e:	6078      	str	r0, [r7, #4]
C:\Users\nitin.deshpande\Documents\GitHub\microsemi-huawei-liteos\microsemi-liteos\mscc-huawei-wsp\sc-gd450i-board-test\Debug/../kernel/base/core/los_swtmr.c:246
    /**insert to free list **/
    pstSwtmr->pstNext = m_pstSwtmrFreeList;
20002430:	4b07      	ldr	r3, [pc, #28]	; (20002450 <osSwtmrDelete+0x28>)
20002432:	681a      	ldr	r2, [r3, #0]
20002434:	687b      	ldr	r3, [r7, #4]
20002436:	601a      	str	r2, [r3, #0]
C:\Users\nitin.deshpande\Documents\GitHub\microsemi-huawei-liteos\microsemi-liteos\mscc-huawei-wsp\sc-gd450i-board-test\Debug/../kernel/base/core/los_swtmr.c:247
    m_pstSwtmrFreeList = pstSwtmr;
20002438:	4a05      	ldr	r2, [pc, #20]	; (20002450 <osSwtmrDelete+0x28>)
2000243a:	687b      	ldr	r3, [r7, #4]
2000243c:	6013      	str	r3, [r2, #0]
C:\Users\nitin.deshpande\Documents\GitHub\microsemi-huawei-liteos\microsemi-liteos\mscc-huawei-wsp\sc-gd450i-board-test\Debug/../kernel/base/core/los_swtmr.c:248
    pstSwtmr->ucState = OS_SWTMR_STATUS_UNUSED;
2000243e:	687b      	ldr	r3, [r7, #4]
20002440:	2200      	movs	r2, #0
20002442:	711a      	strb	r2, [r3, #4]
C:\Users\nitin.deshpande\Documents\GitHub\microsemi-huawei-liteos\microsemi-liteos\mscc-huawei-wsp\sc-gd450i-board-test\Debug/../kernel/base/core/los_swtmr.c:249
}
20002444:	bf00      	nop
20002446:	370c      	adds	r7, #12
20002448:	46bd      	mov	sp, r7
2000244a:	f85d 7b04 	ldr.w	r7, [sp], #4
2000244e:	4770      	bx	lr
20002450:	2000486c 	.word	0x2000486c

20002454 <osSwTmrTimeoutHandle>:
osSwTmrTimeoutHandle():
C:\Users\nitin.deshpande\Documents\GitHub\microsemi-huawei-liteos\microsemi-liteos\mscc-huawei-wsp\sc-gd450i-board-test\Debug/../kernel/base/core/los_swtmr.c:259
Input      : None
Output     : None
Return     : None
*****************************************************************************/
LITE_OS_SEC_TEXT static VOID osSwTmrTimeoutHandle(VOID)
{
20002454:	b580      	push	{r7, lr}
20002456:	b082      	sub	sp, #8
20002458:	af00      	add	r7, sp, #0
C:\Users\nitin.deshpande\Documents\GitHub\microsemi-huawei-liteos\microsemi-liteos\mscc-huawei-wsp\sc-gd450i-board-test\Debug/../kernel/base/core/los_swtmr.c:261
    SWTMR_HANDLER_ITEM_P pstSwtmrHandler;
    SWTMR_CTRL_S *pstSwtmr = m_pstSwtmrSortList;
2000245a:	4b2c      	ldr	r3, [pc, #176]	; (2000250c <osSwTmrTimeoutHandle+0xb8>)
2000245c:	681b      	ldr	r3, [r3, #0]
2000245e:	607b      	str	r3, [r7, #4]
C:\Users\nitin.deshpande\Documents\GitHub\microsemi-huawei-liteos\microsemi-liteos\mscc-huawei-wsp\sc-gd450i-board-test\Debug/../kernel/base/core/los_swtmr.c:263

    while (pstSwtmr != NULL && pstSwtmr->uwCount == 0)
20002460:	e048      	b.n	200024f4 <osSwTmrTimeoutHandle+0xa0>
C:\Users\nitin.deshpande\Documents\GitHub\microsemi-huawei-liteos\microsemi-liteos\mscc-huawei-wsp\sc-gd450i-board-test\Debug/../kernel/base/core/los_swtmr.c:265
    {
        m_pstSwtmrSortList = pstSwtmr->pstNext;
20002462:	687b      	ldr	r3, [r7, #4]
20002464:	681b      	ldr	r3, [r3, #0]
20002466:	4a29      	ldr	r2, [pc, #164]	; (2000250c <osSwTmrTimeoutHandle+0xb8>)
20002468:	6013      	str	r3, [r2, #0]
C:\Users\nitin.deshpande\Documents\GitHub\microsemi-huawei-liteos\microsemi-liteos\mscc-huawei-wsp\sc-gd450i-board-test\Debug/../kernel/base/core/los_swtmr.c:266
        pstSwtmrHandler = (SWTMR_HANDLER_ITEM_P)LOS_MemboxAlloc(m_aucSwTmrHandlerPool);
2000246a:	4829      	ldr	r0, [pc, #164]	; (20002510 <osSwTmrTimeoutHandle+0xbc>)
2000246c:	f7fe fb1e 	bl	20000aac <LOS_MemboxAlloc>
20002470:	6038      	str	r0, [r7, #0]
C:\Users\nitin.deshpande\Documents\GitHub\microsemi-huawei-liteos\microsemi-liteos\mscc-huawei-wsp\sc-gd450i-board-test\Debug/../kernel/base/core/los_swtmr.c:268

        if (pstSwtmrHandler != NULL)
20002472:	683b      	ldr	r3, [r7, #0]
20002474:	2b00      	cmp	r3, #0
20002476:	d015      	beq.n	200024a4 <osSwTmrTimeoutHandle+0x50>
C:\Users\nitin.deshpande\Documents\GitHub\microsemi-huawei-liteos\microsemi-liteos\mscc-huawei-wsp\sc-gd450i-board-test\Debug/../kernel/base/core/los_swtmr.c:270
        {
            pstSwtmrHandler->pfnHandler = pstSwtmr->pfnHandler;
20002478:	687b      	ldr	r3, [r7, #4]
2000247a:	69da      	ldr	r2, [r3, #28]
2000247c:	683b      	ldr	r3, [r7, #0]
2000247e:	601a      	str	r2, [r3, #0]
C:\Users\nitin.deshpande\Documents\GitHub\microsemi-huawei-liteos\microsemi-liteos\mscc-huawei-wsp\sc-gd450i-board-test\Debug/../kernel/base/core/los_swtmr.c:271
            pstSwtmrHandler->uwArg = pstSwtmr->uwArg;
20002480:	687b      	ldr	r3, [r7, #4]
20002482:	699a      	ldr	r2, [r3, #24]
20002484:	683b      	ldr	r3, [r7, #0]
20002486:	605a      	str	r2, [r3, #4]
C:\Users\nitin.deshpande\Documents\GitHub\microsemi-huawei-liteos\microsemi-liteos\mscc-huawei-wsp\sc-gd450i-board-test\Debug/../kernel/base/core/los_swtmr.c:273

            if (LOS_QueueWrite(m_uwSwTmrHandlerQueue, pstSwtmrHandler, sizeof(UINT32), LOS_NO_WAIT))
20002488:	4b22      	ldr	r3, [pc, #136]	; (20002514 <osSwTmrTimeoutHandle+0xc0>)
2000248a:	6818      	ldr	r0, [r3, #0]
2000248c:	2300      	movs	r3, #0
2000248e:	2204      	movs	r2, #4
20002490:	6839      	ldr	r1, [r7, #0]
20002492:	f7ff fbab 	bl	20001bec <LOS_QueueWrite>
20002496:	4603      	mov	r3, r0
20002498:	2b00      	cmp	r3, #0
2000249a:	d003      	beq.n	200024a4 <osSwTmrTimeoutHandle+0x50>
C:\Users\nitin.deshpande\Documents\GitHub\microsemi-huawei-liteos\microsemi-liteos\mscc-huawei-wsp\sc-gd450i-board-test\Debug/../kernel/base/core/los_swtmr.c:275
            {
                (VOID)LOS_MemboxFree(m_aucSwTmrHandlerPool, pstSwtmrHandler);
2000249c:	6839      	ldr	r1, [r7, #0]
2000249e:	481c      	ldr	r0, [pc, #112]	; (20002510 <osSwTmrTimeoutHandle+0xbc>)
200024a0:	f7fe fb38 	bl	20000b14 <LOS_MemboxFree>
C:\Users\nitin.deshpande\Documents\GitHub\microsemi-huawei-liteos\microsemi-liteos\mscc-huawei-wsp\sc-gd450i-board-test\Debug/../kernel/base/core/los_swtmr.c:279
            }
        }

        if (pstSwtmr->ucMode == LOS_SWTMR_MODE_ONCE)
200024a4:	687b      	ldr	r3, [r7, #4]
200024a6:	795b      	ldrb	r3, [r3, #5]
200024a8:	2b00      	cmp	r3, #0
200024aa:	d117      	bne.n	200024dc <osSwTmrTimeoutHandle+0x88>
C:\Users\nitin.deshpande\Documents\GitHub\microsemi-huawei-liteos\microsemi-liteos\mscc-huawei-wsp\sc-gd450i-board-test\Debug/../kernel/base/core/los_swtmr.c:281
        {
            osSwtmrDelete(pstSwtmr);
200024ac:	6878      	ldr	r0, [r7, #4]
200024ae:	f7ff ffbb 	bl	20002428 <osSwtmrDelete>
C:\Users\nitin.deshpande\Documents\GitHub\microsemi-huawei-liteos\microsemi-liteos\mscc-huawei-wsp\sc-gd450i-board-test\Debug/../kernel/base/core/los_swtmr.c:283

            if (pstSwtmr->usTimerID < OS_SWTMR_MAX_TIMERID - LOSCFG_BASE_CORE_SWTMR_LIMIT)
200024b2:	687b      	ldr	r3, [r7, #4]
200024b4:	891b      	ldrh	r3, [r3, #8]
200024b6:	f64f 72df 	movw	r2, #65503	; 0xffdf
200024ba:	4293      	cmp	r3, r2
200024bc:	d806      	bhi.n	200024cc <osSwTmrTimeoutHandle+0x78>
C:\Users\nitin.deshpande\Documents\GitHub\microsemi-huawei-liteos\microsemi-liteos\mscc-huawei-wsp\sc-gd450i-board-test\Debug/../kernel/base/core/los_swtmr.c:284
                pstSwtmr->usTimerID += LOSCFG_BASE_CORE_SWTMR_LIMIT;
200024be:	687b      	ldr	r3, [r7, #4]
200024c0:	891b      	ldrh	r3, [r3, #8]
200024c2:	3310      	adds	r3, #16
200024c4:	b29a      	uxth	r2, r3
200024c6:	687b      	ldr	r3, [r7, #4]
200024c8:	811a      	strh	r2, [r3, #8]
200024ca:	e010      	b.n	200024ee <osSwTmrTimeoutHandle+0x9a>
C:\Users\nitin.deshpande\Documents\GitHub\microsemi-huawei-liteos\microsemi-liteos\mscc-huawei-wsp\sc-gd450i-board-test\Debug/../kernel/base/core/los_swtmr.c:286
            else
                pstSwtmr->usTimerID %= LOSCFG_BASE_CORE_SWTMR_LIMIT;
200024cc:	687b      	ldr	r3, [r7, #4]
200024ce:	891b      	ldrh	r3, [r3, #8]
200024d0:	f003 030f 	and.w	r3, r3, #15
200024d4:	b29a      	uxth	r2, r3
200024d6:	687b      	ldr	r3, [r7, #4]
200024d8:	811a      	strh	r2, [r3, #8]
200024da:	e008      	b.n	200024ee <osSwTmrTimeoutHandle+0x9a>
C:\Users\nitin.deshpande\Documents\GitHub\microsemi-huawei-liteos\microsemi-liteos\mscc-huawei-wsp\sc-gd450i-board-test\Debug/../kernel/base/core/los_swtmr.c:290
        }
        else
        {
            pstSwtmr->ucOverrun++;
200024dc:	687b      	ldr	r3, [r7, #4]
200024de:	799b      	ldrb	r3, [r3, #6]
200024e0:	3301      	adds	r3, #1
200024e2:	b2da      	uxtb	r2, r3
200024e4:	687b      	ldr	r3, [r7, #4]
200024e6:	719a      	strb	r2, [r3, #6]
C:\Users\nitin.deshpande\Documents\GitHub\microsemi-huawei-liteos\microsemi-liteos\mscc-huawei-wsp\sc-gd450i-board-test\Debug/../kernel/base/core/los_swtmr.c:291
            osSwTmrStart(pstSwtmr);
200024e8:	6878      	ldr	r0, [r7, #4]
200024ea:	f7ff ff43 	bl	20002374 <osSwTmrStart>
C:\Users\nitin.deshpande\Documents\GitHub\microsemi-huawei-liteos\microsemi-liteos\mscc-huawei-wsp\sc-gd450i-board-test\Debug/../kernel/base/core/los_swtmr.c:294
        }

        pstSwtmr = m_pstSwtmrSortList;
200024ee:	4b07      	ldr	r3, [pc, #28]	; (2000250c <osSwTmrTimeoutHandle+0xb8>)
200024f0:	681b      	ldr	r3, [r3, #0]
200024f2:	607b      	str	r3, [r7, #4]
C:\Users\nitin.deshpande\Documents\GitHub\microsemi-huawei-liteos\microsemi-liteos\mscc-huawei-wsp\sc-gd450i-board-test\Debug/../kernel/base/core/los_swtmr.c:263
    while (pstSwtmr != NULL && pstSwtmr->uwCount == 0)
200024f4:	687b      	ldr	r3, [r7, #4]
200024f6:	2b00      	cmp	r3, #0
200024f8:	d003      	beq.n	20002502 <osSwTmrTimeoutHandle+0xae>
C:\Users\nitin.deshpande\Documents\GitHub\microsemi-huawei-liteos\microsemi-liteos\mscc-huawei-wsp\sc-gd450i-board-test\Debug/../kernel/base/core/los_swtmr.c:263 (discriminator 1)
200024fa:	687b      	ldr	r3, [r7, #4]
200024fc:	68db      	ldr	r3, [r3, #12]
200024fe:	2b00      	cmp	r3, #0
20002500:	d0af      	beq.n	20002462 <osSwTmrTimeoutHandle+0xe>
C:\Users\nitin.deshpande\Documents\GitHub\microsemi-huawei-liteos\microsemi-liteos\mscc-huawei-wsp\sc-gd450i-board-test\Debug/../kernel/base/core/los_swtmr.c:296
    }
}
20002502:	bf00      	nop
20002504:	3708      	adds	r7, #8
20002506:	46bd      	mov	sp, r7
20002508:	bd80      	pop	{r7, pc}
2000250a:	bf00      	nop
2000250c:	20004874 	.word	0x20004874
20002510:	20004878 	.word	0x20004878
20002514:	200047f8 	.word	0x200047f8

20002518 <osSwtmrScan>:
osSwtmrScan():
C:\Users\nitin.deshpande\Documents\GitHub\microsemi-huawei-liteos\microsemi-liteos\mscc-huawei-wsp\sc-gd450i-board-test\Debug/../kernel/base/core/los_swtmr.c:306
Input      : None
Output     : None
Return     : LOS_OK on success or error code on failure
*****************************************************************************/
LITE_OS_SEC_TEXT UINT32 osSwtmrScan(VOID)
{
20002518:	b580      	push	{r7, lr}
2000251a:	af00      	add	r7, sp, #0
C:\Users\nitin.deshpande\Documents\GitHub\microsemi-huawei-liteos\microsemi-liteos\mscc-huawei-wsp\sc-gd450i-board-test\Debug/../kernel/base/core/los_swtmr.c:307
    if (m_pstSwtmrSortList != NULL)
2000251c:	4b08      	ldr	r3, [pc, #32]	; (20002540 <osSwtmrScan+0x28>)
2000251e:	681b      	ldr	r3, [r3, #0]
20002520:	2b00      	cmp	r3, #0
20002522:	d009      	beq.n	20002538 <osSwtmrScan+0x20>
C:\Users\nitin.deshpande\Documents\GitHub\microsemi-huawei-liteos\microsemi-liteos\mscc-huawei-wsp\sc-gd450i-board-test\Debug/../kernel/base/core/los_swtmr.c:309
    {
        if (--(m_pstSwtmrSortList->uwCount) == 0)
20002524:	4b06      	ldr	r3, [pc, #24]	; (20002540 <osSwtmrScan+0x28>)
20002526:	681b      	ldr	r3, [r3, #0]
20002528:	68da      	ldr	r2, [r3, #12]
2000252a:	3a01      	subs	r2, #1
2000252c:	60da      	str	r2, [r3, #12]
2000252e:	68db      	ldr	r3, [r3, #12]
20002530:	2b00      	cmp	r3, #0
20002532:	d101      	bne.n	20002538 <osSwtmrScan+0x20>
C:\Users\nitin.deshpande\Documents\GitHub\microsemi-huawei-liteos\microsemi-liteos\mscc-huawei-wsp\sc-gd450i-board-test\Debug/../kernel/base/core/los_swtmr.c:311
        {
            osSwTmrTimeoutHandle();
20002534:	f7ff ff8e 	bl	20002454 <osSwTmrTimeoutHandle>
C:\Users\nitin.deshpande\Documents\GitHub\microsemi-huawei-liteos\microsemi-liteos\mscc-huawei-wsp\sc-gd450i-board-test\Debug/../kernel/base/core/los_swtmr.c:314
        }
    }
    return LOS_OK;
20002538:	2300      	movs	r3, #0
C:\Users\nitin.deshpande\Documents\GitHub\microsemi-huawei-liteos\microsemi-liteos\mscc-huawei-wsp\sc-gd450i-board-test\Debug/../kernel/base/core/los_swtmr.c:315
}
2000253a:	4618      	mov	r0, r3
2000253c:	bd80      	pop	{r7, pc}
2000253e:	bf00      	nop
20002540:	20004874 	.word	0x20004874

20002544 <LOS_ListInit>:
LOS_ListInit():
C:\Users\nitin.deshpande\Documents\GitHub\microsemi-huawei-liteos\microsemi-liteos\mscc-huawei-wsp\sc-gd450i-board-test\kernel\include/los_list.h:81
{
20002544:	b480      	push	{r7}
20002546:	b083      	sub	sp, #12
20002548:	af00      	add	r7, sp, #0
2000254a:	6078      	str	r0, [r7, #4]
C:\Users\nitin.deshpande\Documents\GitHub\microsemi-huawei-liteos\microsemi-liteos\mscc-huawei-wsp\sc-gd450i-board-test\kernel\include/los_list.h:82
    pstList->pstNext = pstList;
2000254c:	687b      	ldr	r3, [r7, #4]
2000254e:	687a      	ldr	r2, [r7, #4]
20002550:	605a      	str	r2, [r3, #4]
C:\Users\nitin.deshpande\Documents\GitHub\microsemi-huawei-liteos\microsemi-liteos\mscc-huawei-wsp\sc-gd450i-board-test\kernel\include/los_list.h:83
    pstList->pstPrev = pstList;
20002552:	687b      	ldr	r3, [r7, #4]
20002554:	687a      	ldr	r2, [r7, #4]
20002556:	601a      	str	r2, [r3, #0]
C:\Users\nitin.deshpande\Documents\GitHub\microsemi-huawei-liteos\microsemi-liteos\mscc-huawei-wsp\sc-gd450i-board-test\kernel\include/los_list.h:84
}
20002558:	bf00      	nop
2000255a:	370c      	adds	r7, #12
2000255c:	46bd      	mov	sp, r7
2000255e:	f85d 7b04 	ldr.w	r7, [sp], #4
20002562:	4770      	bx	lr

20002564 <LOS_ListAdd>:
LOS_ListAdd():
C:\Users\nitin.deshpande\Documents\GitHub\microsemi-huawei-liteos\microsemi-liteos\mscc-huawei-wsp\sc-gd450i-board-test\kernel\include/los_list.h:130
{
20002564:	b480      	push	{r7}
20002566:	b083      	sub	sp, #12
20002568:	af00      	add	r7, sp, #0
2000256a:	6078      	str	r0, [r7, #4]
2000256c:	6039      	str	r1, [r7, #0]
C:\Users\nitin.deshpande\Documents\GitHub\microsemi-huawei-liteos\microsemi-liteos\mscc-huawei-wsp\sc-gd450i-board-test\kernel\include/los_list.h:131
    pstNode->pstNext = pstList->pstNext;
2000256e:	687b      	ldr	r3, [r7, #4]
20002570:	685a      	ldr	r2, [r3, #4]
20002572:	683b      	ldr	r3, [r7, #0]
20002574:	605a      	str	r2, [r3, #4]
C:\Users\nitin.deshpande\Documents\GitHub\microsemi-huawei-liteos\microsemi-liteos\mscc-huawei-wsp\sc-gd450i-board-test\kernel\include/los_list.h:132
    pstNode->pstPrev = pstList;
20002576:	683b      	ldr	r3, [r7, #0]
20002578:	687a      	ldr	r2, [r7, #4]
2000257a:	601a      	str	r2, [r3, #0]
C:\Users\nitin.deshpande\Documents\GitHub\microsemi-huawei-liteos\microsemi-liteos\mscc-huawei-wsp\sc-gd450i-board-test\kernel\include/los_list.h:133
    pstList->pstNext->pstPrev = pstNode;
2000257c:	687b      	ldr	r3, [r7, #4]
2000257e:	685b      	ldr	r3, [r3, #4]
20002580:	683a      	ldr	r2, [r7, #0]
20002582:	601a      	str	r2, [r3, #0]
C:\Users\nitin.deshpande\Documents\GitHub\microsemi-huawei-liteos\microsemi-liteos\mscc-huawei-wsp\sc-gd450i-board-test\kernel\include/los_list.h:134
    pstList->pstNext = pstNode;
20002584:	687b      	ldr	r3, [r7, #4]
20002586:	683a      	ldr	r2, [r7, #0]
20002588:	605a      	str	r2, [r3, #4]
C:\Users\nitin.deshpande\Documents\GitHub\microsemi-huawei-liteos\microsemi-liteos\mscc-huawei-wsp\sc-gd450i-board-test\kernel\include/los_list.h:135
}
2000258a:	bf00      	nop
2000258c:	370c      	adds	r7, #12
2000258e:	46bd      	mov	sp, r7
20002590:	f85d 7b04 	ldr.w	r7, [sp], #4
20002594:	4770      	bx	lr

20002596 <LOS_ListTailInsert>:
LOS_ListTailInsert():
C:\Users\nitin.deshpande\Documents\GitHub\microsemi-huawei-liteos\microsemi-liteos\mscc-huawei-wsp\sc-gd450i-board-test\kernel\include/los_list.h:158
{
20002596:	b580      	push	{r7, lr}
20002598:	b082      	sub	sp, #8
2000259a:	af00      	add	r7, sp, #0
2000259c:	6078      	str	r0, [r7, #4]
2000259e:	6039      	str	r1, [r7, #0]
C:\Users\nitin.deshpande\Documents\GitHub\microsemi-huawei-liteos\microsemi-liteos\mscc-huawei-wsp\sc-gd450i-board-test\kernel\include/los_list.h:159
    LOS_ListAdd(pstList->pstPrev, pstNode);
200025a0:	687b      	ldr	r3, [r7, #4]
200025a2:	681b      	ldr	r3, [r3, #0]
200025a4:	6839      	ldr	r1, [r7, #0]
200025a6:	4618      	mov	r0, r3
200025a8:	f7ff ffdc 	bl	20002564 <LOS_ListAdd>
C:\Users\nitin.deshpande\Documents\GitHub\microsemi-huawei-liteos\microsemi-liteos\mscc-huawei-wsp\sc-gd450i-board-test\kernel\include/los_list.h:160
}
200025ac:	bf00      	nop
200025ae:	3708      	adds	r7, #8
200025b0:	46bd      	mov	sp, r7
200025b2:	bd80      	pop	{r7, pc}

200025b4 <LOS_ListDelete>:
LOS_ListDelete():
C:\Users\nitin.deshpande\Documents\GitHub\microsemi-huawei-liteos\microsemi-liteos\mscc-huawei-wsp\sc-gd450i-board-test\kernel\include/los_list.h:184
{
200025b4:	b480      	push	{r7}
200025b6:	b083      	sub	sp, #12
200025b8:	af00      	add	r7, sp, #0
200025ba:	6078      	str	r0, [r7, #4]
C:\Users\nitin.deshpande\Documents\GitHub\microsemi-huawei-liteos\microsemi-liteos\mscc-huawei-wsp\sc-gd450i-board-test\kernel\include/los_list.h:185
    pstNode->pstNext->pstPrev = pstNode->pstPrev;
200025bc:	687b      	ldr	r3, [r7, #4]
200025be:	685b      	ldr	r3, [r3, #4]
200025c0:	687a      	ldr	r2, [r7, #4]
200025c2:	6812      	ldr	r2, [r2, #0]
200025c4:	601a      	str	r2, [r3, #0]
C:\Users\nitin.deshpande\Documents\GitHub\microsemi-huawei-liteos\microsemi-liteos\mscc-huawei-wsp\sc-gd450i-board-test\kernel\include/los_list.h:186
    pstNode->pstPrev->pstNext = pstNode->pstNext;
200025c6:	687b      	ldr	r3, [r7, #4]
200025c8:	681b      	ldr	r3, [r3, #0]
200025ca:	687a      	ldr	r2, [r7, #4]
200025cc:	6852      	ldr	r2, [r2, #4]
200025ce:	605a      	str	r2, [r3, #4]
C:\Users\nitin.deshpande\Documents\GitHub\microsemi-huawei-liteos\microsemi-liteos\mscc-huawei-wsp\sc-gd450i-board-test\kernel\include/los_list.h:187
    pstNode->pstNext = (LOS_DL_LIST *)NULL;
200025d0:	687b      	ldr	r3, [r7, #4]
200025d2:	2200      	movs	r2, #0
200025d4:	605a      	str	r2, [r3, #4]
C:\Users\nitin.deshpande\Documents\GitHub\microsemi-huawei-liteos\microsemi-liteos\mscc-huawei-wsp\sc-gd450i-board-test\kernel\include/los_list.h:188
    pstNode->pstPrev = (LOS_DL_LIST *)NULL;
200025d6:	687b      	ldr	r3, [r7, #4]
200025d8:	2200      	movs	r2, #0
200025da:	601a      	str	r2, [r3, #0]
C:\Users\nitin.deshpande\Documents\GitHub\microsemi-huawei-liteos\microsemi-liteos\mscc-huawei-wsp\sc-gd450i-board-test\kernel\include/los_list.h:189
}
200025dc:	bf00      	nop
200025de:	370c      	adds	r7, #12
200025e0:	46bd      	mov	sp, r7
200025e2:	f85d 7b04 	ldr.w	r7, [sp], #4
200025e6:	4770      	bx	lr

200025e8 <LOS_ListEmpty>:
LOS_ListEmpty():
C:\Users\nitin.deshpande\Documents\GitHub\microsemi-huawei-liteos\microsemi-liteos\mscc-huawei-wsp\sc-gd450i-board-test\kernel\include/los_list.h:214
{
200025e8:	b480      	push	{r7}
200025ea:	b083      	sub	sp, #12
200025ec:	af00      	add	r7, sp, #0
200025ee:	6078      	str	r0, [r7, #4]
C:\Users\nitin.deshpande\Documents\GitHub\microsemi-huawei-liteos\microsemi-liteos\mscc-huawei-wsp\sc-gd450i-board-test\kernel\include/los_list.h:215
    return (UINTBOOL)(pstNode->pstNext == pstNode);
200025f0:	687b      	ldr	r3, [r7, #4]
200025f2:	685a      	ldr	r2, [r3, #4]
200025f4:	687b      	ldr	r3, [r7, #4]
200025f6:	429a      	cmp	r2, r3
200025f8:	bf0c      	ite	eq
200025fa:	2301      	moveq	r3, #1
200025fc:	2300      	movne	r3, #0
200025fe:	b2db      	uxtb	r3, r3
C:\Users\nitin.deshpande\Documents\GitHub\microsemi-huawei-liteos\microsemi-liteos\mscc-huawei-wsp\sc-gd450i-board-test\kernel\include/los_list.h:216
}
20002600:	4618      	mov	r0, r3
20002602:	370c      	adds	r7, #12
20002604:	46bd      	mov	sp, r7
20002606:	f85d 7b04 	ldr.w	r7, [sp], #4
2000260a:	4770      	bx	lr

2000260c <osIdleTask>:
osIdleTask():
C:\Users\nitin.deshpande\Documents\GitHub\microsemi-huawei-liteos\microsemi-liteos\mscc-huawei-wsp\sc-gd450i-board-test\Debug/../kernel/base/core/los_task.c:77
 Input       : None
 Output      : None
 Return      : None
 *****************************************************************************/
LITE_OS_SEC_TEXT VOID osIdleTask(VOID)
{
2000260c:	b480      	push	{r7}
2000260e:	af00      	add	r7, sp, #0
C:\Users\nitin.deshpande\Documents\GitHub\microsemi-huawei-liteos\microsemi-liteos\mscc-huawei-wsp\sc-gd450i-board-test\Debug/../kernel/base/core/los_task.c:79 (discriminator 1)

    while (1)
20002610:	e7fe      	b.n	20002610 <osIdleTask+0x4>
	...

20002614 <osTaskAdd2TimerList>:
osTaskAdd2TimerList():
C:\Users\nitin.deshpande\Documents\GitHub\microsemi-huawei-liteos\microsemi-liteos\mscc-huawei-wsp\sc-gd450i-board-test\Debug/../kernel/base/core/los_task.c:118
               uwTimeout    --- wait time, ticks
 Output      : None
 Return      : None
 *****************************************************************************/
LITE_OS_SEC_TEXT VOID osTaskAdd2TimerList(LOS_TASK_CB *pstTaskCB, UINT32 uwTimeout)
{
20002614:	b580      	push	{r7, lr}
20002616:	b086      	sub	sp, #24
20002618:	af00      	add	r7, sp, #0
2000261a:	6078      	str	r0, [r7, #4]
2000261c:	6039      	str	r1, [r7, #0]
C:\Users\nitin.deshpande\Documents\GitHub\microsemi-huawei-liteos\microsemi-liteos\mscc-huawei-wsp\sc-gd450i-board-test\Debug/../kernel/base/core/los_task.c:124
    LOS_TASK_CB *pstTskDelay;
    LOS_DL_LIST *pstListObject;
    UINT32 uwSortIndex;
    UINT32 uwRollNum;

    uwSortIndex = uwTimeout & OS_TSK_SORTLINK_MASK;
2000261e:	683b      	ldr	r3, [r7, #0]
20002620:	f003 031f 	and.w	r3, r3, #31
20002624:	60fb      	str	r3, [r7, #12]
C:\Users\nitin.deshpande\Documents\GitHub\microsemi-huawei-liteos\microsemi-liteos\mscc-huawei-wsp\sc-gd450i-board-test\Debug/../kernel/base/core/los_task.c:125
    uwRollNum = (uwTimeout >> OS_TSK_SORTLINK_LOGLEN);
20002626:	683b      	ldr	r3, [r7, #0]
20002628:	095b      	lsrs	r3, r3, #5
2000262a:	613b      	str	r3, [r7, #16]
C:\Users\nitin.deshpande\Documents\GitHub\microsemi-huawei-liteos\microsemi-liteos\mscc-huawei-wsp\sc-gd450i-board-test\Debug/../kernel/base/core/los_task.c:126
    (uwSortIndex > 0) ? 0 : (uwRollNum--);
2000262c:	68fb      	ldr	r3, [r7, #12]
2000262e:	2b00      	cmp	r3, #0
20002630:	d102      	bne.n	20002638 <osTaskAdd2TimerList+0x24>
C:\Users\nitin.deshpande\Documents\GitHub\microsemi-huawei-liteos\microsemi-liteos\mscc-huawei-wsp\sc-gd450i-board-test\Debug/../kernel/base/core/los_task.c:126 (discriminator 1)
20002632:	693b      	ldr	r3, [r7, #16]
20002634:	3b01      	subs	r3, #1
20002636:	613b      	str	r3, [r7, #16]
C:\Users\nitin.deshpande\Documents\GitHub\microsemi-huawei-liteos\microsemi-liteos\mscc-huawei-wsp\sc-gd450i-board-test\Debug/../kernel/base/core/los_task.c:127
    EVALUATE_L(pstTaskCB->uwIdxRollNum, uwRollNum);
20002638:	687b      	ldr	r3, [r7, #4]
2000263a:	6cdb      	ldr	r3, [r3, #76]	; 0x4c
2000263c:	f003 4278 	and.w	r2, r3, #4160749568	; 0xf8000000
20002640:	693b      	ldr	r3, [r7, #16]
20002642:	431a      	orrs	r2, r3
20002644:	687b      	ldr	r3, [r7, #4]
20002646:	64da      	str	r2, [r3, #76]	; 0x4c
C:\Users\nitin.deshpande\Documents\GitHub\microsemi-huawei-liteos\microsemi-liteos\mscc-huawei-wsp\sc-gd450i-board-test\Debug/../kernel/base/core/los_task.c:128
    uwSortIndex = (uwSortIndex + g_stTskSortLink.usCursor);
20002648:	4b35      	ldr	r3, [pc, #212]	; (20002720 <osTaskAdd2TimerList+0x10c>)
2000264a:	889b      	ldrh	r3, [r3, #4]
2000264c:	461a      	mov	r2, r3
2000264e:	68fb      	ldr	r3, [r7, #12]
20002650:	4413      	add	r3, r2
20002652:	60fb      	str	r3, [r7, #12]
C:\Users\nitin.deshpande\Documents\GitHub\microsemi-huawei-liteos\microsemi-liteos\mscc-huawei-wsp\sc-gd450i-board-test\Debug/../kernel/base/core/los_task.c:129
    uwSortIndex = uwSortIndex & OS_TSK_SORTLINK_MASK;
20002654:	68fb      	ldr	r3, [r7, #12]
20002656:	f003 031f 	and.w	r3, r3, #31
2000265a:	60fb      	str	r3, [r7, #12]
C:\Users\nitin.deshpande\Documents\GitHub\microsemi-huawei-liteos\microsemi-liteos\mscc-huawei-wsp\sc-gd450i-board-test\Debug/../kernel/base/core/los_task.c:130
    EVALUATE_H(pstTaskCB->uwIdxRollNum, uwSortIndex);
2000265c:	687b      	ldr	r3, [r7, #4]
2000265e:	6cdb      	ldr	r3, [r3, #76]	; 0x4c
20002660:	f023 4278 	bic.w	r2, r3, #4160749568	; 0xf8000000
20002664:	68fb      	ldr	r3, [r7, #12]
20002666:	06db      	lsls	r3, r3, #27
20002668:	431a      	orrs	r2, r3
2000266a:	687b      	ldr	r3, [r7, #4]
2000266c:	64da      	str	r2, [r3, #76]	; 0x4c
C:\Users\nitin.deshpande\Documents\GitHub\microsemi-huawei-liteos\microsemi-liteos\mscc-huawei-wsp\sc-gd450i-board-test\Debug/../kernel/base/core/los_task.c:131
    pstListObject = g_stTskSortLink.pstSortLink + uwSortIndex;
2000266e:	4b2c      	ldr	r3, [pc, #176]	; (20002720 <osTaskAdd2TimerList+0x10c>)
20002670:	681a      	ldr	r2, [r3, #0]
20002672:	68fb      	ldr	r3, [r7, #12]
20002674:	00db      	lsls	r3, r3, #3
20002676:	4413      	add	r3, r2
20002678:	60bb      	str	r3, [r7, #8]
C:\Users\nitin.deshpande\Documents\GitHub\microsemi-huawei-liteos\microsemi-liteos\mscc-huawei-wsp\sc-gd450i-board-test\Debug/../kernel/base/core/los_task.c:132
    if (pstListObject->pstNext == pstListObject)
2000267a:	68bb      	ldr	r3, [r7, #8]
2000267c:	685a      	ldr	r2, [r3, #4]
2000267e:	68bb      	ldr	r3, [r7, #8]
20002680:	429a      	cmp	r2, r3
20002682:	d106      	bne.n	20002692 <osTaskAdd2TimerList+0x7e>
C:\Users\nitin.deshpande\Documents\GitHub\microsemi-huawei-liteos\microsemi-liteos\mscc-huawei-wsp\sc-gd450i-board-test\Debug/../kernel/base/core/los_task.c:134
    {
        LOS_ListTailInsert(pstListObject, &pstTaskCB->stTimerList);
20002684:	687b      	ldr	r3, [r7, #4]
20002686:	3344      	adds	r3, #68	; 0x44
20002688:	4619      	mov	r1, r3
2000268a:	68b8      	ldr	r0, [r7, #8]
2000268c:	f7ff ff83 	bl	20002596 <LOS_ListTailInsert>
C:\Users\nitin.deshpande\Documents\GitHub\microsemi-huawei-liteos\microsemi-liteos\mscc-huawei-wsp\sc-gd450i-board-test\Debug/../kernel/base/core/los_task.c:156
            pstTskDelay = LOS_DL_LIST_ENTRY(pstTskDelay->stTimerList.pstNext, LOS_TASK_CB, stTimerList); /*lint !e413*/
        } while (&pstTskDelay->stTimerList != (pstListObject));

        LOS_ListTailInsert(&pstTskDelay->stTimerList, &pstTaskCB->stTimerList);
    }
}
20002690:	e042      	b.n	20002718 <osTaskAdd2TimerList+0x104>
C:\Users\nitin.deshpande\Documents\GitHub\microsemi-huawei-liteos\microsemi-liteos\mscc-huawei-wsp\sc-gd450i-board-test\Debug/../kernel/base/core/los_task.c:138
        pstTskDelay = LOS_DL_LIST_ENTRY((pstListObject)->pstNext, LOS_TASK_CB, stTimerList); /*lint !e413*/
20002692:	68bb      	ldr	r3, [r7, #8]
20002694:	685b      	ldr	r3, [r3, #4]
20002696:	3b44      	subs	r3, #68	; 0x44
20002698:	617b      	str	r3, [r7, #20]
C:\Users\nitin.deshpande\Documents\GitHub\microsemi-huawei-liteos\microsemi-liteos\mscc-huawei-wsp\sc-gd450i-board-test\Debug/../kernel/base/core/los_task.c:141
            if (UWROLLNUM(pstTskDelay->uwIdxRollNum) <= UWROLLNUM(pstTaskCB->uwIdxRollNum))
2000269a:	697b      	ldr	r3, [r7, #20]
2000269c:	6cdb      	ldr	r3, [r3, #76]	; 0x4c
2000269e:	f023 4278 	bic.w	r2, r3, #4160749568	; 0xf8000000
200026a2:	687b      	ldr	r3, [r7, #4]
200026a4:	6cdb      	ldr	r3, [r3, #76]	; 0x4c
200026a6:	f023 4378 	bic.w	r3, r3, #4160749568	; 0xf8000000
200026aa:	429a      	cmp	r2, r3
200026ac:	d810      	bhi.n	200026d0 <osTaskAdd2TimerList+0xbc>
C:\Users\nitin.deshpande\Documents\GitHub\microsemi-huawei-liteos\microsemi-liteos\mscc-huawei-wsp\sc-gd450i-board-test\Debug/../kernel/base/core/los_task.c:143
                UWROLLNUMSUB(pstTaskCB->uwIdxRollNum, pstTskDelay->uwIdxRollNum);
200026ae:	687b      	ldr	r3, [r7, #4]
200026b0:	6cdb      	ldr	r3, [r3, #76]	; 0x4c
200026b2:	f003 4278 	and.w	r2, r3, #4160749568	; 0xf8000000
200026b6:	687b      	ldr	r3, [r7, #4]
200026b8:	6cdb      	ldr	r3, [r3, #76]	; 0x4c
200026ba:	f023 4178 	bic.w	r1, r3, #4160749568	; 0xf8000000
200026be:	697b      	ldr	r3, [r7, #20]
200026c0:	6cdb      	ldr	r3, [r3, #76]	; 0x4c
200026c2:	f023 4378 	bic.w	r3, r3, #4160749568	; 0xf8000000
200026c6:	1acb      	subs	r3, r1, r3
200026c8:	431a      	orrs	r2, r3
200026ca:	687b      	ldr	r3, [r7, #4]
200026cc:	64da      	str	r2, [r3, #76]	; 0x4c
200026ce:	e010      	b.n	200026f2 <osTaskAdd2TimerList+0xde>
C:\Users\nitin.deshpande\Documents\GitHub\microsemi-huawei-liteos\microsemi-liteos\mscc-huawei-wsp\sc-gd450i-board-test\Debug/../kernel/base/core/los_task.c:147
                UWROLLNUMSUB(pstTskDelay->uwIdxRollNum, pstTaskCB->uwIdxRollNum);
200026d0:	697b      	ldr	r3, [r7, #20]
200026d2:	6cdb      	ldr	r3, [r3, #76]	; 0x4c
200026d4:	f003 4278 	and.w	r2, r3, #4160749568	; 0xf8000000
200026d8:	697b      	ldr	r3, [r7, #20]
200026da:	6cdb      	ldr	r3, [r3, #76]	; 0x4c
200026dc:	f023 4178 	bic.w	r1, r3, #4160749568	; 0xf8000000
200026e0:	687b      	ldr	r3, [r7, #4]
200026e2:	6cdb      	ldr	r3, [r3, #76]	; 0x4c
200026e4:	f023 4378 	bic.w	r3, r3, #4160749568	; 0xf8000000
200026e8:	1acb      	subs	r3, r1, r3
200026ea:	431a      	orrs	r2, r3
200026ec:	697b      	ldr	r3, [r7, #20]
200026ee:	64da      	str	r2, [r3, #76]	; 0x4c
C:\Users\nitin.deshpande\Documents\GitHub\microsemi-huawei-liteos\microsemi-liteos\mscc-huawei-wsp\sc-gd450i-board-test\Debug/../kernel/base/core/los_task.c:148
                break;
200026f0:	e009      	b.n	20002706 <osTaskAdd2TimerList+0xf2>
C:\Users\nitin.deshpande\Documents\GitHub\microsemi-huawei-liteos\microsemi-liteos\mscc-huawei-wsp\sc-gd450i-board-test\Debug/../kernel/base/core/los_task.c:151
            pstTskDelay = LOS_DL_LIST_ENTRY(pstTskDelay->stTimerList.pstNext, LOS_TASK_CB, stTimerList); /*lint !e413*/
200026f2:	697b      	ldr	r3, [r7, #20]
200026f4:	6c9b      	ldr	r3, [r3, #72]	; 0x48
200026f6:	3b44      	subs	r3, #68	; 0x44
200026f8:	617b      	str	r3, [r7, #20]
C:\Users\nitin.deshpande\Documents\GitHub\microsemi-huawei-liteos\microsemi-liteos\mscc-huawei-wsp\sc-gd450i-board-test\Debug/../kernel/base/core/los_task.c:152
        } while (&pstTskDelay->stTimerList != (pstListObject));
200026fa:	697b      	ldr	r3, [r7, #20]
200026fc:	f103 0244 	add.w	r2, r3, #68	; 0x44
20002700:	68bb      	ldr	r3, [r7, #8]
20002702:	429a      	cmp	r2, r3
20002704:	d1c9      	bne.n	2000269a <osTaskAdd2TimerList+0x86>
C:\Users\nitin.deshpande\Documents\GitHub\microsemi-huawei-liteos\microsemi-liteos\mscc-huawei-wsp\sc-gd450i-board-test\Debug/../kernel/base/core/los_task.c:154
        LOS_ListTailInsert(&pstTskDelay->stTimerList, &pstTaskCB->stTimerList);
20002706:	697b      	ldr	r3, [r7, #20]
20002708:	f103 0244 	add.w	r2, r3, #68	; 0x44
2000270c:	687b      	ldr	r3, [r7, #4]
2000270e:	3344      	adds	r3, #68	; 0x44
20002710:	4619      	mov	r1, r3
20002712:	4610      	mov	r0, r2
20002714:	f7ff ff3f 	bl	20002596 <LOS_ListTailInsert>
C:\Users\nitin.deshpande\Documents\GitHub\microsemi-huawei-liteos\microsemi-liteos\mscc-huawei-wsp\sc-gd450i-board-test\Debug/../kernel/base/core/los_task.c:156
}
20002718:	bf00      	nop
2000271a:	3718      	adds	r7, #24
2000271c:	46bd      	mov	sp, r7
2000271e:	bd80      	pop	{r7, pc}
20002720:	20004958 	.word	0x20004958

20002724 <osTimerListDelete>:
osTimerListDelete():
C:\Users\nitin.deshpande\Documents\GitHub\microsemi-huawei-liteos\microsemi-liteos\mscc-huawei-wsp\sc-gd450i-board-test\Debug/../kernel/base/core/los_task.c:160


LITE_OS_SEC_TEXT VOID osTimerListDelete(LOS_TASK_CB *pstTaskCB)
{
20002724:	b580      	push	{r7, lr}
20002726:	b086      	sub	sp, #24
20002728:	af00      	add	r7, sp, #0
2000272a:	6078      	str	r0, [r7, #4]
C:\Users\nitin.deshpande\Documents\GitHub\microsemi-huawei-liteos\microsemi-liteos\mscc-huawei-wsp\sc-gd450i-board-test\Debug/../kernel/base/core/los_task.c:165
    LOS_DL_LIST  *pstListObject;
    LOS_TASK_CB  *pstNextTask;
    UINT32 uwSortIndex;

    uwSortIndex = UWSORTINDEX(pstTaskCB->uwIdxRollNum);
2000272c:	687b      	ldr	r3, [r7, #4]
2000272e:	6cdb      	ldr	r3, [r3, #76]	; 0x4c
20002730:	0edb      	lsrs	r3, r3, #27
20002732:	617b      	str	r3, [r7, #20]
C:\Users\nitin.deshpande\Documents\GitHub\microsemi-huawei-liteos\microsemi-liteos\mscc-huawei-wsp\sc-gd450i-board-test\Debug/../kernel/base/core/los_task.c:166
    pstListObject = g_stTskSortLink.pstSortLink + uwSortIndex;
20002734:	4b13      	ldr	r3, [pc, #76]	; (20002784 <osTimerListDelete+0x60>)
20002736:	681a      	ldr	r2, [r3, #0]
20002738:	697b      	ldr	r3, [r7, #20]
2000273a:	00db      	lsls	r3, r3, #3
2000273c:	4413      	add	r3, r2
2000273e:	613b      	str	r3, [r7, #16]
C:\Users\nitin.deshpande\Documents\GitHub\microsemi-huawei-liteos\microsemi-liteos\mscc-huawei-wsp\sc-gd450i-board-test\Debug/../kernel/base/core/los_task.c:168

    if (pstListObject != pstTaskCB->stTimerList.pstNext)
20002740:	687b      	ldr	r3, [r7, #4]
20002742:	6c9a      	ldr	r2, [r3, #72]	; 0x48
20002744:	693b      	ldr	r3, [r7, #16]
20002746:	429a      	cmp	r2, r3
20002748:	d013      	beq.n	20002772 <osTimerListDelete+0x4e>
C:\Users\nitin.deshpande\Documents\GitHub\microsemi-huawei-liteos\microsemi-liteos\mscc-huawei-wsp\sc-gd450i-board-test\Debug/../kernel/base/core/los_task.c:170
    {
        pstNextTask = LOS_DL_LIST_ENTRY(pstTaskCB->stTimerList.pstNext, LOS_TASK_CB, stTimerList); /*lint !e413*/
2000274a:	687b      	ldr	r3, [r7, #4]
2000274c:	6c9b      	ldr	r3, [r3, #72]	; 0x48
2000274e:	3b44      	subs	r3, #68	; 0x44
20002750:	60fb      	str	r3, [r7, #12]
C:\Users\nitin.deshpande\Documents\GitHub\microsemi-huawei-liteos\microsemi-liteos\mscc-huawei-wsp\sc-gd450i-board-test\Debug/../kernel/base/core/los_task.c:171
        UWROLLNUMADD(pstNextTask->uwIdxRollNum, pstTaskCB->uwIdxRollNum);
20002752:	68fb      	ldr	r3, [r7, #12]
20002754:	6cdb      	ldr	r3, [r3, #76]	; 0x4c
20002756:	f003 4278 	and.w	r2, r3, #4160749568	; 0xf8000000
2000275a:	68fb      	ldr	r3, [r7, #12]
2000275c:	6cdb      	ldr	r3, [r3, #76]	; 0x4c
2000275e:	f023 4178 	bic.w	r1, r3, #4160749568	; 0xf8000000
20002762:	687b      	ldr	r3, [r7, #4]
20002764:	6cdb      	ldr	r3, [r3, #76]	; 0x4c
20002766:	f023 4378 	bic.w	r3, r3, #4160749568	; 0xf8000000
2000276a:	440b      	add	r3, r1
2000276c:	431a      	orrs	r2, r3
2000276e:	68fb      	ldr	r3, [r7, #12]
20002770:	64da      	str	r2, [r3, #76]	; 0x4c
C:\Users\nitin.deshpande\Documents\GitHub\microsemi-huawei-liteos\microsemi-liteos\mscc-huawei-wsp\sc-gd450i-board-test\Debug/../kernel/base/core/los_task.c:174
    }

    LOS_ListDelete(&pstTaskCB->stTimerList);
20002772:	687b      	ldr	r3, [r7, #4]
20002774:	3344      	adds	r3, #68	; 0x44
20002776:	4618      	mov	r0, r3
20002778:	f7ff ff1c 	bl	200025b4 <LOS_ListDelete>
C:\Users\nitin.deshpande\Documents\GitHub\microsemi-huawei-liteos\microsemi-liteos\mscc-huawei-wsp\sc-gd450i-board-test\Debug/../kernel/base/core/los_task.c:175
}
2000277c:	bf00      	nop
2000277e:	3718      	adds	r7, #24
20002780:	46bd      	mov	sp, r7
20002782:	bd80      	pop	{r7, pc}
20002784:	20004958 	.word	0x20004958

20002788 <osTaskScan>:
osTaskScan():
C:\Users\nitin.deshpande\Documents\GitHub\microsemi-huawei-liteos\microsemi-liteos\mscc-huawei-wsp\sc-gd450i-board-test\Debug/../kernel/base/core/los_task.c:178

LITE_OS_SEC_TEXT VOID osTaskScan(VOID)
{
20002788:	b580      	push	{r7, lr}
2000278a:	b084      	sub	sp, #16
2000278c:	af00      	add	r7, sp, #0
C:\Users\nitin.deshpande\Documents\GitHub\microsemi-huawei-liteos\microsemi-liteos\mscc-huawei-wsp\sc-gd450i-board-test\Debug/../kernel/base/core/los_task.c:180
    LOS_TASK_CB *pstTaskCB;
    UINTBOOL bNeedSchedule = FALSE;
2000278e:	2300      	movs	r3, #0
20002790:	60bb      	str	r3, [r7, #8]
C:\Users\nitin.deshpande\Documents\GitHub\microsemi-huawei-liteos\microsemi-liteos\mscc-huawei-wsp\sc-gd450i-board-test\Debug/../kernel/base/core/los_task.c:184
    LOS_DL_LIST *pstListObject;
    UINT16 usTempStatus;

    g_stTskSortLink.usCursor = (g_stTskSortLink.usCursor + 1) % OS_TSK_SORTLINK_LEN;
20002792:	4b50      	ldr	r3, [pc, #320]	; (200028d4 <osTaskScan+0x14c>)
20002794:	889b      	ldrh	r3, [r3, #4]
20002796:	3301      	adds	r3, #1
20002798:	425a      	negs	r2, r3
2000279a:	f003 031f 	and.w	r3, r3, #31
2000279e:	f002 021f 	and.w	r2, r2, #31
200027a2:	bf58      	it	pl
200027a4:	4253      	negpl	r3, r2
200027a6:	b29a      	uxth	r2, r3
200027a8:	4b4a      	ldr	r3, [pc, #296]	; (200028d4 <osTaskScan+0x14c>)
200027aa:	809a      	strh	r2, [r3, #4]
C:\Users\nitin.deshpande\Documents\GitHub\microsemi-huawei-liteos\microsemi-liteos\mscc-huawei-wsp\sc-gd450i-board-test\Debug/../kernel/base/core/los_task.c:185
    pstListObject = g_stTskSortLink.pstSortLink + g_stTskSortLink.usCursor;
200027ac:	4b49      	ldr	r3, [pc, #292]	; (200028d4 <osTaskScan+0x14c>)
200027ae:	681a      	ldr	r2, [r3, #0]
200027b0:	4b48      	ldr	r3, [pc, #288]	; (200028d4 <osTaskScan+0x14c>)
200027b2:	889b      	ldrh	r3, [r3, #4]
200027b4:	00db      	lsls	r3, r3, #3
200027b6:	4413      	add	r3, r2
200027b8:	607b      	str	r3, [r7, #4]
C:\Users\nitin.deshpande\Documents\GitHub\microsemi-huawei-liteos\microsemi-liteos\mscc-huawei-wsp\sc-gd450i-board-test\Debug/../kernel/base/core/los_task.c:186
    if (pstListObject->pstNext == pstListObject)
200027ba:	687b      	ldr	r3, [r7, #4]
200027bc:	685a      	ldr	r2, [r3, #4]
200027be:	687b      	ldr	r3, [r7, #4]
200027c0:	429a      	cmp	r2, r3
200027c2:	f000 8082 	beq.w	200028ca <osTaskScan+0x142>
C:\Users\nitin.deshpande\Documents\GitHub\microsemi-huawei-liteos\microsemi-liteos\mscc-huawei-wsp\sc-gd450i-board-test\Debug/../kernel/base/core/los_task.c:191
    {
        return;
    }

    for (pstTaskCB = LOS_DL_LIST_ENTRY((pstListObject)->pstNext, LOS_TASK_CB, stTimerList);&pstTaskCB->stTimerList != (pstListObject);) /*lint !e413*/
200027c6:	687b      	ldr	r3, [r7, #4]
200027c8:	685b      	ldr	r3, [r3, #4]
200027ca:	3b44      	subs	r3, #68	; 0x44
200027cc:	60fb      	str	r3, [r7, #12]
200027ce:	e070      	b.n	200028b2 <osTaskScan+0x12a>
C:\Users\nitin.deshpande\Documents\GitHub\microsemi-huawei-liteos\microsemi-liteos\mscc-huawei-wsp\sc-gd450i-board-test\Debug/../kernel/base/core/los_task.c:193
    {
        usTempStatus = pstTaskCB->usTaskStatus;
200027d0:	68fb      	ldr	r3, [r7, #12]
200027d2:	889b      	ldrh	r3, [r3, #4]
200027d4:	807b      	strh	r3, [r7, #2]
C:\Users\nitin.deshpande\Documents\GitHub\microsemi-huawei-liteos\microsemi-liteos\mscc-huawei-wsp\sc-gd450i-board-test\Debug/../kernel/base/core/los_task.c:194
        if (UWROLLNUM(pstTaskCB->uwIdxRollNum) > 0)
200027d6:	68fb      	ldr	r3, [r7, #12]
200027d8:	6cdb      	ldr	r3, [r3, #76]	; 0x4c
200027da:	f023 4378 	bic.w	r3, r3, #4160749568	; 0xf8000000
200027de:	2b00      	cmp	r3, #0
200027e0:	d005      	beq.n	200027ee <osTaskScan+0x66>
C:\Users\nitin.deshpande\Documents\GitHub\microsemi-huawei-liteos\microsemi-liteos\mscc-huawei-wsp\sc-gd450i-board-test\Debug/../kernel/base/core/los_task.c:196
        {
            UWROLLNUMDEC(pstTaskCB->uwIdxRollNum);
200027e2:	68fb      	ldr	r3, [r7, #12]
200027e4:	6cdb      	ldr	r3, [r3, #76]	; 0x4c
200027e6:	1e5a      	subs	r2, r3, #1
200027e8:	68fb      	ldr	r3, [r7, #12]
200027ea:	64da      	str	r2, [r3, #76]	; 0x4c
C:\Users\nitin.deshpande\Documents\GitHub\microsemi-huawei-liteos\microsemi-liteos\mscc-huawei-wsp\sc-gd450i-board-test\Debug/../kernel/base/core/los_task.c:197
            break;
200027ec:	e067      	b.n	200028be <osTaskScan+0x136>
C:\Users\nitin.deshpande\Documents\GitHub\microsemi-huawei-liteos\microsemi-liteos\mscc-huawei-wsp\sc-gd450i-board-test\Debug/../kernel/base/core/los_task.c:200
        }

        LOS_ListDelete(&pstTaskCB->stTimerList);
200027ee:	68fb      	ldr	r3, [r7, #12]
200027f0:	3344      	adds	r3, #68	; 0x44
200027f2:	4618      	mov	r0, r3
200027f4:	f7ff fede 	bl	200025b4 <LOS_ListDelete>
C:\Users\nitin.deshpande\Documents\GitHub\microsemi-huawei-liteos\microsemi-liteos\mscc-huawei-wsp\sc-gd450i-board-test\Debug/../kernel/base/core/los_task.c:201
        if (OS_TASK_STATUS_PEND & usTempStatus)
200027f8:	887b      	ldrh	r3, [r7, #2]
200027fa:	f003 0308 	and.w	r3, r3, #8
200027fe:	b29b      	uxth	r3, r3
20002800:	2b00      	cmp	r3, #0
20002802:	d012      	beq.n	2000282a <osTaskScan+0xa2>
C:\Users\nitin.deshpande\Documents\GitHub\microsemi-huawei-liteos\microsemi-liteos\mscc-huawei-wsp\sc-gd450i-board-test\Debug/../kernel/base/core/los_task.c:203
        {
            pstTaskCB->usTaskStatus &= ~(OS_TASK_STATUS_PEND);
20002804:	68fb      	ldr	r3, [r7, #12]
20002806:	889b      	ldrh	r3, [r3, #4]
20002808:	f023 0308 	bic.w	r3, r3, #8
2000280c:	b29a      	uxth	r2, r3
2000280e:	68fb      	ldr	r3, [r7, #12]
20002810:	809a      	strh	r2, [r3, #4]
C:\Users\nitin.deshpande\Documents\GitHub\microsemi-huawei-liteos\microsemi-liteos\mscc-huawei-wsp\sc-gd450i-board-test\Debug/../kernel/base/core/los_task.c:204
            LOS_ListDelete(&pstTaskCB->stPendList);
20002812:	68fb      	ldr	r3, [r7, #12]
20002814:	333c      	adds	r3, #60	; 0x3c
20002816:	4618      	mov	r0, r3
20002818:	f7ff fecc 	bl	200025b4 <LOS_ListDelete>
C:\Users\nitin.deshpande\Documents\GitHub\microsemi-huawei-liteos\microsemi-liteos\mscc-huawei-wsp\sc-gd450i-board-test\Debug/../kernel/base/core/los_task.c:205
            pstTaskCB->pTaskSem = NULL;
2000281c:	68fb      	ldr	r3, [r7, #12]
2000281e:	2200      	movs	r2, #0
20002820:	619a      	str	r2, [r3, #24]
C:\Users\nitin.deshpande\Documents\GitHub\microsemi-huawei-liteos\microsemi-liteos\mscc-huawei-wsp\sc-gd450i-board-test\Debug/../kernel/base/core/los_task.c:206
            pstTaskCB->pTaskMux = NULL;
20002822:	68fb      	ldr	r3, [r7, #12]
20002824:	2200      	movs	r2, #0
20002826:	625a      	str	r2, [r3, #36]	; 0x24
20002828:	e027      	b.n	2000287a <osTaskScan+0xf2>
C:\Users\nitin.deshpande\Documents\GitHub\microsemi-huawei-liteos\microsemi-liteos\mscc-huawei-wsp\sc-gd450i-board-test\Debug/../kernel/base/core/los_task.c:208
        }
        else if (OS_TASK_STATUS_EVENT & usTempStatus)
2000282a:	887b      	ldrh	r3, [r7, #2]
2000282c:	f403 6380 	and.w	r3, r3, #1024	; 0x400
20002830:	b29b      	uxth	r3, r3
20002832:	2b00      	cmp	r3, #0
20002834:	d007      	beq.n	20002846 <osTaskScan+0xbe>
C:\Users\nitin.deshpande\Documents\GitHub\microsemi-huawei-liteos\microsemi-liteos\mscc-huawei-wsp\sc-gd450i-board-test\Debug/../kernel/base/core/los_task.c:210
        {
            pstTaskCB->usTaskStatus &= ~(OS_TASK_STATUS_EVENT);
20002836:	68fb      	ldr	r3, [r7, #12]
20002838:	889b      	ldrh	r3, [r3, #4]
2000283a:	f423 6380 	bic.w	r3, r3, #1024	; 0x400
2000283e:	b29a      	uxth	r2, r3
20002840:	68fb      	ldr	r3, [r7, #12]
20002842:	809a      	strh	r2, [r3, #4]
20002844:	e019      	b.n	2000287a <osTaskScan+0xf2>
C:\Users\nitin.deshpande\Documents\GitHub\microsemi-huawei-liteos\microsemi-liteos\mscc-huawei-wsp\sc-gd450i-board-test\Debug/../kernel/base/core/los_task.c:212
        }
        else if (OS_TASK_STATUS_PEND_QUEUE & usTempStatus)
20002846:	887b      	ldrh	r3, [r7, #2]
20002848:	f403 5300 	and.w	r3, r3, #8192	; 0x2000
2000284c:	b29b      	uxth	r3, r3
2000284e:	2b00      	cmp	r3, #0
20002850:	d00c      	beq.n	2000286c <osTaskScan+0xe4>
C:\Users\nitin.deshpande\Documents\GitHub\microsemi-huawei-liteos\microsemi-liteos\mscc-huawei-wsp\sc-gd450i-board-test\Debug/../kernel/base/core/los_task.c:214
        {
            LOS_ListDelete(&pstTaskCB->stPendList);
20002852:	68fb      	ldr	r3, [r7, #12]
20002854:	333c      	adds	r3, #60	; 0x3c
20002856:	4618      	mov	r0, r3
20002858:	f7ff feac 	bl	200025b4 <LOS_ListDelete>
C:\Users\nitin.deshpande\Documents\GitHub\microsemi-huawei-liteos\microsemi-liteos\mscc-huawei-wsp\sc-gd450i-board-test\Debug/../kernel/base/core/los_task.c:215
            pstTaskCB->usTaskStatus &= ~(OS_TASK_STATUS_PEND_QUEUE);
2000285c:	68fb      	ldr	r3, [r7, #12]
2000285e:	889b      	ldrh	r3, [r3, #4]
20002860:	f423 5300 	bic.w	r3, r3, #8192	; 0x2000
20002864:	b29a      	uxth	r2, r3
20002866:	68fb      	ldr	r3, [r7, #12]
20002868:	809a      	strh	r2, [r3, #4]
2000286a:	e006      	b.n	2000287a <osTaskScan+0xf2>
C:\Users\nitin.deshpande\Documents\GitHub\microsemi-huawei-liteos\microsemi-liteos\mscc-huawei-wsp\sc-gd450i-board-test\Debug/../kernel/base/core/los_task.c:219
        }
        else
        {
            pstTaskCB->usTaskStatus &= ~(OS_TASK_STATUS_DELAY);
2000286c:	68fb      	ldr	r3, [r7, #12]
2000286e:	889b      	ldrh	r3, [r3, #4]
20002870:	f023 0320 	bic.w	r3, r3, #32
20002874:	b29a      	uxth	r2, r3
20002876:	68fb      	ldr	r3, [r7, #12]
20002878:	809a      	strh	r2, [r3, #4]
C:\Users\nitin.deshpande\Documents\GitHub\microsemi-huawei-liteos\microsemi-liteos\mscc-huawei-wsp\sc-gd450i-board-test\Debug/../kernel/base/core/los_task.c:222
        }

        if (!((OS_TASK_STATUS_SUSPEND) & usTempStatus))
2000287a:	887b      	ldrh	r3, [r7, #2]
2000287c:	f003 0302 	and.w	r3, r3, #2
20002880:	b29b      	uxth	r3, r3
20002882:	2b00      	cmp	r3, #0
20002884:	d111      	bne.n	200028aa <osTaskScan+0x122>
C:\Users\nitin.deshpande\Documents\GitHub\microsemi-huawei-liteos\microsemi-liteos\mscc-huawei-wsp\sc-gd450i-board-test\Debug/../kernel/base/core/los_task.c:224
        {
            pstTaskCB->usTaskStatus |= OS_TASK_STATUS_READY;
20002886:	68fb      	ldr	r3, [r7, #12]
20002888:	889b      	ldrh	r3, [r3, #4]
2000288a:	f043 0304 	orr.w	r3, r3, #4
2000288e:	b29a      	uxth	r2, r3
20002890:	68fb      	ldr	r3, [r7, #12]
20002892:	809a      	strh	r2, [r3, #4]
C:\Users\nitin.deshpande\Documents\GitHub\microsemi-huawei-liteos\microsemi-liteos\mscc-huawei-wsp\sc-gd450i-board-test\Debug/../kernel/base/core/los_task.c:225
            LOS_PriqueueEnqueue(&pstTaskCB->stPendList, pstTaskCB->usPriority);
20002894:	68fb      	ldr	r3, [r7, #12]
20002896:	f103 023c 	add.w	r2, r3, #60	; 0x3c
2000289a:	68fb      	ldr	r3, [r7, #12]
2000289c:	88db      	ldrh	r3, [r3, #6]
2000289e:	4619      	mov	r1, r3
200028a0:	4610      	mov	r0, r2
200028a2:	f7ff fc2f 	bl	20002104 <LOS_PriqueueEnqueue>
C:\Users\nitin.deshpande\Documents\GitHub\microsemi-huawei-liteos\microsemi-liteos\mscc-huawei-wsp\sc-gd450i-board-test\Debug/../kernel/base/core/los_task.c:226
            bNeedSchedule = TRUE;
200028a6:	2301      	movs	r3, #1
200028a8:	60bb      	str	r3, [r7, #8]
C:\Users\nitin.deshpande\Documents\GitHub\microsemi-huawei-liteos\microsemi-liteos\mscc-huawei-wsp\sc-gd450i-board-test\Debug/../kernel/base/core/los_task.c:229
        }

        pstTaskCB = LOS_DL_LIST_ENTRY(pstListObject->pstNext, LOS_TASK_CB, stTimerList); /*lint !e413*/
200028aa:	687b      	ldr	r3, [r7, #4]
200028ac:	685b      	ldr	r3, [r3, #4]
200028ae:	3b44      	subs	r3, #68	; 0x44
200028b0:	60fb      	str	r3, [r7, #12]
C:\Users\nitin.deshpande\Documents\GitHub\microsemi-huawei-liteos\microsemi-liteos\mscc-huawei-wsp\sc-gd450i-board-test\Debug/../kernel/base/core/los_task.c:191 (discriminator 1)
    for (pstTaskCB = LOS_DL_LIST_ENTRY((pstListObject)->pstNext, LOS_TASK_CB, stTimerList);&pstTaskCB->stTimerList != (pstListObject);) /*lint !e413*/
200028b2:	68fb      	ldr	r3, [r7, #12]
200028b4:	f103 0244 	add.w	r2, r3, #68	; 0x44
200028b8:	687b      	ldr	r3, [r7, #4]
200028ba:	429a      	cmp	r2, r3
200028bc:	d188      	bne.n	200027d0 <osTaskScan+0x48>
C:\Users\nitin.deshpande\Documents\GitHub\microsemi-huawei-liteos\microsemi-liteos\mscc-huawei-wsp\sc-gd450i-board-test\Debug/../kernel/base/core/los_task.c:232
    }

    if (bNeedSchedule)
200028be:	68bb      	ldr	r3, [r7, #8]
200028c0:	2b00      	cmp	r3, #0
200028c2:	d003      	beq.n	200028cc <osTaskScan+0x144>
C:\Users\nitin.deshpande\Documents\GitHub\microsemi-huawei-liteos\microsemi-liteos\mscc-huawei-wsp\sc-gd450i-board-test\Debug/../kernel/base/core/los_task.c:234
    {
        LOS_Schedule();
200028c4:	f7fd fdfc 	bl	200004c0 <LOS_Schedule>
200028c8:	e000      	b.n	200028cc <osTaskScan+0x144>
C:\Users\nitin.deshpande\Documents\GitHub\microsemi-huawei-liteos\microsemi-liteos\mscc-huawei-wsp\sc-gd450i-board-test\Debug/../kernel/base/core/los_task.c:188
        return;
200028ca:	bf00      	nop
C:\Users\nitin.deshpande\Documents\GitHub\microsemi-huawei-liteos\microsemi-liteos\mscc-huawei-wsp\sc-gd450i-board-test\Debug/../kernel/base/core/los_task.c:236
    }
}
200028cc:	3710      	adds	r7, #16
200028ce:	46bd      	mov	sp, r7
200028d0:	bd80      	pop	{r7, pc}
200028d2:	bf00      	nop
200028d4:	20004958 	.word	0x20004958

200028d8 <osTaskInit>:
osTaskInit():
C:\Users\nitin.deshpande\Documents\GitHub\microsemi-huawei-liteos\microsemi-liteos\mscc-huawei-wsp\sc-gd450i-board-test\Debug/../kernel/base/core/los_task.c:246
 Input       : None
 Output      : None
 Return      : LOS_OK on success or error code on failure
 *****************************************************************************/
LITE_OS_SEC_TEXT_INIT UINT32 osTaskInit(VOID)
{
200028d8:	b580      	push	{r7, lr}
200028da:	b084      	sub	sp, #16
200028dc:	af00      	add	r7, sp, #0
C:\Users\nitin.deshpande\Documents\GitHub\microsemi-huawei-liteos\microsemi-liteos\mscc-huawei-wsp\sc-gd450i-board-test\Debug/../kernel/base/core/los_task.c:251
    UINT32 uwSize;
    UINT32 uwIndex;
    LOS_DL_LIST *pstListObject;

    uwSize = (g_uwTskMaxNum + 1) * sizeof(LOS_TASK_CB);
200028de:	4b4c      	ldr	r3, [pc, #304]	; (20002a10 <osTaskInit+0x138>)
200028e0:	681b      	ldr	r3, [r3, #0]
200028e2:	3301      	adds	r3, #1
200028e4:	2268      	movs	r2, #104	; 0x68
200028e6:	fb02 f303 	mul.w	r3, r2, r3
200028ea:	607b      	str	r3, [r7, #4]
C:\Users\nitin.deshpande\Documents\GitHub\microsemi-huawei-liteos\microsemi-liteos\mscc-huawei-wsp\sc-gd450i-board-test\Debug/../kernel/base/core/los_task.c:252
    g_pstTaskCBArray = (LOS_TASK_CB *)LOS_MemAlloc(m_aucSysMem0, uwSize);
200028ec:	4b49      	ldr	r3, [pc, #292]	; (20002a14 <osTaskInit+0x13c>)
200028ee:	681b      	ldr	r3, [r3, #0]
200028f0:	6879      	ldr	r1, [r7, #4]
200028f2:	4618      	mov	r0, r3
200028f4:	f7fe fc3c 	bl	20001170 <LOS_MemAlloc>
200028f8:	4602      	mov	r2, r0
200028fa:	4b47      	ldr	r3, [pc, #284]	; (20002a18 <osTaskInit+0x140>)
200028fc:	601a      	str	r2, [r3, #0]
C:\Users\nitin.deshpande\Documents\GitHub\microsemi-huawei-liteos\microsemi-liteos\mscc-huawei-wsp\sc-gd450i-board-test\Debug/../kernel/base/core/los_task.c:253
    if (NULL == g_pstTaskCBArray)
200028fe:	4b46      	ldr	r3, [pc, #280]	; (20002a18 <osTaskInit+0x140>)
20002900:	681b      	ldr	r3, [r3, #0]
20002902:	2b00      	cmp	r3, #0
20002904:	d101      	bne.n	2000290a <osTaskInit+0x32>
C:\Users\nitin.deshpande\Documents\GitHub\microsemi-huawei-liteos\microsemi-liteos\mscc-huawei-wsp\sc-gd450i-board-test\Debug/../kernel/base/core/los_task.c:255
    {
        return LOS_ERRNO_TSK_NO_MEMORY;
20002906:	4b45      	ldr	r3, [pc, #276]	; (20002a1c <osTaskInit+0x144>)
20002908:	e07d      	b.n	20002a06 <osTaskInit+0x12e>
C:\Users\nitin.deshpande\Documents\GitHub\microsemi-huawei-liteos\microsemi-liteos\mscc-huawei-wsp\sc-gd450i-board-test\Debug/../kernel/base/core/los_task.c:258
    }

    (VOID)memset(g_pstTaskCBArray, 0, uwSize);
2000290a:	4b43      	ldr	r3, [pc, #268]	; (20002a18 <osTaskInit+0x140>)
2000290c:	681b      	ldr	r3, [r3, #0]
2000290e:	687a      	ldr	r2, [r7, #4]
20002910:	2100      	movs	r1, #0
20002912:	4618      	mov	r0, r3
20002914:	f001 fcd0 	bl	200042b8 <memset>
C:\Users\nitin.deshpande\Documents\GitHub\microsemi-huawei-liteos\microsemi-liteos\mscc-huawei-wsp\sc-gd450i-board-test\Debug/../kernel/base/core/los_task.c:259
    LOS_ListInit(&g_stTaskTimerList);
20002918:	4841      	ldr	r0, [pc, #260]	; (20002a20 <osTaskInit+0x148>)
2000291a:	f7ff fe13 	bl	20002544 <LOS_ListInit>
C:\Users\nitin.deshpande\Documents\GitHub\microsemi-huawei-liteos\microsemi-liteos\mscc-huawei-wsp\sc-gd450i-board-test\Debug/../kernel/base/core/los_task.c:260
    LOS_ListInit(&g_stLosFreeTask);
2000291e:	4841      	ldr	r0, [pc, #260]	; (20002a24 <osTaskInit+0x14c>)
20002920:	f7ff fe10 	bl	20002544 <LOS_ListInit>
C:\Users\nitin.deshpande\Documents\GitHub\microsemi-huawei-liteos\microsemi-liteos\mscc-huawei-wsp\sc-gd450i-board-test\Debug/../kernel/base/core/los_task.c:261
    LOS_ListInit(&g_stTskRecyleList);
20002924:	4840      	ldr	r0, [pc, #256]	; (20002a28 <osTaskInit+0x150>)
20002926:	f7ff fe0d 	bl	20002544 <LOS_ListInit>
C:\Users\nitin.deshpande\Documents\GitHub\microsemi-huawei-liteos\microsemi-liteos\mscc-huawei-wsp\sc-gd450i-board-test\Debug/../kernel/base/core/los_task.c:262
    for (uwIndex = 0; uwIndex <= LOSCFG_BASE_CORE_TSK_LIMIT; uwIndex++)
2000292a:	2300      	movs	r3, #0
2000292c:	60fb      	str	r3, [r7, #12]
2000292e:	e020      	b.n	20002972 <osTaskInit+0x9a>
C:\Users\nitin.deshpande\Documents\GitHub\microsemi-huawei-liteos\microsemi-liteos\mscc-huawei-wsp\sc-gd450i-board-test\Debug/../kernel/base/core/los_task.c:264 (discriminator 3)
    {
        g_pstTaskCBArray[uwIndex].usTaskStatus = OS_TASK_STATUS_UNUSED;
20002930:	4b39      	ldr	r3, [pc, #228]	; (20002a18 <osTaskInit+0x140>)
20002932:	681a      	ldr	r2, [r3, #0]
20002934:	68fb      	ldr	r3, [r7, #12]
20002936:	2168      	movs	r1, #104	; 0x68
20002938:	fb01 f303 	mul.w	r3, r1, r3
2000293c:	4413      	add	r3, r2
2000293e:	2201      	movs	r2, #1
20002940:	809a      	strh	r2, [r3, #4]
C:\Users\nitin.deshpande\Documents\GitHub\microsemi-huawei-liteos\microsemi-liteos\mscc-huawei-wsp\sc-gd450i-board-test\Debug/../kernel/base/core/los_task.c:265 (discriminator 3)
        g_pstTaskCBArray[uwIndex].uwTaskID = uwIndex;
20002942:	4b35      	ldr	r3, [pc, #212]	; (20002a18 <osTaskInit+0x140>)
20002944:	681a      	ldr	r2, [r3, #0]
20002946:	68fb      	ldr	r3, [r7, #12]
20002948:	2168      	movs	r1, #104	; 0x68
2000294a:	fb01 f303 	mul.w	r3, r1, r3
2000294e:	4413      	add	r3, r2
20002950:	68fa      	ldr	r2, [r7, #12]
20002952:	611a      	str	r2, [r3, #16]
C:\Users\nitin.deshpande\Documents\GitHub\microsemi-huawei-liteos\microsemi-liteos\mscc-huawei-wsp\sc-gd450i-board-test\Debug/../kernel/base/core/los_task.c:266 (discriminator 3)
        LOS_ListTailInsert(&g_stLosFreeTask, &g_pstTaskCBArray[uwIndex].stPendList);
20002954:	4b30      	ldr	r3, [pc, #192]	; (20002a18 <osTaskInit+0x140>)
20002956:	681a      	ldr	r2, [r3, #0]
20002958:	68fb      	ldr	r3, [r7, #12]
2000295a:	2168      	movs	r1, #104	; 0x68
2000295c:	fb01 f303 	mul.w	r3, r1, r3
20002960:	4413      	add	r3, r2
20002962:	333c      	adds	r3, #60	; 0x3c
20002964:	4619      	mov	r1, r3
20002966:	482f      	ldr	r0, [pc, #188]	; (20002a24 <osTaskInit+0x14c>)
20002968:	f7ff fe15 	bl	20002596 <LOS_ListTailInsert>
C:\Users\nitin.deshpande\Documents\GitHub\microsemi-huawei-liteos\microsemi-liteos\mscc-huawei-wsp\sc-gd450i-board-test\Debug/../kernel/base/core/los_task.c:262 (discriminator 3)
    for (uwIndex = 0; uwIndex <= LOSCFG_BASE_CORE_TSK_LIMIT; uwIndex++)
2000296c:	68fb      	ldr	r3, [r7, #12]
2000296e:	3301      	adds	r3, #1
20002970:	60fb      	str	r3, [r7, #12]
C:\Users\nitin.deshpande\Documents\GitHub\microsemi-huawei-liteos\microsemi-liteos\mscc-huawei-wsp\sc-gd450i-board-test\Debug/../kernel/base/core/los_task.c:262 (discriminator 1)
20002972:	68fb      	ldr	r3, [r7, #12]
20002974:	2b0f      	cmp	r3, #15
20002976:	d9db      	bls.n	20002930 <osTaskInit+0x58>
C:\Users\nitin.deshpande\Documents\GitHub\microsemi-huawei-liteos\microsemi-liteos\mscc-huawei-wsp\sc-gd450i-board-test\Debug/../kernel/base/core/los_task.c:269
    }

    (VOID)memset((void *)(&g_stLosTask), 0, sizeof(g_stLosTask));
20002978:	2208      	movs	r2, #8
2000297a:	2100      	movs	r1, #0
2000297c:	482b      	ldr	r0, [pc, #172]	; (20002a2c <osTaskInit+0x154>)
2000297e:	f001 fc9b 	bl	200042b8 <memset>
C:\Users\nitin.deshpande\Documents\GitHub\microsemi-huawei-liteos\microsemi-liteos\mscc-huawei-wsp\sc-gd450i-board-test\Debug/../kernel/base/core/los_task.c:270
    g_stLosTask.pstRunTask = &g_pstTaskCBArray[g_uwTskMaxNum];
20002982:	4b25      	ldr	r3, [pc, #148]	; (20002a18 <osTaskInit+0x140>)
20002984:	681a      	ldr	r2, [r3, #0]
20002986:	4b22      	ldr	r3, [pc, #136]	; (20002a10 <osTaskInit+0x138>)
20002988:	681b      	ldr	r3, [r3, #0]
2000298a:	2168      	movs	r1, #104	; 0x68
2000298c:	fb01 f303 	mul.w	r3, r1, r3
20002990:	4413      	add	r3, r2
20002992:	4a26      	ldr	r2, [pc, #152]	; (20002a2c <osTaskInit+0x154>)
20002994:	6013      	str	r3, [r2, #0]
C:\Users\nitin.deshpande\Documents\GitHub\microsemi-huawei-liteos\microsemi-liteos\mscc-huawei-wsp\sc-gd450i-board-test\Debug/../kernel/base/core/los_task.c:271
    g_stLosTask.pstRunTask->uwTaskID = uwIndex;
20002996:	4b25      	ldr	r3, [pc, #148]	; (20002a2c <osTaskInit+0x154>)
20002998:	681b      	ldr	r3, [r3, #0]
2000299a:	68fa      	ldr	r2, [r7, #12]
2000299c:	611a      	str	r2, [r3, #16]
C:\Users\nitin.deshpande\Documents\GitHub\microsemi-huawei-liteos\microsemi-liteos\mscc-huawei-wsp\sc-gd450i-board-test\Debug/../kernel/base/core/los_task.c:272
    g_stLosTask.pstRunTask->usTaskStatus = (OS_TASK_STATUS_UNUSED | OS_TASK_STATUS_RUNNING);
2000299e:	4b23      	ldr	r3, [pc, #140]	; (20002a2c <osTaskInit+0x154>)
200029a0:	681b      	ldr	r3, [r3, #0]
200029a2:	2211      	movs	r2, #17
200029a4:	809a      	strh	r2, [r3, #4]
C:\Users\nitin.deshpande\Documents\GitHub\microsemi-huawei-liteos\microsemi-liteos\mscc-huawei-wsp\sc-gd450i-board-test\Debug/../kernel/base/core/los_task.c:273
    g_stLosTask.pstRunTask->usPriority = OS_TASK_PRIORITY_LOWEST + 1;
200029a6:	4b21      	ldr	r3, [pc, #132]	; (20002a2c <osTaskInit+0x154>)
200029a8:	681b      	ldr	r3, [r3, #0]
200029aa:	2220      	movs	r2, #32
200029ac:	80da      	strh	r2, [r3, #6]
C:\Users\nitin.deshpande\Documents\GitHub\microsemi-huawei-liteos\microsemi-liteos\mscc-huawei-wsp\sc-gd450i-board-test\Debug/../kernel/base/core/los_task.c:274
    osPriqueueInit();
200029ae:	f7ff fb77 	bl	200020a0 <osPriqueueInit>
C:\Users\nitin.deshpande\Documents\GitHub\microsemi-huawei-liteos\microsemi-liteos\mscc-huawei-wsp\sc-gd450i-board-test\Debug/../kernel/base/core/los_task.c:275
    uwSize = sizeof(LOS_DL_LIST) * OS_TSK_SORTLINK_LEN;
200029b2:	f44f 7380 	mov.w	r3, #256	; 0x100
200029b6:	607b      	str	r3, [r7, #4]
C:\Users\nitin.deshpande\Documents\GitHub\microsemi-huawei-liteos\microsemi-liteos\mscc-huawei-wsp\sc-gd450i-board-test\Debug/../kernel/base/core/los_task.c:276
    pstListObject = (LOS_DL_LIST *)LOS_MemAlloc(m_aucSysMem0, uwSize);
200029b8:	4b16      	ldr	r3, [pc, #88]	; (20002a14 <osTaskInit+0x13c>)
200029ba:	681b      	ldr	r3, [r3, #0]
200029bc:	6879      	ldr	r1, [r7, #4]
200029be:	4618      	mov	r0, r3
200029c0:	f7fe fbd6 	bl	20001170 <LOS_MemAlloc>
200029c4:	60b8      	str	r0, [r7, #8]
C:\Users\nitin.deshpande\Documents\GitHub\microsemi-huawei-liteos\microsemi-liteos\mscc-huawei-wsp\sc-gd450i-board-test\Debug/../kernel/base/core/los_task.c:277
    if (NULL == pstListObject)
200029c6:	68bb      	ldr	r3, [r7, #8]
200029c8:	2b00      	cmp	r3, #0
200029ca:	d101      	bne.n	200029d0 <osTaskInit+0xf8>
C:\Users\nitin.deshpande\Documents\GitHub\microsemi-huawei-liteos\microsemi-liteos\mscc-huawei-wsp\sc-gd450i-board-test\Debug/../kernel/base/core/los_task.c:279
    {
        return LOS_ERRNO_TSK_NO_MEMORY;
200029cc:	4b13      	ldr	r3, [pc, #76]	; (20002a1c <osTaskInit+0x144>)
200029ce:	e01a      	b.n	20002a06 <osTaskInit+0x12e>
C:\Users\nitin.deshpande\Documents\GitHub\microsemi-huawei-liteos\microsemi-liteos\mscc-huawei-wsp\sc-gd450i-board-test\Debug/../kernel/base/core/los_task.c:282
    }

    (VOID)memset((void *)pstListObject, 0, uwSize);
200029d0:	687a      	ldr	r2, [r7, #4]
200029d2:	2100      	movs	r1, #0
200029d4:	68b8      	ldr	r0, [r7, #8]
200029d6:	f001 fc6f 	bl	200042b8 <memset>
C:\Users\nitin.deshpande\Documents\GitHub\microsemi-huawei-liteos\microsemi-liteos\mscc-huawei-wsp\sc-gd450i-board-test\Debug/../kernel/base/core/los_task.c:283
    g_stTskSortLink.pstSortLink = pstListObject;
200029da:	4a15      	ldr	r2, [pc, #84]	; (20002a30 <osTaskInit+0x158>)
200029dc:	68bb      	ldr	r3, [r7, #8]
200029de:	6013      	str	r3, [r2, #0]
C:\Users\nitin.deshpande\Documents\GitHub\microsemi-huawei-liteos\microsemi-liteos\mscc-huawei-wsp\sc-gd450i-board-test\Debug/../kernel/base/core/los_task.c:284
    g_stTskSortLink.usCursor = 0;
200029e0:	4b13      	ldr	r3, [pc, #76]	; (20002a30 <osTaskInit+0x158>)
200029e2:	2200      	movs	r2, #0
200029e4:	809a      	strh	r2, [r3, #4]
C:\Users\nitin.deshpande\Documents\GitHub\microsemi-huawei-liteos\microsemi-liteos\mscc-huawei-wsp\sc-gd450i-board-test\Debug/../kernel/base/core/los_task.c:285
    for (uwIndex = 0; uwIndex < OS_TSK_SORTLINK_LEN; uwIndex++, pstListObject++)
200029e6:	2300      	movs	r3, #0
200029e8:	60fb      	str	r3, [r7, #12]
200029ea:	e008      	b.n	200029fe <osTaskInit+0x126>
C:\Users\nitin.deshpande\Documents\GitHub\microsemi-huawei-liteos\microsemi-liteos\mscc-huawei-wsp\sc-gd450i-board-test\Debug/../kernel/base/core/los_task.c:287 (discriminator 3)
    {
        LOS_ListInit(pstListObject);
200029ec:	68b8      	ldr	r0, [r7, #8]
200029ee:	f7ff fda9 	bl	20002544 <LOS_ListInit>
C:\Users\nitin.deshpande\Documents\GitHub\microsemi-huawei-liteos\microsemi-liteos\mscc-huawei-wsp\sc-gd450i-board-test\Debug/../kernel/base/core/los_task.c:285 (discriminator 3)
    for (uwIndex = 0; uwIndex < OS_TSK_SORTLINK_LEN; uwIndex++, pstListObject++)
200029f2:	68fb      	ldr	r3, [r7, #12]
200029f4:	3301      	adds	r3, #1
200029f6:	60fb      	str	r3, [r7, #12]
200029f8:	68bb      	ldr	r3, [r7, #8]
200029fa:	3308      	adds	r3, #8
200029fc:	60bb      	str	r3, [r7, #8]
C:\Users\nitin.deshpande\Documents\GitHub\microsemi-huawei-liteos\microsemi-liteos\mscc-huawei-wsp\sc-gd450i-board-test\Debug/../kernel/base/core/los_task.c:285 (discriminator 1)
200029fe:	68fb      	ldr	r3, [r7, #12]
20002a00:	2b1f      	cmp	r3, #31
20002a02:	d9f3      	bls.n	200029ec <osTaskInit+0x114>
C:\Users\nitin.deshpande\Documents\GitHub\microsemi-huawei-liteos\microsemi-liteos\mscc-huawei-wsp\sc-gd450i-board-test\Debug/../kernel/base/core/los_task.c:290
    }

    return LOS_OK;
20002a04:	2300      	movs	r3, #0
C:\Users\nitin.deshpande\Documents\GitHub\microsemi-huawei-liteos\microsemi-liteos\mscc-huawei-wsp\sc-gd450i-board-test\Debug/../kernel/base/core/los_task.c:291
}
20002a06:	4618      	mov	r0, r3
20002a08:	3710      	adds	r7, #16
20002a0a:	46bd      	mov	sp, r7
20002a0c:	bd80      	pop	{r7, pc}
20002a0e:	bf00      	nop
20002a10:	20004964 	.word	0x20004964
20002a14:	20004808 	.word	0x20004808
20002a18:	20004960 	.word	0x20004960
20002a1c:	03000200 	.word	0x03000200
20002a20:	20004980 	.word	0x20004980
20002a24:	20004978 	.word	0x20004978
20002a28:	20004950 	.word	0x20004950
20002a2c:	2000496c 	.word	0x2000496c
20002a30:	20004958 	.word	0x20004958

20002a34 <osIdleTaskCreate>:
osIdleTaskCreate():
C:\Users\nitin.deshpande\Documents\GitHub\microsemi-huawei-liteos\microsemi-liteos\mscc-huawei-wsp\sc-gd450i-board-test\Debug/../kernel/base/core/los_task.c:302
 Input       : None
 Output      : None
 Return      : LOS_OK on success or error code on failure
 *****************************************************************************/
LITE_OS_SEC_TEXT_INIT UINT32 osIdleTaskCreate(VOID)
{
20002a34:	b580      	push	{r7, lr}
20002a36:	b08a      	sub	sp, #40	; 0x28
20002a38:	af00      	add	r7, sp, #0
C:\Users\nitin.deshpande\Documents\GitHub\microsemi-huawei-liteos\microsemi-liteos\mscc-huawei-wsp\sc-gd450i-board-test\Debug/../kernel/base/core/los_task.c:306
    UINT32 uwRet;
    TSK_INIT_PARAM_S stTaskInitParam;

    (VOID)memset((void *)(&stTaskInitParam), 0, sizeof(TSK_INIT_PARAM_S));
20002a3a:	463b      	mov	r3, r7
20002a3c:	2224      	movs	r2, #36	; 0x24
20002a3e:	2100      	movs	r1, #0
20002a40:	4618      	mov	r0, r3
20002a42:	f001 fc39 	bl	200042b8 <memset>
C:\Users\nitin.deshpande\Documents\GitHub\microsemi-huawei-liteos\microsemi-liteos\mscc-huawei-wsp\sc-gd450i-board-test\Debug/../kernel/base/core/los_task.c:307
    stTaskInitParam.pfnTaskEntry = (TSK_ENTRY_FUNC)osIdleTask;
20002a46:	4b0c      	ldr	r3, [pc, #48]	; (20002a78 <osIdleTaskCreate+0x44>)
20002a48:	603b      	str	r3, [r7, #0]
C:\Users\nitin.deshpande\Documents\GitHub\microsemi-huawei-liteos\microsemi-liteos\mscc-huawei-wsp\sc-gd450i-board-test\Debug/../kernel/base/core/los_task.c:308
    stTaskInitParam.uwStackSize = LOSCFG_BASE_CORE_TSK_IDLE_STACK_SIZE;
20002a4a:	f44f 63a0 	mov.w	r3, #1280	; 0x500
20002a4e:	61bb      	str	r3, [r7, #24]
C:\Users\nitin.deshpande\Documents\GitHub\microsemi-huawei-liteos\microsemi-liteos\mscc-huawei-wsp\sc-gd450i-board-test\Debug/../kernel/base/core/los_task.c:309
    stTaskInitParam.pcName = "IdleCore000";
20002a50:	4b0a      	ldr	r3, [pc, #40]	; (20002a7c <osIdleTaskCreate+0x48>)
20002a52:	61fb      	str	r3, [r7, #28]
C:\Users\nitin.deshpande\Documents\GitHub\microsemi-huawei-liteos\microsemi-liteos\mscc-huawei-wsp\sc-gd450i-board-test\Debug/../kernel/base/core/los_task.c:310
    stTaskInitParam.usTaskPrio = OS_TASK_PRIORITY_LOWEST;
20002a54:	231f      	movs	r3, #31
20002a56:	80bb      	strh	r3, [r7, #4]
C:\Users\nitin.deshpande\Documents\GitHub\microsemi-huawei-liteos\microsemi-liteos\mscc-huawei-wsp\sc-gd450i-board-test\Debug/../kernel/base/core/los_task.c:311
    uwRet = LOS_TaskCreate(&g_uwIdleTaskID, &stTaskInitParam);
20002a58:	463b      	mov	r3, r7
20002a5a:	4619      	mov	r1, r3
20002a5c:	4808      	ldr	r0, [pc, #32]	; (20002a80 <osIdleTaskCreate+0x4c>)
20002a5e:	f000 fa41 	bl	20002ee4 <LOS_TaskCreate>
20002a62:	6278      	str	r0, [r7, #36]	; 0x24
C:\Users\nitin.deshpande\Documents\GitHub\microsemi-huawei-liteos\microsemi-liteos\mscc-huawei-wsp\sc-gd450i-board-test\Debug/../kernel/base/core/los_task.c:313

    if (uwRet != LOS_OK)
20002a64:	6a7b      	ldr	r3, [r7, #36]	; 0x24
20002a66:	2b00      	cmp	r3, #0
20002a68:	d001      	beq.n	20002a6e <osIdleTaskCreate+0x3a>
C:\Users\nitin.deshpande\Documents\GitHub\microsemi-huawei-liteos\microsemi-liteos\mscc-huawei-wsp\sc-gd450i-board-test\Debug/../kernel/base/core/los_task.c:315
    {
        return uwRet;
20002a6a:	6a7b      	ldr	r3, [r7, #36]	; 0x24
20002a6c:	e000      	b.n	20002a70 <osIdleTaskCreate+0x3c>
C:\Users\nitin.deshpande\Documents\GitHub\microsemi-huawei-liteos\microsemi-liteos\mscc-huawei-wsp\sc-gd450i-board-test\Debug/../kernel/base/core/los_task.c:318
    }

    return LOS_OK;
20002a6e:	2300      	movs	r3, #0
C:\Users\nitin.deshpande\Documents\GitHub\microsemi-huawei-liteos\microsemi-liteos\mscc-huawei-wsp\sc-gd450i-board-test\Debug/../kernel/base/core/los_task.c:319 (discriminator 1)
}
20002a70:	4618      	mov	r0, r3
20002a72:	3728      	adds	r7, #40	; 0x28
20002a74:	46bd      	mov	sp, r7
20002a76:	bd80      	pop	{r7, pc}
20002a78:	2000260d 	.word	0x2000260d
20002a7c:	2000430c 	.word	0x2000430c
20002a80:	20004948 	.word	0x20004948

20002a84 <osTaskSelfDelete>:
osTaskSelfDelete():
C:\Users\nitin.deshpande\Documents\GitHub\microsemi-huawei-liteos\microsemi-liteos\mscc-huawei-wsp\sc-gd450i-board-test\Debug/../kernel/base/core/los_task.c:346
                 uvIntSave   --- interrupt flag
 Output      : None
 Return      : LOS_OK on success or error code on failure
 *****************************************************************************/
LITE_OS_SEC_TEXT_INIT UINT32 osTaskSelfDelete(UINT32 uwTaskID, UINTPTR uvIntSave)
{
20002a84:	b580      	push	{r7, lr}
20002a86:	b084      	sub	sp, #16
20002a88:	af00      	add	r7, sp, #0
20002a8a:	6078      	str	r0, [r7, #4]
20002a8c:	6039      	str	r1, [r7, #0]
C:\Users\nitin.deshpande\Documents\GitHub\microsemi-huawei-liteos\microsemi-liteos\mscc-huawei-wsp\sc-gd450i-board-test\Debug/../kernel/base/core/los_task.c:350
    LOS_TASK_CB *pstTaskCB;
    UINT16 usTempStatus;

    pstTaskCB = OS_TCB_FROM_TID(uwTaskID);
20002a8e:	4b4d      	ldr	r3, [pc, #308]	; (20002bc4 <osTaskSelfDelete+0x140>)
20002a90:	681a      	ldr	r2, [r3, #0]
20002a92:	687b      	ldr	r3, [r7, #4]
20002a94:	2168      	movs	r1, #104	; 0x68
20002a96:	fb01 f303 	mul.w	r3, r1, r3
20002a9a:	4413      	add	r3, r2
20002a9c:	60fb      	str	r3, [r7, #12]
C:\Users\nitin.deshpande\Documents\GitHub\microsemi-huawei-liteos\microsemi-liteos\mscc-huawei-wsp\sc-gd450i-board-test\Debug/../kernel/base/core/los_task.c:351
    usTempStatus = pstTaskCB->usTaskStatus;
20002a9e:	68fb      	ldr	r3, [r7, #12]
20002aa0:	889b      	ldrh	r3, [r3, #4]
20002aa2:	817b      	strh	r3, [r7, #10]
C:\Users\nitin.deshpande\Documents\GitHub\microsemi-huawei-liteos\microsemi-liteos\mscc-huawei-wsp\sc-gd450i-board-test\Debug/../kernel/base/core/los_task.c:352
    if (OS_TASK_STATUS_READY & usTempStatus)
20002aa4:	897b      	ldrh	r3, [r7, #10]
20002aa6:	f003 0304 	and.w	r3, r3, #4
20002aaa:	b29b      	uxth	r3, r3
20002aac:	2b00      	cmp	r3, #0
20002aae:	d00c      	beq.n	20002aca <osTaskSelfDelete+0x46>
C:\Users\nitin.deshpande\Documents\GitHub\microsemi-huawei-liteos\microsemi-liteos\mscc-huawei-wsp\sc-gd450i-board-test\Debug/../kernel/base/core/los_task.c:354
    {
        LOS_PriqueueDequeue(&pstTaskCB->stPendList);
20002ab0:	68fb      	ldr	r3, [r7, #12]
20002ab2:	333c      	adds	r3, #60	; 0x3c
20002ab4:	4618      	mov	r0, r3
20002ab6:	f7ff fb39 	bl	2000212c <LOS_PriqueueDequeue>
C:\Users\nitin.deshpande\Documents\GitHub\microsemi-huawei-liteos\microsemi-liteos\mscc-huawei-wsp\sc-gd450i-board-test\Debug/../kernel/base/core/los_task.c:355
        pstTaskCB->usTaskStatus &= (~OS_TASK_STATUS_READY);
20002aba:	68fb      	ldr	r3, [r7, #12]
20002abc:	889b      	ldrh	r3, [r3, #4]
20002abe:	f023 0304 	bic.w	r3, r3, #4
20002ac2:	b29a      	uxth	r2, r3
20002ac4:	68fb      	ldr	r3, [r7, #12]
20002ac6:	809a      	strh	r2, [r3, #4]
20002ac8:	e017      	b.n	20002afa <osTaskSelfDelete+0x76>
C:\Users\nitin.deshpande\Documents\GitHub\microsemi-huawei-liteos\microsemi-liteos\mscc-huawei-wsp\sc-gd450i-board-test\Debug/../kernel/base/core/los_task.c:357
    }
    else if ((OS_TASK_STATUS_PEND | OS_TASK_STATUS_PEND_QUEUE) & usTempStatus)
20002aca:	897b      	ldrh	r3, [r7, #10]
20002acc:	f423 53ff 	bic.w	r3, r3, #8160	; 0x1fe0
20002ad0:	f023 0317 	bic.w	r3, r3, #23
20002ad4:	049b      	lsls	r3, r3, #18
20002ad6:	0c9b      	lsrs	r3, r3, #18
20002ad8:	b29b      	uxth	r3, r3
20002ada:	2b00      	cmp	r3, #0
20002adc:	d00d      	beq.n	20002afa <osTaskSelfDelete+0x76>
C:\Users\nitin.deshpande\Documents\GitHub\microsemi-huawei-liteos\microsemi-liteos\mscc-huawei-wsp\sc-gd450i-board-test\Debug/../kernel/base/core/los_task.c:359
    {
        LOS_ListDelete(&pstTaskCB->stPendList);
20002ade:	68fb      	ldr	r3, [r7, #12]
20002ae0:	333c      	adds	r3, #60	; 0x3c
20002ae2:	4618      	mov	r0, r3
20002ae4:	f7ff fd66 	bl	200025b4 <LOS_ListDelete>
C:\Users\nitin.deshpande\Documents\GitHub\microsemi-huawei-liteos\microsemi-liteos\mscc-huawei-wsp\sc-gd450i-board-test\Debug/../kernel/base/core/los_task.c:360
        if ((OS_TASK_STATUS_DELAY | OS_TASK_STATUS_TIMEOUT) & usTempStatus)
20002ae8:	897b      	ldrh	r3, [r7, #10]
20002aea:	f003 0360 	and.w	r3, r3, #96	; 0x60
20002aee:	b29b      	uxth	r3, r3
20002af0:	2b00      	cmp	r3, #0
20002af2:	d002      	beq.n	20002afa <osTaskSelfDelete+0x76>
C:\Users\nitin.deshpande\Documents\GitHub\microsemi-huawei-liteos\microsemi-liteos\mscc-huawei-wsp\sc-gd450i-board-test\Debug/../kernel/base/core/los_task.c:362
        {
            osTimerListDelete(pstTaskCB);
20002af4:	68f8      	ldr	r0, [r7, #12]
20002af6:	f7ff fe15 	bl	20002724 <osTimerListDelete>
C:\Users\nitin.deshpande\Documents\GitHub\microsemi-huawei-liteos\microsemi-liteos\mscc-huawei-wsp\sc-gd450i-board-test\Debug/../kernel/base/core/los_task.c:366
        }
    }

    pstTaskCB->usTaskStatus &= (~(OS_TASK_STATUS_SUSPEND));
20002afa:	68fb      	ldr	r3, [r7, #12]
20002afc:	889b      	ldrh	r3, [r3, #4]
20002afe:	f023 0302 	bic.w	r3, r3, #2
20002b02:	b29a      	uxth	r2, r3
20002b04:	68fb      	ldr	r3, [r7, #12]
20002b06:	809a      	strh	r2, [r3, #4]
C:\Users\nitin.deshpande\Documents\GitHub\microsemi-huawei-liteos\microsemi-liteos\mscc-huawei-wsp\sc-gd450i-board-test\Debug/../kernel/base/core/los_task.c:367
    pstTaskCB->usTaskStatus |= OS_TASK_STATUS_UNUSED;
20002b08:	68fb      	ldr	r3, [r7, #12]
20002b0a:	889b      	ldrh	r3, [r3, #4]
20002b0c:	f043 0301 	orr.w	r3, r3, #1
20002b10:	b29a      	uxth	r2, r3
20002b12:	68fb      	ldr	r3, [r7, #12]
20002b14:	809a      	strh	r2, [r3, #4]
C:\Users\nitin.deshpande\Documents\GitHub\microsemi-huawei-liteos\microsemi-liteos\mscc-huawei-wsp\sc-gd450i-board-test\Debug/../kernel/base/core/los_task.c:368
    pstTaskCB->uwEvent.uwEventID = 0xFFFFFFFF;
20002b16:	68fb      	ldr	r3, [r7, #12]
20002b18:	f04f 32ff 	mov.w	r2, #4294967295
20002b1c:	651a      	str	r2, [r3, #80]	; 0x50
C:\Users\nitin.deshpande\Documents\GitHub\microsemi-huawei-liteos\microsemi-liteos\mscc-huawei-wsp\sc-gd450i-board-test\Debug/../kernel/base/core/los_task.c:369
    pstTaskCB->uwEventMask = 0;
20002b1e:	68fb      	ldr	r3, [r7, #12]
20002b20:	2200      	movs	r2, #0
20002b22:	65da      	str	r2, [r3, #92]	; 0x5c
C:\Users\nitin.deshpande\Documents\GitHub\microsemi-huawei-liteos\microsemi-liteos\mscc-huawei-wsp\sc-gd450i-board-test\Debug/../kernel/base/core/los_task.c:371

    g_stLosTask.pstNewTask = LOS_DL_LIST_ENTRY(LOS_PriqueueTop(), LOS_TASK_CB, stPendList); /*lint !e413*/
20002b24:	f7ff fb0e 	bl	20002144 <LOS_PriqueueTop>
20002b28:	4603      	mov	r3, r0
20002b2a:	3b3c      	subs	r3, #60	; 0x3c
20002b2c:	4a26      	ldr	r2, [pc, #152]	; (20002bc8 <osTaskSelfDelete+0x144>)
20002b2e:	6053      	str	r3, [r2, #4]
C:\Users\nitin.deshpande\Documents\GitHub\microsemi-huawei-liteos\microsemi-liteos\mscc-huawei-wsp\sc-gd450i-board-test\Debug/../kernel/base/core/los_task.c:372
    if (OS_TASK_STATUS_RUNNING & pstTaskCB->usTaskStatus)
20002b30:	68fb      	ldr	r3, [r7, #12]
20002b32:	889b      	ldrh	r3, [r3, #4]
20002b34:	f003 0310 	and.w	r3, r3, #16
20002b38:	b29b      	uxth	r3, r3
20002b3a:	2b00      	cmp	r3, #0
20002b3c:	d02c      	beq.n	20002b98 <osTaskSelfDelete+0x114>
C:\Users\nitin.deshpande\Documents\GitHub\microsemi-huawei-liteos\microsemi-liteos\mscc-huawei-wsp\sc-gd450i-board-test\Debug/../kernel/base/core/los_task.c:374
    {
        LOS_ListTailInsert(&g_stTskRecyleList, &pstTaskCB->stPendList);
20002b3e:	68fb      	ldr	r3, [r7, #12]
20002b40:	333c      	adds	r3, #60	; 0x3c
20002b42:	4619      	mov	r1, r3
20002b44:	4821      	ldr	r0, [pc, #132]	; (20002bcc <osTaskSelfDelete+0x148>)
20002b46:	f7ff fd26 	bl	20002596 <LOS_ListTailInsert>
C:\Users\nitin.deshpande\Documents\GitHub\microsemi-huawei-liteos\microsemi-liteos\mscc-huawei-wsp\sc-gd450i-board-test\Debug/../kernel/base/core/los_task.c:375
        g_stLosTask.pstRunTask = &g_pstTaskCBArray[g_uwTskMaxNum];
20002b4a:	4b1e      	ldr	r3, [pc, #120]	; (20002bc4 <osTaskSelfDelete+0x140>)
20002b4c:	681a      	ldr	r2, [r3, #0]
20002b4e:	4b20      	ldr	r3, [pc, #128]	; (20002bd0 <osTaskSelfDelete+0x14c>)
20002b50:	681b      	ldr	r3, [r3, #0]
20002b52:	2168      	movs	r1, #104	; 0x68
20002b54:	fb01 f303 	mul.w	r3, r1, r3
20002b58:	4413      	add	r3, r2
20002b5a:	4a1b      	ldr	r2, [pc, #108]	; (20002bc8 <osTaskSelfDelete+0x144>)
20002b5c:	6013      	str	r3, [r2, #0]
C:\Users\nitin.deshpande\Documents\GitHub\microsemi-huawei-liteos\microsemi-liteos\mscc-huawei-wsp\sc-gd450i-board-test\Debug/../kernel/base/core/los_task.c:376
        g_stLosTask.pstRunTask->uwTaskID = uwTaskID;
20002b5e:	4b1a      	ldr	r3, [pc, #104]	; (20002bc8 <osTaskSelfDelete+0x144>)
20002b60:	681b      	ldr	r3, [r3, #0]
20002b62:	687a      	ldr	r2, [r7, #4]
20002b64:	611a      	str	r2, [r3, #16]
C:\Users\nitin.deshpande\Documents\GitHub\microsemi-huawei-liteos\microsemi-liteos\mscc-huawei-wsp\sc-gd450i-board-test\Debug/../kernel/base/core/los_task.c:377
        g_stLosTask.pstRunTask->usTaskStatus = pstTaskCB->usTaskStatus;
20002b66:	4b18      	ldr	r3, [pc, #96]	; (20002bc8 <osTaskSelfDelete+0x144>)
20002b68:	681b      	ldr	r3, [r3, #0]
20002b6a:	68fa      	ldr	r2, [r7, #12]
20002b6c:	8892      	ldrh	r2, [r2, #4]
20002b6e:	809a      	strh	r2, [r3, #4]
C:\Users\nitin.deshpande\Documents\GitHub\microsemi-huawei-liteos\microsemi-liteos\mscc-huawei-wsp\sc-gd450i-board-test\Debug/../kernel/base/core/los_task.c:378
        g_stLosTask.pstRunTask->uwTopOfStack = pstTaskCB->uwTopOfStack;
20002b70:	4b15      	ldr	r3, [pc, #84]	; (20002bc8 <osTaskSelfDelete+0x144>)
20002b72:	681b      	ldr	r3, [r3, #0]
20002b74:	68fa      	ldr	r2, [r7, #12]
20002b76:	68d2      	ldr	r2, [r2, #12]
20002b78:	60da      	str	r2, [r3, #12]
C:\Users\nitin.deshpande\Documents\GitHub\microsemi-huawei-liteos\microsemi-liteos\mscc-huawei-wsp\sc-gd450i-board-test\Debug/../kernel/base/core/los_task.c:379
        g_stLosTask.pstRunTask->pcTaskName = pstTaskCB->pcTaskName;
20002b7a:	4b13      	ldr	r3, [pc, #76]	; (20002bc8 <osTaskSelfDelete+0x144>)
20002b7c:	681b      	ldr	r3, [r3, #0]
20002b7e:	68fa      	ldr	r2, [r7, #12]
20002b80:	6b92      	ldr	r2, [r2, #56]	; 0x38
20002b82:	639a      	str	r2, [r3, #56]	; 0x38
C:\Users\nitin.deshpande\Documents\GitHub\microsemi-huawei-liteos\microsemi-liteos\mscc-huawei-wsp\sc-gd450i-board-test\Debug/../kernel/base/core/los_task.c:380
        pstTaskCB->usTaskStatus = OS_TASK_STATUS_UNUSED;
20002b84:	68fb      	ldr	r3, [r7, #12]
20002b86:	2201      	movs	r2, #1
20002b88:	809a      	strh	r2, [r3, #4]
C:\Users\nitin.deshpande\Documents\GitHub\microsemi-huawei-liteos\microsemi-liteos\mscc-huawei-wsp\sc-gd450i-board-test\Debug/../kernel/base/core/los_task.c:381
        (VOID)LOS_IntRestore(uvIntSave);
20002b8a:	6838      	ldr	r0, [r7, #0]
20002b8c:	f7fd fc3f 	bl	2000040e <LOS_IntRestore>
C:\Users\nitin.deshpande\Documents\GitHub\microsemi-huawei-liteos\microsemi-liteos\mscc-huawei-wsp\sc-gd450i-board-test\Debug/../kernel/base/core/los_task.c:382
        osSchedule();
20002b90:	f7fd fc90 	bl	200004b4 <osSchedule>
C:\Users\nitin.deshpande\Documents\GitHub\microsemi-huawei-liteos\microsemi-liteos\mscc-huawei-wsp\sc-gd450i-board-test\Debug/../kernel/base/core/los_task.c:383
        return LOS_OK;
20002b94:	2300      	movs	r3, #0
20002b96:	e011      	b.n	20002bbc <osTaskSelfDelete+0x138>
C:\Users\nitin.deshpande\Documents\GitHub\microsemi-huawei-liteos\microsemi-liteos\mscc-huawei-wsp\sc-gd450i-board-test\Debug/../kernel/base/core/los_task.c:385
    }
    else if (OS_TASK_STATUS_UNUSED & pstTaskCB->usTaskStatus)
20002b98:	68fb      	ldr	r3, [r7, #12]
20002b9a:	889b      	ldrh	r3, [r3, #4]
20002b9c:	f003 0301 	and.w	r3, r3, #1
20002ba0:	b29b      	uxth	r3, r3
20002ba2:	2b00      	cmp	r3, #0
20002ba4:	d006      	beq.n	20002bb4 <osTaskSelfDelete+0x130>
C:\Users\nitin.deshpande\Documents\GitHub\microsemi-huawei-liteos\microsemi-liteos\mscc-huawei-wsp\sc-gd450i-board-test\Debug/../kernel/base/core/los_task.c:387
    {
        (VOID)LOS_IntRestore(uvIntSave);
20002ba6:	6838      	ldr	r0, [r7, #0]
20002ba8:	f7fd fc31 	bl	2000040e <LOS_IntRestore>
C:\Users\nitin.deshpande\Documents\GitHub\microsemi-huawei-liteos\microsemi-liteos\mscc-huawei-wsp\sc-gd450i-board-test\Debug/../kernel/base/core/los_task.c:388
        osSchedule();
20002bac:	f7fd fc82 	bl	200004b4 <osSchedule>
C:\Users\nitin.deshpande\Documents\GitHub\microsemi-huawei-liteos\microsemi-liteos\mscc-huawei-wsp\sc-gd450i-board-test\Debug/../kernel/base/core/los_task.c:389
        return LOS_OK;
20002bb0:	2300      	movs	r3, #0
20002bb2:	e003      	b.n	20002bbc <osTaskSelfDelete+0x138>
C:\Users\nitin.deshpande\Documents\GitHub\microsemi-huawei-liteos\microsemi-liteos\mscc-huawei-wsp\sc-gd450i-board-test\Debug/../kernel/base/core/los_task.c:392
    }

    (VOID)LOS_IntRestore(uvIntSave);
20002bb4:	6838      	ldr	r0, [r7, #0]
20002bb6:	f7fd fc2a 	bl	2000040e <LOS_IntRestore>
C:\Users\nitin.deshpande\Documents\GitHub\microsemi-huawei-liteos\microsemi-liteos\mscc-huawei-wsp\sc-gd450i-board-test\Debug/../kernel/base/core/los_task.c:393
    return LOS_OK;
20002bba:	2300      	movs	r3, #0
C:\Users\nitin.deshpande\Documents\GitHub\microsemi-huawei-liteos\microsemi-liteos\mscc-huawei-wsp\sc-gd450i-board-test\Debug/../kernel/base/core/los_task.c:394
}
20002bbc:	4618      	mov	r0, r3
20002bbe:	3710      	adds	r7, #16
20002bc0:	46bd      	mov	sp, r7
20002bc2:	bd80      	pop	{r7, pc}
20002bc4:	20004960 	.word	0x20004960
20002bc8:	2000496c 	.word	0x2000496c
20002bcc:	20004950 	.word	0x20004950
20002bd0:	20004964 	.word	0x20004964

20002bd4 <osTaskEntry>:
osTaskEntry():
C:\Users\nitin.deshpande\Documents\GitHub\microsemi-huawei-liteos\microsemi-liteos\mscc-huawei-wsp\sc-gd450i-board-test\Debug/../kernel/base/core/los_task.c:404
 Input       : uwTaskID     --- The ID of the task to be run
 Output      : None
 Return      : None
 *****************************************************************************/
LITE_OS_SEC_TEXT_INIT VOID osTaskEntry(UINT32 uwTaskID)
{
20002bd4:	b590      	push	{r4, r7, lr}
20002bd6:	b085      	sub	sp, #20
20002bd8:	af00      	add	r7, sp, #0
20002bda:	6078      	str	r0, [r7, #4]
C:\Users\nitin.deshpande\Documents\GitHub\microsemi-huawei-liteos\microsemi-liteos\mscc-huawei-wsp\sc-gd450i-board-test\Debug/../kernel/base/core/los_task.c:410
    LOS_TASK_CB *pstTaskCB;
    UINT32 uwIntSave;

    OS_TASK_ID_CHECK(uwTaskID);

    pstTaskCB = OS_TCB_FROM_TID(uwTaskID);
20002bdc:	4b35      	ldr	r3, [pc, #212]	; (20002cb4 <osTaskEntry+0xe0>)
20002bde:	681a      	ldr	r2, [r3, #0]
20002be0:	687b      	ldr	r3, [r7, #4]
20002be2:	2168      	movs	r1, #104	; 0x68
20002be4:	fb01 f303 	mul.w	r3, r1, r3
20002be8:	4413      	add	r3, r2
20002bea:	60fb      	str	r3, [r7, #12]
C:\Users\nitin.deshpande\Documents\GitHub\microsemi-huawei-liteos\microsemi-liteos\mscc-huawei-wsp\sc-gd450i-board-test\Debug/../kernel/base/core/los_task.c:411
    if (pstTaskCB->pThreadJoin)
20002bec:	68fb      	ldr	r3, [r7, #12]
20002bee:	69db      	ldr	r3, [r3, #28]
20002bf0:	2b00      	cmp	r3, #0
20002bf2:	d00e      	beq.n	20002c12 <osTaskEntry+0x3e>
C:\Users\nitin.deshpande\Documents\GitHub\microsemi-huawei-liteos\microsemi-liteos\mscc-huawei-wsp\sc-gd450i-board-test\Debug/../kernel/base/core/los_task.c:413
    {
        pstTaskCB->pThreadJoinRetval =  pstTaskCB->pfnTaskEntry( pstTaskCB->auwArgs[0],
20002bf4:	68fb      	ldr	r3, [r7, #12]
20002bf6:	695c      	ldr	r4, [r3, #20]
20002bf8:	68fb      	ldr	r3, [r7, #12]
20002bfa:	6a98      	ldr	r0, [r3, #40]	; 0x28
20002bfc:	68fb      	ldr	r3, [r7, #12]
20002bfe:	6ad9      	ldr	r1, [r3, #44]	; 0x2c
20002c00:	68fb      	ldr	r3, [r7, #12]
20002c02:	6b1a      	ldr	r2, [r3, #48]	; 0x30
20002c04:	68fb      	ldr	r3, [r7, #12]
20002c06:	6b5b      	ldr	r3, [r3, #52]	; 0x34
20002c08:	47a0      	blx	r4
20002c0a:	4602      	mov	r2, r0
20002c0c:	68fb      	ldr	r3, [r7, #12]
20002c0e:	621a      	str	r2, [r3, #32]
20002c10:	e00a      	b.n	20002c28 <osTaskEntry+0x54>
C:\Users\nitin.deshpande\Documents\GitHub\microsemi-huawei-liteos\microsemi-liteos\mscc-huawei-wsp\sc-gd450i-board-test\Debug/../kernel/base/core/los_task.c:420
                                        pstTaskCB->auwArgs[2],
                                        pstTaskCB->auwArgs[3]);
    }
    else
    {
        pstTaskCB->pfnTaskEntry( pstTaskCB->auwArgs[0],
20002c12:	68fb      	ldr	r3, [r7, #12]
20002c14:	695c      	ldr	r4, [r3, #20]
20002c16:	68fb      	ldr	r3, [r7, #12]
20002c18:	6a98      	ldr	r0, [r3, #40]	; 0x28
20002c1a:	68fb      	ldr	r3, [r7, #12]
20002c1c:	6ad9      	ldr	r1, [r3, #44]	; 0x2c
20002c1e:	68fb      	ldr	r3, [r7, #12]
20002c20:	6b1a      	ldr	r2, [r3, #48]	; 0x30
20002c22:	68fb      	ldr	r3, [r7, #12]
20002c24:	6b5b      	ldr	r3, [r3, #52]	; 0x34
20002c26:	47a0      	blx	r4
C:\Users\nitin.deshpande\Documents\GitHub\microsemi-huawei-liteos\microsemi-liteos\mscc-huawei-wsp\sc-gd450i-board-test\Debug/../kernel/base/core/los_task.c:426
                                 pstTaskCB->auwArgs[1],
                                 pstTaskCB->auwArgs[2],
                                 pstTaskCB->auwArgs[3]);    /*lint !e534*/
    }

    if (pstTaskCB->usTaskStatus & LOS_TASK_STATUS_DETACHED)
20002c28:	68fb      	ldr	r3, [r7, #12]
20002c2a:	889b      	ldrh	r3, [r3, #4]
20002c2c:	f003 0380 	and.w	r3, r3, #128	; 0x80
20002c30:	2b00      	cmp	r3, #0
20002c32:	d00c      	beq.n	20002c4e <osTaskEntry+0x7a>
C:\Users\nitin.deshpande\Documents\GitHub\microsemi-huawei-liteos\microsemi-liteos\mscc-huawei-wsp\sc-gd450i-board-test\Debug/../kernel/base/core/los_task.c:428
    {
        uwIntSave = LOS_IntLock();
20002c34:	f7fd fbe3 	bl	200003fe <LOS_IntLock>
20002c38:	60b8      	str	r0, [r7, #8]
C:\Users\nitin.deshpande\Documents\GitHub\microsemi-huawei-liteos\microsemi-liteos\mscc-huawei-wsp\sc-gd450i-board-test\Debug/../kernel/base/core/los_task.c:429
        g_usLosTaskLock = 0;
20002c3a:	4b1f      	ldr	r3, [pc, #124]	; (20002cb8 <osTaskEntry+0xe4>)
20002c3c:	2200      	movs	r2, #0
20002c3e:	801a      	strh	r2, [r3, #0]
C:\Users\nitin.deshpande\Documents\GitHub\microsemi-huawei-liteos\microsemi-liteos\mscc-huawei-wsp\sc-gd450i-board-test\Debug/../kernel/base/core/los_task.c:430
        (VOID)osTaskSelfDelete(pstTaskCB->uwTaskID, uwIntSave);
20002c40:	68fb      	ldr	r3, [r7, #12]
20002c42:	691b      	ldr	r3, [r3, #16]
20002c44:	68b9      	ldr	r1, [r7, #8]
20002c46:	4618      	mov	r0, r3
20002c48:	f7ff ff1c 	bl	20002a84 <osTaskSelfDelete>
C:\Users\nitin.deshpande\Documents\GitHub\microsemi-huawei-liteos\microsemi-liteos\mscc-huawei-wsp\sc-gd450i-board-test\Debug/../kernel/base/core/los_task.c:458
        }
        LOS_TaskUnlock();
        LOS_Schedule();
    }

}
20002c4c:	e02e      	b.n	20002cac <osTaskEntry+0xd8>
C:\Users\nitin.deshpande\Documents\GitHub\microsemi-huawei-liteos\microsemi-liteos\mscc-huawei-wsp\sc-gd450i-board-test\Debug/../kernel/base/core/los_task.c:435
        uwIntSave = LOS_IntLock();
20002c4e:	f7fd fbd6 	bl	200003fe <LOS_IntLock>
20002c52:	60b8      	str	r0, [r7, #8]
C:\Users\nitin.deshpande\Documents\GitHub\microsemi-huawei-liteos\microsemi-liteos\mscc-huawei-wsp\sc-gd450i-board-test\Debug/../kernel/base/core/los_task.c:436
        g_usLosTaskLock = 0;
20002c54:	4b18      	ldr	r3, [pc, #96]	; (20002cb8 <osTaskEntry+0xe4>)
20002c56:	2200      	movs	r2, #0
20002c58:	801a      	strh	r2, [r3, #0]
C:\Users\nitin.deshpande\Documents\GitHub\microsemi-huawei-liteos\microsemi-liteos\mscc-huawei-wsp\sc-gd450i-board-test\Debug/../kernel/base/core/los_task.c:437
        (VOID)LOS_IntRestore(uwIntSave);
20002c5a:	68b8      	ldr	r0, [r7, #8]
20002c5c:	f7fd fbd7 	bl	2000040e <LOS_IntRestore>
C:\Users\nitin.deshpande\Documents\GitHub\microsemi-huawei-liteos\microsemi-liteos\mscc-huawei-wsp\sc-gd450i-board-test\Debug/../kernel/base/core/los_task.c:439
        LOS_TaskLock();
20002c60:	f000 fa3c 	bl	200030dc <LOS_TaskLock>
C:\Users\nitin.deshpande\Documents\GitHub\microsemi-huawei-liteos\microsemi-liteos\mscc-huawei-wsp\sc-gd450i-board-test\Debug/../kernel/base/core/los_task.c:440
        if (pstTaskCB->pThreadJoin)
20002c64:	68fb      	ldr	r3, [r7, #12]
20002c66:	69db      	ldr	r3, [r3, #28]
20002c68:	2b00      	cmp	r3, #0
20002c6a:	d008      	beq.n	20002c7e <osTaskEntry+0xaa>
C:\Users\nitin.deshpande\Documents\GitHub\microsemi-huawei-liteos\microsemi-liteos\mscc-huawei-wsp\sc-gd450i-board-test\Debug/../kernel/base/core/los_task.c:442
            if (LOS_SemPost((UINT32)(((SEM_CB_S *)pstTaskCB->pThreadJoin)->usSemID)) != LOS_OK)
20002c6c:	68fb      	ldr	r3, [r7, #12]
20002c6e:	69db      	ldr	r3, [r3, #28]
20002c70:	685b      	ldr	r3, [r3, #4]
20002c72:	4618      	mov	r0, r3
20002c74:	f7ff f92e 	bl	20001ed4 <LOS_SemPost>
C:\Users\nitin.deshpande\Documents\GitHub\microsemi-huawei-liteos\microsemi-liteos\mscc-huawei-wsp\sc-gd450i-board-test\Debug/../kernel/base/core/los_task.c:446
            pstTaskCB->pThreadJoin = NULL;
20002c78:	68fb      	ldr	r3, [r7, #12]
20002c7a:	2200      	movs	r2, #0
20002c7c:	61da      	str	r2, [r3, #28]
C:\Users\nitin.deshpande\Documents\GitHub\microsemi-huawei-liteos\microsemi-liteos\mscc-huawei-wsp\sc-gd450i-board-test\Debug/../kernel/base/core/los_task.c:449
        if (OS_TASK_STATUS_READY & pstTaskCB->usTaskStatus)
20002c7e:	68fb      	ldr	r3, [r7, #12]
20002c80:	889b      	ldrh	r3, [r3, #4]
20002c82:	f003 0304 	and.w	r3, r3, #4
20002c86:	b29b      	uxth	r3, r3
20002c88:	2b00      	cmp	r3, #0
20002c8a:	d00b      	beq.n	20002ca4 <osTaskEntry+0xd0>
C:\Users\nitin.deshpande\Documents\GitHub\microsemi-huawei-liteos\microsemi-liteos\mscc-huawei-wsp\sc-gd450i-board-test\Debug/../kernel/base/core/los_task.c:451
            LOS_PriqueueDequeue(&pstTaskCB->stPendList);
20002c8c:	68fb      	ldr	r3, [r7, #12]
20002c8e:	333c      	adds	r3, #60	; 0x3c
20002c90:	4618      	mov	r0, r3
20002c92:	f7ff fa4b 	bl	2000212c <LOS_PriqueueDequeue>
C:\Users\nitin.deshpande\Documents\GitHub\microsemi-huawei-liteos\microsemi-liteos\mscc-huawei-wsp\sc-gd450i-board-test\Debug/../kernel/base/core/los_task.c:452
            pstTaskCB->usTaskStatus &= (~OS_TASK_STATUS_READY);
20002c96:	68fb      	ldr	r3, [r7, #12]
20002c98:	889b      	ldrh	r3, [r3, #4]
20002c9a:	f023 0304 	bic.w	r3, r3, #4
20002c9e:	b29a      	uxth	r2, r3
20002ca0:	68fb      	ldr	r3, [r7, #12]
20002ca2:	809a      	strh	r2, [r3, #4]
C:\Users\nitin.deshpande\Documents\GitHub\microsemi-huawei-liteos\microsemi-liteos\mscc-huawei-wsp\sc-gd450i-board-test\Debug/../kernel/base/core/los_task.c:454
        LOS_TaskUnlock();
20002ca4:	f000 fa30 	bl	20003108 <LOS_TaskUnlock>
C:\Users\nitin.deshpande\Documents\GitHub\microsemi-huawei-liteos\microsemi-liteos\mscc-huawei-wsp\sc-gd450i-board-test\Debug/../kernel/base/core/los_task.c:455
        LOS_Schedule();
20002ca8:	f7fd fc0a 	bl	200004c0 <LOS_Schedule>
C:\Users\nitin.deshpande\Documents\GitHub\microsemi-huawei-liteos\microsemi-liteos\mscc-huawei-wsp\sc-gd450i-board-test\Debug/../kernel/base/core/los_task.c:458
}
20002cac:	bf00      	nop
20002cae:	3714      	adds	r7, #20
20002cb0:	46bd      	mov	sp, r7
20002cb2:	bd90      	pop	{r4, r7, pc}
20002cb4:	20004960 	.word	0x20004960
20002cb8:	20004968 	.word	0x20004968

20002cbc <LOS_TaskCreateOnly>:
LOS_TaskCreateOnly():
C:\Users\nitin.deshpande\Documents\GitHub\microsemi-huawei-liteos\microsemi-liteos\mscc-huawei-wsp\sc-gd450i-board-test\Debug/../kernel/base/core/los_task.c:468
 Input       : pstInitParam --- Task init parameters
 Output      : puwTaskID    --- Save task ID
 Return      : LOS_OK on success or error code on failure
 *****************************************************************************/
LITE_OS_SEC_TEXT_INIT UINT32 LOS_TaskCreateOnly(UINT32 *puwTaskID, TSK_INIT_PARAM_S *pstInitParam)
{
20002cbc:	b590      	push	{r4, r7, lr}
20002cbe:	b089      	sub	sp, #36	; 0x24
20002cc0:	af00      	add	r7, sp, #0
20002cc2:	6078      	str	r0, [r7, #4]
20002cc4:	6039      	str	r1, [r7, #0]
C:\Users\nitin.deshpande\Documents\GitHub\microsemi-huawei-liteos\microsemi-liteos\mscc-huawei-wsp\sc-gd450i-board-test\Debug/../kernel/base/core/los_task.c:469
    UINT32 uwTaskID = 0;
20002cc6:	2300      	movs	r3, #0
20002cc8:	617b      	str	r3, [r7, #20]
C:\Users\nitin.deshpande\Documents\GitHub\microsemi-huawei-liteos\microsemi-liteos\mscc-huawei-wsp\sc-gd450i-board-test\Debug/../kernel/base/core/los_task.c:474
    UINTPTR uvIntSave;
    VOID  *pTopStack;
    VOID  *pStackPtr;
    LOS_TASK_CB *pstTaskCB;
    UINT32 uwErrRet = OS_ERROR;
20002cca:	f04f 33ff 	mov.w	r3, #4294967295
20002cce:	61bb      	str	r3, [r7, #24]
C:\Users\nitin.deshpande\Documents\GitHub\microsemi-huawei-liteos\microsemi-liteos\mscc-huawei-wsp\sc-gd450i-board-test\Debug/../kernel/base/core/los_task.c:476

    if (NULL == puwTaskID)
20002cd0:	687b      	ldr	r3, [r7, #4]
20002cd2:	2b00      	cmp	r3, #0
20002cd4:	d101      	bne.n	20002cda <LOS_TaskCreateOnly+0x1e>
C:\Users\nitin.deshpande\Documents\GitHub\microsemi-huawei-liteos\microsemi-liteos\mscc-huawei-wsp\sc-gd450i-board-test\Debug/../kernel/base/core/los_task.c:478
    {
        return LOS_ERRNO_TSK_ID_INVALID;
20002cd6:	4b77      	ldr	r3, [pc, #476]	; (20002eb4 <LOS_TaskCreateOnly+0x1f8>)
20002cd8:	e0e7      	b.n	20002eaa <LOS_TaskCreateOnly+0x1ee>
C:\Users\nitin.deshpande\Documents\GitHub\microsemi-huawei-liteos\microsemi-liteos\mscc-huawei-wsp\sc-gd450i-board-test\Debug/../kernel/base/core/los_task.c:481
    }

    if (NULL == pstInitParam)
20002cda:	683b      	ldr	r3, [r7, #0]
20002cdc:	2b00      	cmp	r3, #0
20002cde:	d101      	bne.n	20002ce4 <LOS_TaskCreateOnly+0x28>
C:\Users\nitin.deshpande\Documents\GitHub\microsemi-huawei-liteos\microsemi-liteos\mscc-huawei-wsp\sc-gd450i-board-test\Debug/../kernel/base/core/los_task.c:483
    {
        return LOS_ERRNO_TSK_PTR_NULL;
20002ce0:	4b75      	ldr	r3, [pc, #468]	; (20002eb8 <LOS_TaskCreateOnly+0x1fc>)
20002ce2:	e0e2      	b.n	20002eaa <LOS_TaskCreateOnly+0x1ee>
C:\Users\nitin.deshpande\Documents\GitHub\microsemi-huawei-liteos\microsemi-liteos\mscc-huawei-wsp\sc-gd450i-board-test\Debug/../kernel/base/core/los_task.c:486
    }

    if (NULL == pstInitParam->pcName )
20002ce4:	683b      	ldr	r3, [r7, #0]
20002ce6:	69db      	ldr	r3, [r3, #28]
20002ce8:	2b00      	cmp	r3, #0
20002cea:	d101      	bne.n	20002cf0 <LOS_TaskCreateOnly+0x34>
C:\Users\nitin.deshpande\Documents\GitHub\microsemi-huawei-liteos\microsemi-liteos\mscc-huawei-wsp\sc-gd450i-board-test\Debug/../kernel/base/core/los_task.c:488
    {
        return LOS_ERRNO_TSK_NAME_EMPTY;
20002cec:	4b73      	ldr	r3, [pc, #460]	; (20002ebc <LOS_TaskCreateOnly+0x200>)
20002cee:	e0dc      	b.n	20002eaa <LOS_TaskCreateOnly+0x1ee>
C:\Users\nitin.deshpande\Documents\GitHub\microsemi-huawei-liteos\microsemi-liteos\mscc-huawei-wsp\sc-gd450i-board-test\Debug/../kernel/base/core/los_task.c:491
    }

    if (NULL == pstInitParam->pfnTaskEntry)
20002cf0:	683b      	ldr	r3, [r7, #0]
20002cf2:	681b      	ldr	r3, [r3, #0]
20002cf4:	2b00      	cmp	r3, #0
20002cf6:	d101      	bne.n	20002cfc <LOS_TaskCreateOnly+0x40>
C:\Users\nitin.deshpande\Documents\GitHub\microsemi-huawei-liteos\microsemi-liteos\mscc-huawei-wsp\sc-gd450i-board-test\Debug/../kernel/base/core/los_task.c:493
    {
        return LOS_ERRNO_TSK_ENTRY_NULL;
20002cf8:	4b71      	ldr	r3, [pc, #452]	; (20002ec0 <LOS_TaskCreateOnly+0x204>)
20002cfa:	e0d6      	b.n	20002eaa <LOS_TaskCreateOnly+0x1ee>
C:\Users\nitin.deshpande\Documents\GitHub\microsemi-huawei-liteos\microsemi-liteos\mscc-huawei-wsp\sc-gd450i-board-test\Debug/../kernel/base/core/los_task.c:496
    }

    if ((pstInitParam->usTaskPrio) > OS_TASK_PRIORITY_LOWEST)
20002cfc:	683b      	ldr	r3, [r7, #0]
20002cfe:	889b      	ldrh	r3, [r3, #4]
20002d00:	2b1f      	cmp	r3, #31
20002d02:	d901      	bls.n	20002d08 <LOS_TaskCreateOnly+0x4c>
C:\Users\nitin.deshpande\Documents\GitHub\microsemi-huawei-liteos\microsemi-liteos\mscc-huawei-wsp\sc-gd450i-board-test\Debug/../kernel/base/core/los_task.c:498
    {
        return LOS_ERRNO_TSK_PRIOR_ERROR;
20002d04:	4b6f      	ldr	r3, [pc, #444]	; (20002ec4 <LOS_TaskCreateOnly+0x208>)
20002d06:	e0d0      	b.n	20002eaa <LOS_TaskCreateOnly+0x1ee>
C:\Users\nitin.deshpande\Documents\GitHub\microsemi-huawei-liteos\microsemi-liteos\mscc-huawei-wsp\sc-gd450i-board-test\Debug/../kernel/base/core/los_task.c:501
    }

    if (pstInitParam->uwStackSize > OS_SYS_MEM_SIZE)
20002d08:	683b      	ldr	r3, [r7, #0]
20002d0a:	699b      	ldr	r3, [r3, #24]
20002d0c:	f5b3 4f30 	cmp.w	r3, #45056	; 0xb000
20002d10:	d901      	bls.n	20002d16 <LOS_TaskCreateOnly+0x5a>
C:\Users\nitin.deshpande\Documents\GitHub\microsemi-huawei-liteos\microsemi-liteos\mscc-huawei-wsp\sc-gd450i-board-test\Debug/../kernel/base/core/los_task.c:503
    {
        return LOS_ERRNO_TSK_STKSZ_TOO_LARGE;
20002d12:	4b6d      	ldr	r3, [pc, #436]	; (20002ec8 <LOS_TaskCreateOnly+0x20c>)
20002d14:	e0c9      	b.n	20002eaa <LOS_TaskCreateOnly+0x1ee>
C:\Users\nitin.deshpande\Documents\GitHub\microsemi-huawei-liteos\microsemi-liteos\mscc-huawei-wsp\sc-gd450i-board-test\Debug/../kernel/base/core/los_task.c:506
    }

    if (0 == pstInitParam->uwStackSize)
20002d16:	683b      	ldr	r3, [r7, #0]
20002d18:	699b      	ldr	r3, [r3, #24]
20002d1a:	2b00      	cmp	r3, #0
20002d1c:	d103      	bne.n	20002d26 <LOS_TaskCreateOnly+0x6a>
C:\Users\nitin.deshpande\Documents\GitHub\microsemi-huawei-liteos\microsemi-liteos\mscc-huawei-wsp\sc-gd450i-board-test\Debug/../kernel/base/core/los_task.c:508
    {
        pstInitParam->uwStackSize = LOSCFG_BASE_CORE_TSK_DEFAULT_STACK_SIZE;
20002d1e:	683b      	ldr	r3, [r7, #0]
20002d20:	f44f 7234 	mov.w	r2, #720	; 0x2d0
20002d24:	619a      	str	r2, [r3, #24]
C:\Users\nitin.deshpande\Documents\GitHub\microsemi-huawei-liteos\microsemi-liteos\mscc-huawei-wsp\sc-gd450i-board-test\Debug/../kernel/base/core/los_task.c:510
    }
    pstInitParam->uwStackSize = ALIGN(pstInitParam->uwStackSize , 8);
20002d26:	683b      	ldr	r3, [r7, #0]
20002d28:	699b      	ldr	r3, [r3, #24]
20002d2a:	2108      	movs	r1, #8
20002d2c:	4618      	mov	r0, r3
20002d2e:	f7fd fe0c 	bl	2000094a <LOS_Align>
20002d32:	4602      	mov	r2, r0
20002d34:	683b      	ldr	r3, [r7, #0]
20002d36:	619a      	str	r2, [r3, #24]
C:\Users\nitin.deshpande\Documents\GitHub\microsemi-huawei-liteos\microsemi-liteos\mscc-huawei-wsp\sc-gd450i-board-test\Debug/../kernel/base/core/los_task.c:512

    if (pstInitParam->uwStackSize < LOS_TASK_MIN_STACK_SIZE)
20002d38:	683b      	ldr	r3, [r7, #0]
20002d3a:	699c      	ldr	r4, [r3, #24]
20002d3c:	2110      	movs	r1, #16
20002d3e:	f44f 7098 	mov.w	r0, #304	; 0x130
20002d42:	f7fd fe02 	bl	2000094a <LOS_Align>
20002d46:	4603      	mov	r3, r0
20002d48:	429c      	cmp	r4, r3
20002d4a:	d201      	bcs.n	20002d50 <LOS_TaskCreateOnly+0x94>
C:\Users\nitin.deshpande\Documents\GitHub\microsemi-huawei-liteos\microsemi-liteos\mscc-huawei-wsp\sc-gd450i-board-test\Debug/../kernel/base/core/los_task.c:514
    {
        return LOS_ERRNO_TSK_STKSZ_TOO_SMALL;
20002d4c:	4b5f      	ldr	r3, [pc, #380]	; (20002ecc <LOS_TaskCreateOnly+0x210>)
20002d4e:	e0ac      	b.n	20002eaa <LOS_TaskCreateOnly+0x1ee>
C:\Users\nitin.deshpande\Documents\GitHub\microsemi-huawei-liteos\microsemi-liteos\mscc-huawei-wsp\sc-gd450i-board-test\Debug/../kernel/base/core/los_task.c:517
    }

    uvIntSave = LOS_IntLock();
20002d50:	f7fd fb55 	bl	200003fe <LOS_IntLock>
20002d54:	61f8      	str	r0, [r7, #28]
C:\Users\nitin.deshpande\Documents\GitHub\microsemi-huawei-liteos\microsemi-liteos\mscc-huawei-wsp\sc-gd450i-board-test\Debug/../kernel/base/core/los_task.c:518
    while (!LOS_ListEmpty(&g_stTskRecyleList))
20002d56:	e016      	b.n	20002d86 <LOS_TaskCreateOnly+0xca>
C:\Users\nitin.deshpande\Documents\GitHub\microsemi-huawei-liteos\microsemi-liteos\mscc-huawei-wsp\sc-gd450i-board-test\Debug/../kernel/base/core/los_task.c:520
    {
        pstTaskCB = OS_TCB_FROM_PENDLIST(LOS_DL_LIST_FIRST(&g_stTskRecyleList)); /*lint !e413*/
20002d58:	4b5d      	ldr	r3, [pc, #372]	; (20002ed0 <LOS_TaskCreateOnly+0x214>)
20002d5a:	685b      	ldr	r3, [r3, #4]
20002d5c:	3b3c      	subs	r3, #60	; 0x3c
20002d5e:	613b      	str	r3, [r7, #16]
C:\Users\nitin.deshpande\Documents\GitHub\microsemi-huawei-liteos\microsemi-liteos\mscc-huawei-wsp\sc-gd450i-board-test\Debug/../kernel/base/core/los_task.c:521
        LOS_ListDelete(LOS_DL_LIST_FIRST(&g_stTskRecyleList));
20002d60:	4b5b      	ldr	r3, [pc, #364]	; (20002ed0 <LOS_TaskCreateOnly+0x214>)
20002d62:	685b      	ldr	r3, [r3, #4]
20002d64:	4618      	mov	r0, r3
20002d66:	f7ff fc25 	bl	200025b4 <LOS_ListDelete>
C:\Users\nitin.deshpande\Documents\GitHub\microsemi-huawei-liteos\microsemi-liteos\mscc-huawei-wsp\sc-gd450i-board-test\Debug/../kernel/base/core/los_task.c:522
        LOS_ListAdd(&g_stLosFreeTask, &pstTaskCB->stPendList);
20002d6a:	693b      	ldr	r3, [r7, #16]
20002d6c:	333c      	adds	r3, #60	; 0x3c
20002d6e:	4619      	mov	r1, r3
20002d70:	4858      	ldr	r0, [pc, #352]	; (20002ed4 <LOS_TaskCreateOnly+0x218>)
20002d72:	f7ff fbf7 	bl	20002564 <LOS_ListAdd>
C:\Users\nitin.deshpande\Documents\GitHub\microsemi-huawei-liteos\microsemi-liteos\mscc-huawei-wsp\sc-gd450i-board-test\Debug/../kernel/base/core/los_task.c:523
        (VOID)LOS_MemFree(m_aucSysMem0, (VOID *)pstTaskCB->uwTopOfStack);
20002d76:	4b58      	ldr	r3, [pc, #352]	; (20002ed8 <LOS_TaskCreateOnly+0x21c>)
20002d78:	681a      	ldr	r2, [r3, #0]
20002d7a:	693b      	ldr	r3, [r7, #16]
20002d7c:	68db      	ldr	r3, [r3, #12]
20002d7e:	4619      	mov	r1, r3
20002d80:	4610      	mov	r0, r2
20002d82:	f7fe fa62 	bl	2000124a <LOS_MemFree>
C:\Users\nitin.deshpande\Documents\GitHub\microsemi-huawei-liteos\microsemi-liteos\mscc-huawei-wsp\sc-gd450i-board-test\Debug/../kernel/base/core/los_task.c:518
    while (!LOS_ListEmpty(&g_stTskRecyleList))
20002d86:	4852      	ldr	r0, [pc, #328]	; (20002ed0 <LOS_TaskCreateOnly+0x214>)
20002d88:	f7ff fc2e 	bl	200025e8 <LOS_ListEmpty>
20002d8c:	4603      	mov	r3, r0
20002d8e:	2b00      	cmp	r3, #0
20002d90:	d0e2      	beq.n	20002d58 <LOS_TaskCreateOnly+0x9c>
C:\Users\nitin.deshpande\Documents\GitHub\microsemi-huawei-liteos\microsemi-liteos\mscc-huawei-wsp\sc-gd450i-board-test\Debug/../kernel/base/core/los_task.c:526
    }

    if (LOS_ListEmpty(&g_stLosFreeTask))
20002d92:	4850      	ldr	r0, [pc, #320]	; (20002ed4 <LOS_TaskCreateOnly+0x218>)
20002d94:	f7ff fc28 	bl	200025e8 <LOS_ListEmpty>
20002d98:	4603      	mov	r3, r0
20002d9a:	2b00      	cmp	r3, #0
20002d9c:	d002      	beq.n	20002da4 <LOS_TaskCreateOnly+0xe8>
C:\Users\nitin.deshpande\Documents\GitHub\microsemi-huawei-liteos\microsemi-liteos\mscc-huawei-wsp\sc-gd450i-board-test\Debug/../kernel/base/core/los_task.c:528
    {
        uwErrRet = LOS_ERRNO_TSK_TCB_UNAVAILABLE;
20002d9e:	4b4f      	ldr	r3, [pc, #316]	; (20002edc <LOS_TaskCreateOnly+0x220>)
20002da0:	61bb      	str	r3, [r7, #24]
C:\Users\nitin.deshpande\Documents\GitHub\microsemi-huawei-liteos\microsemi-liteos\mscc-huawei-wsp\sc-gd450i-board-test\Debug/../kernel/base/core/los_task.c:529
        OS_GOTO_ERREND();
20002da2:	e07e      	b.n	20002ea2 <LOS_TaskCreateOnly+0x1e6>
C:\Users\nitin.deshpande\Documents\GitHub\microsemi-huawei-liteos\microsemi-liteos\mscc-huawei-wsp\sc-gd450i-board-test\Debug/../kernel/base/core/los_task.c:532
    }

    pstTaskCB = OS_TCB_FROM_PENDLIST(LOS_DL_LIST_FIRST(&g_stLosFreeTask)); /*lint !e413*/
20002da4:	4b4b      	ldr	r3, [pc, #300]	; (20002ed4 <LOS_TaskCreateOnly+0x218>)
20002da6:	685b      	ldr	r3, [r3, #4]
20002da8:	3b3c      	subs	r3, #60	; 0x3c
20002daa:	613b      	str	r3, [r7, #16]
C:\Users\nitin.deshpande\Documents\GitHub\microsemi-huawei-liteos\microsemi-liteos\mscc-huawei-wsp\sc-gd450i-board-test\Debug/../kernel/base/core/los_task.c:533
    LOS_ListDelete(LOS_DL_LIST_FIRST(&g_stLosFreeTask));
20002dac:	4b49      	ldr	r3, [pc, #292]	; (20002ed4 <LOS_TaskCreateOnly+0x218>)
20002dae:	685b      	ldr	r3, [r3, #4]
20002db0:	4618      	mov	r0, r3
20002db2:	f7ff fbff 	bl	200025b4 <LOS_ListDelete>
C:\Users\nitin.deshpande\Documents\GitHub\microsemi-huawei-liteos\microsemi-liteos\mscc-huawei-wsp\sc-gd450i-board-test\Debug/../kernel/base/core/los_task.c:534
    (VOID)LOS_IntRestore(uvIntSave);
20002db6:	69f8      	ldr	r0, [r7, #28]
20002db8:	f7fd fb29 	bl	2000040e <LOS_IntRestore>
C:\Users\nitin.deshpande\Documents\GitHub\microsemi-huawei-liteos\microsemi-liteos\mscc-huawei-wsp\sc-gd450i-board-test\Debug/../kernel/base/core/los_task.c:535
    uwTaskID = pstTaskCB->uwTaskID;
20002dbc:	693b      	ldr	r3, [r7, #16]
20002dbe:	691b      	ldr	r3, [r3, #16]
20002dc0:	617b      	str	r3, [r7, #20]
C:\Users\nitin.deshpande\Documents\GitHub\microsemi-huawei-liteos\microsemi-liteos\mscc-huawei-wsp\sc-gd450i-board-test\Debug/../kernel/base/core/los_task.c:537

    pTopStack = (void *)LOS_MemAllocAlign(m_aucSysMem0, pstInitParam->uwStackSize, 8);
20002dc2:	4b45      	ldr	r3, [pc, #276]	; (20002ed8 <LOS_TaskCreateOnly+0x21c>)
20002dc4:	6818      	ldr	r0, [r3, #0]
20002dc6:	683b      	ldr	r3, [r7, #0]
20002dc8:	699b      	ldr	r3, [r3, #24]
20002dca:	2208      	movs	r2, #8
20002dcc:	4619      	mov	r1, r3
20002dce:	f7fe f9f1 	bl	200011b4 <LOS_MemAllocAlign>
20002dd2:	60f8      	str	r0, [r7, #12]
C:\Users\nitin.deshpande\Documents\GitHub\microsemi-huawei-liteos\microsemi-liteos\mscc-huawei-wsp\sc-gd450i-board-test\Debug/../kernel/base/core/los_task.c:539

    if (NULL == pTopStack)
20002dd4:	68fb      	ldr	r3, [r7, #12]
20002dd6:	2b00      	cmp	r3, #0
20002dd8:	d10b      	bne.n	20002df2 <LOS_TaskCreateOnly+0x136>
C:\Users\nitin.deshpande\Documents\GitHub\microsemi-huawei-liteos\microsemi-liteos\mscc-huawei-wsp\sc-gd450i-board-test\Debug/../kernel/base/core/los_task.c:541
    {
        uvIntSave = LOS_IntLock();
20002dda:	f7fd fb10 	bl	200003fe <LOS_IntLock>
20002dde:	61f8      	str	r0, [r7, #28]
C:\Users\nitin.deshpande\Documents\GitHub\microsemi-huawei-liteos\microsemi-liteos\mscc-huawei-wsp\sc-gd450i-board-test\Debug/../kernel/base/core/los_task.c:542
        LOS_ListAdd(&g_stLosFreeTask, &pstTaskCB->stPendList);
20002de0:	693b      	ldr	r3, [r7, #16]
20002de2:	333c      	adds	r3, #60	; 0x3c
20002de4:	4619      	mov	r1, r3
20002de6:	483b      	ldr	r0, [pc, #236]	; (20002ed4 <LOS_TaskCreateOnly+0x218>)
20002de8:	f7ff fbbc 	bl	20002564 <LOS_ListAdd>
C:\Users\nitin.deshpande\Documents\GitHub\microsemi-huawei-liteos\microsemi-liteos\mscc-huawei-wsp\sc-gd450i-board-test\Debug/../kernel/base/core/los_task.c:543
        uwErrRet = LOS_ERRNO_TSK_NO_MEMORY;
20002dec:	4b3c      	ldr	r3, [pc, #240]	; (20002ee0 <LOS_TaskCreateOnly+0x224>)
20002dee:	61bb      	str	r3, [r7, #24]
C:\Users\nitin.deshpande\Documents\GitHub\microsemi-huawei-liteos\microsemi-liteos\mscc-huawei-wsp\sc-gd450i-board-test\Debug/../kernel/base/core/los_task.c:544
        OS_GOTO_ERREND();
20002df0:	e057      	b.n	20002ea2 <LOS_TaskCreateOnly+0x1e6>
C:\Users\nitin.deshpande\Documents\GitHub\microsemi-huawei-liteos\microsemi-liteos\mscc-huawei-wsp\sc-gd450i-board-test\Debug/../kernel/base/core/los_task.c:547
    }

    pStackPtr = osTskStackInit(uwTaskID, pstInitParam->uwStackSize, pTopStack);
20002df2:	683b      	ldr	r3, [r7, #0]
20002df4:	699b      	ldr	r3, [r3, #24]
20002df6:	68fa      	ldr	r2, [r7, #12]
20002df8:	4619      	mov	r1, r3
20002dfa:	6978      	ldr	r0, [r7, #20]
20002dfc:	f7fd fb8c 	bl	20000518 <osTskStackInit>
20002e00:	60b8      	str	r0, [r7, #8]
C:\Users\nitin.deshpande\Documents\GitHub\microsemi-huawei-liteos\microsemi-liteos\mscc-huawei-wsp\sc-gd450i-board-test\Debug/../kernel/base/core/los_task.c:548
    pstTaskCB->pStackPointer = pStackPtr;
20002e02:	693b      	ldr	r3, [r7, #16]
20002e04:	68ba      	ldr	r2, [r7, #8]
20002e06:	601a      	str	r2, [r3, #0]
C:\Users\nitin.deshpande\Documents\GitHub\microsemi-huawei-liteos\microsemi-liteos\mscc-huawei-wsp\sc-gd450i-board-test\Debug/../kernel/base/core/los_task.c:549
    pstTaskCB->auwArgs[0] = pstInitParam->auwArgs[0];
20002e08:	683b      	ldr	r3, [r7, #0]
20002e0a:	689a      	ldr	r2, [r3, #8]
20002e0c:	693b      	ldr	r3, [r7, #16]
20002e0e:	629a      	str	r2, [r3, #40]	; 0x28
C:\Users\nitin.deshpande\Documents\GitHub\microsemi-huawei-liteos\microsemi-liteos\mscc-huawei-wsp\sc-gd450i-board-test\Debug/../kernel/base/core/los_task.c:550
    pstTaskCB->auwArgs[1] = pstInitParam->auwArgs[1];
20002e10:	683b      	ldr	r3, [r7, #0]
20002e12:	68da      	ldr	r2, [r3, #12]
20002e14:	693b      	ldr	r3, [r7, #16]
20002e16:	62da      	str	r2, [r3, #44]	; 0x2c
C:\Users\nitin.deshpande\Documents\GitHub\microsemi-huawei-liteos\microsemi-liteos\mscc-huawei-wsp\sc-gd450i-board-test\Debug/../kernel/base/core/los_task.c:551
    pstTaskCB->auwArgs[2] = pstInitParam->auwArgs[2];
20002e18:	683b      	ldr	r3, [r7, #0]
20002e1a:	691a      	ldr	r2, [r3, #16]
20002e1c:	693b      	ldr	r3, [r7, #16]
20002e1e:	631a      	str	r2, [r3, #48]	; 0x30
C:\Users\nitin.deshpande\Documents\GitHub\microsemi-huawei-liteos\microsemi-liteos\mscc-huawei-wsp\sc-gd450i-board-test\Debug/../kernel/base/core/los_task.c:552
    pstTaskCB->auwArgs[3] = pstInitParam->auwArgs[3];
20002e20:	683b      	ldr	r3, [r7, #0]
20002e22:	695a      	ldr	r2, [r3, #20]
20002e24:	693b      	ldr	r3, [r7, #16]
20002e26:	635a      	str	r2, [r3, #52]	; 0x34
C:\Users\nitin.deshpande\Documents\GitHub\microsemi-huawei-liteos\microsemi-liteos\mscc-huawei-wsp\sc-gd450i-board-test\Debug/../kernel/base/core/los_task.c:553
    pstTaskCB->uwTopOfStack = (UINT32)pTopStack;
20002e28:	68fa      	ldr	r2, [r7, #12]
20002e2a:	693b      	ldr	r3, [r7, #16]
20002e2c:	60da      	str	r2, [r3, #12]
C:\Users\nitin.deshpande\Documents\GitHub\microsemi-huawei-liteos\microsemi-liteos\mscc-huawei-wsp\sc-gd450i-board-test\Debug/../kernel/base/core/los_task.c:554
    pstTaskCB->uwStackSize = pstInitParam->uwStackSize;
20002e2e:	683b      	ldr	r3, [r7, #0]
20002e30:	699a      	ldr	r2, [r3, #24]
20002e32:	693b      	ldr	r3, [r7, #16]
20002e34:	609a      	str	r2, [r3, #8]
C:\Users\nitin.deshpande\Documents\GitHub\microsemi-huawei-liteos\microsemi-liteos\mscc-huawei-wsp\sc-gd450i-board-test\Debug/../kernel/base/core/los_task.c:555
    pstTaskCB->pTaskSem = NULL;
20002e36:	693b      	ldr	r3, [r7, #16]
20002e38:	2200      	movs	r2, #0
20002e3a:	619a      	str	r2, [r3, #24]
C:\Users\nitin.deshpande\Documents\GitHub\microsemi-huawei-liteos\microsemi-liteos\mscc-huawei-wsp\sc-gd450i-board-test\Debug/../kernel/base/core/los_task.c:556
    pstTaskCB->pThreadJoin = NULL;
20002e3c:	693b      	ldr	r3, [r7, #16]
20002e3e:	2200      	movs	r2, #0
20002e40:	61da      	str	r2, [r3, #28]
C:\Users\nitin.deshpande\Documents\GitHub\microsemi-huawei-liteos\microsemi-liteos\mscc-huawei-wsp\sc-gd450i-board-test\Debug/../kernel/base/core/los_task.c:557
    pstTaskCB->pTaskMux = NULL;
20002e42:	693b      	ldr	r3, [r7, #16]
20002e44:	2200      	movs	r2, #0
20002e46:	625a      	str	r2, [r3, #36]	; 0x24
C:\Users\nitin.deshpande\Documents\GitHub\microsemi-huawei-liteos\microsemi-liteos\mscc-huawei-wsp\sc-gd450i-board-test\Debug/../kernel/base/core/los_task.c:558
    pstTaskCB->usTaskStatus = OS_TASK_STATUS_SUSPEND;
20002e48:	693b      	ldr	r3, [r7, #16]
20002e4a:	2202      	movs	r2, #2
20002e4c:	809a      	strh	r2, [r3, #4]
C:\Users\nitin.deshpande\Documents\GitHub\microsemi-huawei-liteos\microsemi-liteos\mscc-huawei-wsp\sc-gd450i-board-test\Debug/../kernel/base/core/los_task.c:559
    pstTaskCB->usTaskStatus |= (pstInitParam->uwResved ? LOS_TASK_STATUS_DETACHED : 0);/*set the task is detached or joinable*/
20002e4e:	693b      	ldr	r3, [r7, #16]
20002e50:	889b      	ldrh	r3, [r3, #4]
20002e52:	b21a      	sxth	r2, r3
20002e54:	683b      	ldr	r3, [r7, #0]
20002e56:	6a1b      	ldr	r3, [r3, #32]
20002e58:	2b00      	cmp	r3, #0
20002e5a:	d001      	beq.n	20002e60 <LOS_TaskCreateOnly+0x1a4>
C:\Users\nitin.deshpande\Documents\GitHub\microsemi-huawei-liteos\microsemi-liteos\mscc-huawei-wsp\sc-gd450i-board-test\Debug/../kernel/base/core/los_task.c:559 (discriminator 1)
20002e5c:	2380      	movs	r3, #128	; 0x80
20002e5e:	e000      	b.n	20002e62 <LOS_TaskCreateOnly+0x1a6>
C:\Users\nitin.deshpande\Documents\GitHub\microsemi-huawei-liteos\microsemi-liteos\mscc-huawei-wsp\sc-gd450i-board-test\Debug/../kernel/base/core/los_task.c:559 (discriminator 2)
20002e60:	2300      	movs	r3, #0
C:\Users\nitin.deshpande\Documents\GitHub\microsemi-huawei-liteos\microsemi-liteos\mscc-huawei-wsp\sc-gd450i-board-test\Debug/../kernel/base/core/los_task.c:559 (discriminator 4)
20002e62:	4313      	orrs	r3, r2
20002e64:	b21b      	sxth	r3, r3
20002e66:	b29a      	uxth	r2, r3
20002e68:	693b      	ldr	r3, [r7, #16]
20002e6a:	809a      	strh	r2, [r3, #4]
C:\Users\nitin.deshpande\Documents\GitHub\microsemi-huawei-liteos\microsemi-liteos\mscc-huawei-wsp\sc-gd450i-board-test\Debug/../kernel/base/core/los_task.c:560 (discriminator 4)
    pstTaskCB->usPriority = pstInitParam->usTaskPrio;
20002e6c:	683b      	ldr	r3, [r7, #0]
20002e6e:	889a      	ldrh	r2, [r3, #4]
20002e70:	693b      	ldr	r3, [r7, #16]
20002e72:	80da      	strh	r2, [r3, #6]
C:\Users\nitin.deshpande\Documents\GitHub\microsemi-huawei-liteos\microsemi-liteos\mscc-huawei-wsp\sc-gd450i-board-test\Debug/../kernel/base/core/los_task.c:561 (discriminator 4)
    pstTaskCB->pfnTaskEntry = pstInitParam->pfnTaskEntry;
20002e74:	683b      	ldr	r3, [r7, #0]
20002e76:	681a      	ldr	r2, [r3, #0]
20002e78:	693b      	ldr	r3, [r7, #16]
20002e7a:	615a      	str	r2, [r3, #20]
C:\Users\nitin.deshpande\Documents\GitHub\microsemi-huawei-liteos\microsemi-liteos\mscc-huawei-wsp\sc-gd450i-board-test\Debug/../kernel/base/core/los_task.c:562 (discriminator 4)
    pstTaskCB->uwEvent.uwEventID = 0xFFFFFFFF;
20002e7c:	693b      	ldr	r3, [r7, #16]
20002e7e:	f04f 32ff 	mov.w	r2, #4294967295
20002e82:	651a      	str	r2, [r3, #80]	; 0x50
C:\Users\nitin.deshpande\Documents\GitHub\microsemi-huawei-liteos\microsemi-liteos\mscc-huawei-wsp\sc-gd450i-board-test\Debug/../kernel/base/core/los_task.c:563 (discriminator 4)
    pstTaskCB->uwEventMask = 0;
20002e84:	693b      	ldr	r3, [r7, #16]
20002e86:	2200      	movs	r2, #0
20002e88:	65da      	str	r2, [r3, #92]	; 0x5c
C:\Users\nitin.deshpande\Documents\GitHub\microsemi-huawei-liteos\microsemi-liteos\mscc-huawei-wsp\sc-gd450i-board-test\Debug/../kernel/base/core/los_task.c:564 (discriminator 4)
    pstTaskCB->pcTaskName   = pstInitParam->pcName;
20002e8a:	683b      	ldr	r3, [r7, #0]
20002e8c:	69da      	ldr	r2, [r3, #28]
20002e8e:	693b      	ldr	r3, [r7, #16]
20002e90:	639a      	str	r2, [r3, #56]	; 0x38
C:\Users\nitin.deshpande\Documents\GitHub\microsemi-huawei-liteos\microsemi-liteos\mscc-huawei-wsp\sc-gd450i-board-test\Debug/../kernel/base/core/los_task.c:565 (discriminator 4)
    pstTaskCB->puwMsg = NULL;
20002e92:	693b      	ldr	r3, [r7, #16]
20002e94:	2200      	movs	r2, #0
20002e96:	665a      	str	r2, [r3, #100]	; 0x64
C:\Users\nitin.deshpande\Documents\GitHub\microsemi-huawei-liteos\microsemi-liteos\mscc-huawei-wsp\sc-gd450i-board-test\Debug/../kernel/base/core/los_task.c:567 (discriminator 4)

    *puwTaskID = uwTaskID;
20002e98:	687b      	ldr	r3, [r7, #4]
20002e9a:	697a      	ldr	r2, [r7, #20]
20002e9c:	601a      	str	r2, [r3, #0]
C:\Users\nitin.deshpande\Documents\GitHub\microsemi-huawei-liteos\microsemi-liteos\mscc-huawei-wsp\sc-gd450i-board-test\Debug/../kernel/base/core/los_task.c:568 (discriminator 4)
    return LOS_OK;
20002e9e:	2300      	movs	r3, #0
20002ea0:	e003      	b.n	20002eaa <LOS_TaskCreateOnly+0x1ee>
C:\Users\nitin.deshpande\Documents\GitHub\microsemi-huawei-liteos\microsemi-liteos\mscc-huawei-wsp\sc-gd450i-board-test\Debug/../kernel/base/core/los_task.c:571

LOS_ERREND:
    (VOID)LOS_IntRestore(uvIntSave);
20002ea2:	69f8      	ldr	r0, [r7, #28]
20002ea4:	f7fd fab3 	bl	2000040e <LOS_IntRestore>
C:\Users\nitin.deshpande\Documents\GitHub\microsemi-huawei-liteos\microsemi-liteos\mscc-huawei-wsp\sc-gd450i-board-test\Debug/../kernel/base/core/los_task.c:572
    return uwErrRet;
20002ea8:	69bb      	ldr	r3, [r7, #24]
C:\Users\nitin.deshpande\Documents\GitHub\microsemi-huawei-liteos\microsemi-liteos\mscc-huawei-wsp\sc-gd450i-board-test\Debug/../kernel/base/core/los_task.c:573
}
20002eaa:	4618      	mov	r0, r3
20002eac:	3724      	adds	r7, #36	; 0x24
20002eae:	46bd      	mov	sp, r7
20002eb0:	bd90      	pop	{r4, r7, pc}
20002eb2:	bf00      	nop
20002eb4:	02000207 	.word	0x02000207
20002eb8:	02000201 	.word	0x02000201
20002ebc:	02000205 	.word	0x02000205
20002ec0:	02000204 	.word	0x02000204
20002ec4:	02000203 	.word	0x02000203
20002ec8:	02000220 	.word	0x02000220
20002ecc:	02000206 	.word	0x02000206
20002ed0:	20004950 	.word	0x20004950
20002ed4:	20004978 	.word	0x20004978
20002ed8:	20004808 	.word	0x20004808
20002edc:	02000211 	.word	0x02000211
20002ee0:	03000200 	.word	0x03000200

20002ee4 <LOS_TaskCreate>:
LOS_TaskCreate():
C:\Users\nitin.deshpande\Documents\GitHub\microsemi-huawei-liteos\microsemi-liteos\mscc-huawei-wsp\sc-gd450i-board-test\Debug/../kernel/base/core/los_task.c:584
 Input       : pstInitParam --- Task init parameters
 Output      : puwTaskID    --- Save task ID
 Return      : LOS_OK on success or error code on failure
 *****************************************************************************/
LITE_OS_SEC_TEXT_INIT UINT32 LOS_TaskCreate(UINT32 *puwTaskID, TSK_INIT_PARAM_S *pstInitParam)
{
20002ee4:	b580      	push	{r7, lr}
20002ee6:	b086      	sub	sp, #24
20002ee8:	af00      	add	r7, sp, #0
20002eea:	6078      	str	r0, [r7, #4]
20002eec:	6039      	str	r1, [r7, #0]
C:\Users\nitin.deshpande\Documents\GitHub\microsemi-huawei-liteos\microsemi-liteos\mscc-huawei-wsp\sc-gd450i-board-test\Debug/../kernel/base/core/los_task.c:585
    UINT32 uwRet = LOS_OK;
20002eee:	2300      	movs	r3, #0
20002ef0:	617b      	str	r3, [r7, #20]
C:\Users\nitin.deshpande\Documents\GitHub\microsemi-huawei-liteos\microsemi-liteos\mscc-huawei-wsp\sc-gd450i-board-test\Debug/../kernel/base/core/los_task.c:589
    UINTPTR uvIntSave;
    LOS_TASK_CB *pstTaskCB;

    uwRet = LOS_TaskCreateOnly(puwTaskID, pstInitParam);
20002ef2:	6839      	ldr	r1, [r7, #0]
20002ef4:	6878      	ldr	r0, [r7, #4]
20002ef6:	f7ff fee1 	bl	20002cbc <LOS_TaskCreateOnly>
20002efa:	6178      	str	r0, [r7, #20]
C:\Users\nitin.deshpande\Documents\GitHub\microsemi-huawei-liteos\microsemi-liteos\mscc-huawei-wsp\sc-gd450i-board-test\Debug/../kernel/base/core/los_task.c:590
    if (LOS_OK != uwRet)
20002efc:	697b      	ldr	r3, [r7, #20]
20002efe:	2b00      	cmp	r3, #0
20002f00:	d001      	beq.n	20002f06 <LOS_TaskCreate+0x22>
C:\Users\nitin.deshpande\Documents\GitHub\microsemi-huawei-liteos\microsemi-liteos\mscc-huawei-wsp\sc-gd450i-board-test\Debug/../kernel/base/core/los_task.c:592
    {
        return uwRet;
20002f02:	697b      	ldr	r3, [r7, #20]
20002f04:	e045      	b.n	20002f92 <LOS_TaskCreate+0xae>
C:\Users\nitin.deshpande\Documents\GitHub\microsemi-huawei-liteos\microsemi-liteos\mscc-huawei-wsp\sc-gd450i-board-test\Debug/../kernel/base/core/los_task.c:594
    }
    pstTaskCB = OS_TCB_FROM_TID(*puwTaskID);
20002f06:	4b25      	ldr	r3, [pc, #148]	; (20002f9c <LOS_TaskCreate+0xb8>)
20002f08:	681a      	ldr	r2, [r3, #0]
20002f0a:	687b      	ldr	r3, [r7, #4]
20002f0c:	681b      	ldr	r3, [r3, #0]
20002f0e:	2168      	movs	r1, #104	; 0x68
20002f10:	fb01 f303 	mul.w	r3, r1, r3
20002f14:	4413      	add	r3, r2
20002f16:	613b      	str	r3, [r7, #16]
C:\Users\nitin.deshpande\Documents\GitHub\microsemi-huawei-liteos\microsemi-liteos\mscc-huawei-wsp\sc-gd450i-board-test\Debug/../kernel/base/core/los_task.c:596

    uvIntSave = LOS_IntLock();
20002f18:	f7fd fa71 	bl	200003fe <LOS_IntLock>
20002f1c:	60f8      	str	r0, [r7, #12]
C:\Users\nitin.deshpande\Documents\GitHub\microsemi-huawei-liteos\microsemi-liteos\mscc-huawei-wsp\sc-gd450i-board-test\Debug/../kernel/base/core/los_task.c:597
    pstTaskCB->usTaskStatus &= (~OS_TASK_STATUS_SUSPEND);
20002f1e:	693b      	ldr	r3, [r7, #16]
20002f20:	889b      	ldrh	r3, [r3, #4]
20002f22:	f023 0302 	bic.w	r3, r3, #2
20002f26:	b29a      	uxth	r2, r3
20002f28:	693b      	ldr	r3, [r7, #16]
20002f2a:	809a      	strh	r2, [r3, #4]
C:\Users\nitin.deshpande\Documents\GitHub\microsemi-huawei-liteos\microsemi-liteos\mscc-huawei-wsp\sc-gd450i-board-test\Debug/../kernel/base/core/los_task.c:598
    pstTaskCB->usTaskStatus |= OS_TASK_STATUS_READY;
20002f2c:	693b      	ldr	r3, [r7, #16]
20002f2e:	889b      	ldrh	r3, [r3, #4]
20002f30:	f043 0304 	orr.w	r3, r3, #4
20002f34:	b29a      	uxth	r2, r3
20002f36:	693b      	ldr	r3, [r7, #16]
20002f38:	809a      	strh	r2, [r3, #4]
C:\Users\nitin.deshpande\Documents\GitHub\microsemi-huawei-liteos\microsemi-liteos\mscc-huawei-wsp\sc-gd450i-board-test\Debug/../kernel/base/core/los_task.c:600

    LOS_PriqueueEnqueue(&pstTaskCB->stPendList, pstTaskCB->usPriority);
20002f3a:	693b      	ldr	r3, [r7, #16]
20002f3c:	f103 023c 	add.w	r2, r3, #60	; 0x3c
20002f40:	693b      	ldr	r3, [r7, #16]
20002f42:	88db      	ldrh	r3, [r3, #6]
20002f44:	4619      	mov	r1, r3
20002f46:	4610      	mov	r0, r2
20002f48:	f7ff f8dc 	bl	20002104 <LOS_PriqueueEnqueue>
C:\Users\nitin.deshpande\Documents\GitHub\microsemi-huawei-liteos\microsemi-liteos\mscc-huawei-wsp\sc-gd450i-board-test\Debug/../kernel/base/core/los_task.c:601
    g_stLosTask.pstNewTask = LOS_DL_LIST_ENTRY(LOS_PriqueueTop(), LOS_TASK_CB, stPendList); /*lint !e413*/
20002f4c:	f7ff f8fa 	bl	20002144 <LOS_PriqueueTop>
20002f50:	4603      	mov	r3, r0
20002f52:	3b3c      	subs	r3, #60	; 0x3c
20002f54:	4a12      	ldr	r2, [pc, #72]	; (20002fa0 <LOS_TaskCreate+0xbc>)
20002f56:	6053      	str	r3, [r2, #4]
C:\Users\nitin.deshpande\Documents\GitHub\microsemi-huawei-liteos\microsemi-liteos\mscc-huawei-wsp\sc-gd450i-board-test\Debug/../kernel/base/core/los_task.c:603

    if ((g_bTaskScheduled) && (g_usLosTaskLock == 0))
20002f58:	4b12      	ldr	r3, [pc, #72]	; (20002fa4 <LOS_TaskCreate+0xc0>)
20002f5a:	681b      	ldr	r3, [r3, #0]
20002f5c:	2b00      	cmp	r3, #0
20002f5e:	d014      	beq.n	20002f8a <LOS_TaskCreate+0xa6>
C:\Users\nitin.deshpande\Documents\GitHub\microsemi-huawei-liteos\microsemi-liteos\mscc-huawei-wsp\sc-gd450i-board-test\Debug/../kernel/base/core/los_task.c:603 (discriminator 1)
20002f60:	4b11      	ldr	r3, [pc, #68]	; (20002fa8 <LOS_TaskCreate+0xc4>)
20002f62:	881b      	ldrh	r3, [r3, #0]
20002f64:	2b00      	cmp	r3, #0
20002f66:	d110      	bne.n	20002f8a <LOS_TaskCreate+0xa6>
C:\Users\nitin.deshpande\Documents\GitHub\microsemi-huawei-liteos\microsemi-liteos\mscc-huawei-wsp\sc-gd450i-board-test\Debug/../kernel/base/core/los_task.c:605
    {
        if (g_stLosTask.pstRunTask != g_stLosTask.pstNewTask)
20002f68:	4b0d      	ldr	r3, [pc, #52]	; (20002fa0 <LOS_TaskCreate+0xbc>)
20002f6a:	681a      	ldr	r2, [r3, #0]
20002f6c:	4b0c      	ldr	r3, [pc, #48]	; (20002fa0 <LOS_TaskCreate+0xbc>)
20002f6e:	685b      	ldr	r3, [r3, #4]
20002f70:	429a      	cmp	r2, r3
20002f72:	d00a      	beq.n	20002f8a <LOS_TaskCreate+0xa6>
C:\Users\nitin.deshpande\Documents\GitHub\microsemi-huawei-liteos\microsemi-liteos\mscc-huawei-wsp\sc-gd450i-board-test\Debug/../kernel/base/core/los_task.c:607
        {
            if (LOS_CHECK_SCHEDULE)
20002f74:	4b0c      	ldr	r3, [pc, #48]	; (20002fa8 <LOS_TaskCreate+0xc4>)
20002f76:	881b      	ldrh	r3, [r3, #0]
20002f78:	2b00      	cmp	r3, #0
20002f7a:	d106      	bne.n	20002f8a <LOS_TaskCreate+0xa6>
C:\Users\nitin.deshpande\Documents\GitHub\microsemi-huawei-liteos\microsemi-liteos\mscc-huawei-wsp\sc-gd450i-board-test\Debug/../kernel/base/core/los_task.c:609
            {
                (VOID)LOS_IntRestore(uvIntSave);
20002f7c:	68f8      	ldr	r0, [r7, #12]
20002f7e:	f7fd fa46 	bl	2000040e <LOS_IntRestore>
C:\Users\nitin.deshpande\Documents\GitHub\microsemi-huawei-liteos\microsemi-liteos\mscc-huawei-wsp\sc-gd450i-board-test\Debug/../kernel/base/core/los_task.c:610
                osSchedule();
20002f82:	f7fd fa97 	bl	200004b4 <osSchedule>
C:\Users\nitin.deshpande\Documents\GitHub\microsemi-huawei-liteos\microsemi-liteos\mscc-huawei-wsp\sc-gd450i-board-test\Debug/../kernel/base/core/los_task.c:611
                return LOS_OK;
20002f86:	2300      	movs	r3, #0
20002f88:	e003      	b.n	20002f92 <LOS_TaskCreate+0xae>
C:\Users\nitin.deshpande\Documents\GitHub\microsemi-huawei-liteos\microsemi-liteos\mscc-huawei-wsp\sc-gd450i-board-test\Debug/../kernel/base/core/los_task.c:616
            }
        }
    }

    (VOID)LOS_IntRestore(uvIntSave);
20002f8a:	68f8      	ldr	r0, [r7, #12]
20002f8c:	f7fd fa3f 	bl	2000040e <LOS_IntRestore>
C:\Users\nitin.deshpande\Documents\GitHub\microsemi-huawei-liteos\microsemi-liteos\mscc-huawei-wsp\sc-gd450i-board-test\Debug/../kernel/base/core/los_task.c:617
    return LOS_OK;
20002f90:	2300      	movs	r3, #0
C:\Users\nitin.deshpande\Documents\GitHub\microsemi-huawei-liteos\microsemi-liteos\mscc-huawei-wsp\sc-gd450i-board-test\Debug/../kernel/base/core/los_task.c:618
}
20002f92:	4618      	mov	r0, r3
20002f94:	3718      	adds	r7, #24
20002f96:	46bd      	mov	sp, r7
20002f98:	bd80      	pop	{r7, pc}
20002f9a:	bf00      	nop
20002f9c:	20004960 	.word	0x20004960
20002fa0:	2000496c 	.word	0x2000496c
20002fa4:	20004974 	.word	0x20004974
20002fa8:	20004968 	.word	0x20004968

20002fac <LOS_TaskDelay>:
LOS_TaskDelay():
C:\Users\nitin.deshpande\Documents\GitHub\microsemi-huawei-liteos\microsemi-liteos\mscc-huawei-wsp\sc-gd450i-board-test\Debug/../kernel/base/core/los_task.c:848
 Input       : uwTick    --- time
 Output      :None
 Return      : LOS_OK on success or error code on failure
 *****************************************************************************/
LITE_OS_SEC_TEXT UINT32 LOS_TaskDelay(UINT32 uwTick)
{
20002fac:	b580      	push	{r7, lr}
20002fae:	b084      	sub	sp, #16
20002fb0:	af00      	add	r7, sp, #0
20002fb2:	6078      	str	r0, [r7, #4]
C:\Users\nitin.deshpande\Documents\GitHub\microsemi-huawei-liteos\microsemi-liteos\mscc-huawei-wsp\sc-gd450i-board-test\Debug/../kernel/base/core/los_task.c:851
    UINTPTR uvIntSave;

    if (OS_INT_ACTIVE)
20002fb4:	4b1e      	ldr	r3, [pc, #120]	; (20003030 <LOS_TaskDelay+0x84>)
20002fb6:	681b      	ldr	r3, [r3, #0]
20002fb8:	2b00      	cmp	r3, #0
20002fba:	d001      	beq.n	20002fc0 <LOS_TaskDelay+0x14>
C:\Users\nitin.deshpande\Documents\GitHub\microsemi-huawei-liteos\microsemi-liteos\mscc-huawei-wsp\sc-gd450i-board-test\Debug/../kernel/base/core/los_task.c:853
    {
        return LOS_ERRNO_TSK_DELAY_IN_INT;
20002fbc:	4b1d      	ldr	r3, [pc, #116]	; (20003034 <LOS_TaskDelay+0x88>)
20002fbe:	e033      	b.n	20003028 <LOS_TaskDelay+0x7c>
C:\Users\nitin.deshpande\Documents\GitHub\microsemi-huawei-liteos\microsemi-liteos\mscc-huawei-wsp\sc-gd450i-board-test\Debug/../kernel/base/core/los_task.c:856
    }

    if (g_usLosTaskLock != 0)
20002fc0:	4b1d      	ldr	r3, [pc, #116]	; (20003038 <LOS_TaskDelay+0x8c>)
20002fc2:	881b      	ldrh	r3, [r3, #0]
20002fc4:	2b00      	cmp	r3, #0
20002fc6:	d001      	beq.n	20002fcc <LOS_TaskDelay+0x20>
C:\Users\nitin.deshpande\Documents\GitHub\microsemi-huawei-liteos\microsemi-liteos\mscc-huawei-wsp\sc-gd450i-board-test\Debug/../kernel/base/core/los_task.c:858
    {
        return LOS_ERRNO_TSK_DELAY_IN_LOCK;
20002fc8:	4b1c      	ldr	r3, [pc, #112]	; (2000303c <LOS_TaskDelay+0x90>)
20002fca:	e02d      	b.n	20003028 <LOS_TaskDelay+0x7c>
C:\Users\nitin.deshpande\Documents\GitHub\microsemi-huawei-liteos\microsemi-liteos\mscc-huawei-wsp\sc-gd450i-board-test\Debug/../kernel/base/core/los_task.c:861
    }

    if (uwTick == 0)
20002fcc:	687b      	ldr	r3, [r7, #4]
20002fce:	2b00      	cmp	r3, #0
20002fd0:	d103      	bne.n	20002fda <LOS_TaskDelay+0x2e>
C:\Users\nitin.deshpande\Documents\GitHub\microsemi-huawei-liteos\microsemi-liteos\mscc-huawei-wsp\sc-gd450i-board-test\Debug/../kernel/base/core/los_task.c:863
    {
        return LOS_TaskYield();
20002fd2:	f000 f837 	bl	20003044 <LOS_TaskYield>
20002fd6:	4603      	mov	r3, r0
20002fd8:	e026      	b.n	20003028 <LOS_TaskDelay+0x7c>
C:\Users\nitin.deshpande\Documents\GitHub\microsemi-huawei-liteos\microsemi-liteos\mscc-huawei-wsp\sc-gd450i-board-test\Debug/../kernel/base/core/los_task.c:867
    }
    else
    {
        uvIntSave = LOS_IntLock();
20002fda:	f7fd fa10 	bl	200003fe <LOS_IntLock>
20002fde:	60f8      	str	r0, [r7, #12]
C:\Users\nitin.deshpande\Documents\GitHub\microsemi-huawei-liteos\microsemi-liteos\mscc-huawei-wsp\sc-gd450i-board-test\Debug/../kernel/base/core/los_task.c:868
        LOS_PriqueueDequeue(&(g_stLosTask.pstRunTask->stPendList));
20002fe0:	4b17      	ldr	r3, [pc, #92]	; (20003040 <LOS_TaskDelay+0x94>)
20002fe2:	681b      	ldr	r3, [r3, #0]
20002fe4:	333c      	adds	r3, #60	; 0x3c
20002fe6:	4618      	mov	r0, r3
20002fe8:	f7ff f8a0 	bl	2000212c <LOS_PriqueueDequeue>
C:\Users\nitin.deshpande\Documents\GitHub\microsemi-huawei-liteos\microsemi-liteos\mscc-huawei-wsp\sc-gd450i-board-test\Debug/../kernel/base/core/los_task.c:869
        g_stLosTask.pstRunTask->usTaskStatus &= (~OS_TASK_STATUS_READY);
20002fec:	4b14      	ldr	r3, [pc, #80]	; (20003040 <LOS_TaskDelay+0x94>)
20002fee:	681b      	ldr	r3, [r3, #0]
20002ff0:	4a13      	ldr	r2, [pc, #76]	; (20003040 <LOS_TaskDelay+0x94>)
20002ff2:	6812      	ldr	r2, [r2, #0]
20002ff4:	8892      	ldrh	r2, [r2, #4]
20002ff6:	f022 0204 	bic.w	r2, r2, #4
20002ffa:	b292      	uxth	r2, r2
20002ffc:	809a      	strh	r2, [r3, #4]
C:\Users\nitin.deshpande\Documents\GitHub\microsemi-huawei-liteos\microsemi-liteos\mscc-huawei-wsp\sc-gd450i-board-test\Debug/../kernel/base/core/los_task.c:870
        osTaskAdd2TimerList((LOS_TASK_CB *)g_stLosTask.pstRunTask, uwTick);
20002ffe:	4b10      	ldr	r3, [pc, #64]	; (20003040 <LOS_TaskDelay+0x94>)
20003000:	681b      	ldr	r3, [r3, #0]
20003002:	6879      	ldr	r1, [r7, #4]
20003004:	4618      	mov	r0, r3
20003006:	f7ff fb05 	bl	20002614 <osTaskAdd2TimerList>
C:\Users\nitin.deshpande\Documents\GitHub\microsemi-huawei-liteos\microsemi-liteos\mscc-huawei-wsp\sc-gd450i-board-test\Debug/../kernel/base/core/los_task.c:871
        g_stLosTask.pstRunTask->usTaskStatus |= OS_TASK_STATUS_DELAY;
2000300a:	4b0d      	ldr	r3, [pc, #52]	; (20003040 <LOS_TaskDelay+0x94>)
2000300c:	681b      	ldr	r3, [r3, #0]
2000300e:	4a0c      	ldr	r2, [pc, #48]	; (20003040 <LOS_TaskDelay+0x94>)
20003010:	6812      	ldr	r2, [r2, #0]
20003012:	8892      	ldrh	r2, [r2, #4]
20003014:	f042 0220 	orr.w	r2, r2, #32
20003018:	b292      	uxth	r2, r2
2000301a:	809a      	strh	r2, [r3, #4]
C:\Users\nitin.deshpande\Documents\GitHub\microsemi-huawei-liteos\microsemi-liteos\mscc-huawei-wsp\sc-gd450i-board-test\Debug/../kernel/base/core/los_task.c:872
        (VOID)LOS_IntRestore(uvIntSave);
2000301c:	68f8      	ldr	r0, [r7, #12]
2000301e:	f7fd f9f6 	bl	2000040e <LOS_IntRestore>
C:\Users\nitin.deshpande\Documents\GitHub\microsemi-huawei-liteos\microsemi-liteos\mscc-huawei-wsp\sc-gd450i-board-test\Debug/../kernel/base/core/los_task.c:873
        LOS_Schedule();
20003022:	f7fd fa4d 	bl	200004c0 <LOS_Schedule>
C:\Users\nitin.deshpande\Documents\GitHub\microsemi-huawei-liteos\microsemi-liteos\mscc-huawei-wsp\sc-gd450i-board-test\Debug/../kernel/base/core/los_task.c:876
    }

    return LOS_OK;
20003026:	2300      	movs	r3, #0
C:\Users\nitin.deshpande\Documents\GitHub\microsemi-huawei-liteos\microsemi-liteos\mscc-huawei-wsp\sc-gd450i-board-test\Debug/../kernel/base/core/los_task.c:877
}
20003028:	4618      	mov	r0, r3
2000302a:	3710      	adds	r7, #16
2000302c:	46bd      	mov	sp, r7
2000302e:	bd80      	pop	{r7, pc}
20003030:	200047f0 	.word	0x200047f0
20003034:	0300020d 	.word	0x0300020d
20003038:	20004968 	.word	0x20004968
2000303c:	0200020e 	.word	0x0200020e
20003040:	2000496c 	.word	0x2000496c

20003044 <LOS_TaskYield>:
LOS_TaskYield():
C:\Users\nitin.deshpande\Documents\GitHub\microsemi-huawei-liteos\microsemi-liteos\mscc-huawei-wsp\sc-gd450i-board-test\Debug/../kernel/base/core/los_task.c:999
               uwNextTask
 Output      : None
 Return      : LOS_OK on success or error code on failure
 *****************************************************************************/
LITE_OS_SEC_TEXT_MINOR UINT32 LOS_TaskYield(VOID)
{
20003044:	b580      	push	{r7, lr}
20003046:	b082      	sub	sp, #8
20003048:	af00      	add	r7, sp, #0
C:\Users\nitin.deshpande\Documents\GitHub\microsemi-huawei-liteos\microsemi-liteos\mscc-huawei-wsp\sc-gd450i-board-test\Debug/../kernel/base/core/los_task.c:1000
    UINT32 uwTskCount = 0;
2000304a:	2300      	movs	r3, #0
2000304c:	607b      	str	r3, [r7, #4]
C:\Users\nitin.deshpande\Documents\GitHub\microsemi-huawei-liteos\microsemi-liteos\mscc-huawei-wsp\sc-gd450i-board-test\Debug/../kernel/base/core/los_task.c:1003
    UINTPTR uvIntSave;

    if(g_stLosTask.pstRunTask->uwTaskID >= g_uwTskMaxNum)
2000304e:	4b1f      	ldr	r3, [pc, #124]	; (200030cc <LOS_TaskYield+0x88>)
20003050:	681b      	ldr	r3, [r3, #0]
20003052:	691a      	ldr	r2, [r3, #16]
20003054:	4b1e      	ldr	r3, [pc, #120]	; (200030d0 <LOS_TaskYield+0x8c>)
20003056:	681b      	ldr	r3, [r3, #0]
20003058:	429a      	cmp	r2, r3
2000305a:	d301      	bcc.n	20003060 <LOS_TaskYield+0x1c>
C:\Users\nitin.deshpande\Documents\GitHub\microsemi-huawei-liteos\microsemi-liteos\mscc-huawei-wsp\sc-gd450i-board-test\Debug/../kernel/base/core/los_task.c:1005
    {
        return LOS_ERRNO_TSK_ID_INVALID;
2000305c:	4b1d      	ldr	r3, [pc, #116]	; (200030d4 <LOS_TaskYield+0x90>)
2000305e:	e031      	b.n	200030c4 <LOS_TaskYield+0x80>
C:\Users\nitin.deshpande\Documents\GitHub\microsemi-huawei-liteos\microsemi-liteos\mscc-huawei-wsp\sc-gd450i-board-test\Debug/../kernel/base/core/los_task.c:1007
    }
    uvIntSave = LOS_IntLock();
20003060:	f7fd f9cd 	bl	200003fe <LOS_IntLock>
20003064:	6038      	str	r0, [r7, #0]
C:\Users\nitin.deshpande\Documents\GitHub\microsemi-huawei-liteos\microsemi-liteos\mscc-huawei-wsp\sc-gd450i-board-test\Debug/../kernel/base/core/los_task.c:1008
    uwTskCount = LOS_PriqueueSize(g_stLosTask.pstRunTask->usPriority);
20003066:	4b19      	ldr	r3, [pc, #100]	; (200030cc <LOS_TaskYield+0x88>)
20003068:	681b      	ldr	r3, [r3, #0]
2000306a:	88db      	ldrh	r3, [r3, #6]
2000306c:	4618      	mov	r0, r3
2000306e:	f7ff f891 	bl	20002194 <LOS_PriqueueSize>
20003072:	6078      	str	r0, [r7, #4]
C:\Users\nitin.deshpande\Documents\GitHub\microsemi-huawei-liteos\microsemi-liteos\mscc-huawei-wsp\sc-gd450i-board-test\Debug/../kernel/base/core/los_task.c:1009
    if (uwTskCount > 1)
20003074:	687b      	ldr	r3, [r7, #4]
20003076:	2b01      	cmp	r3, #1
20003078:	d920      	bls.n	200030bc <LOS_TaskYield+0x78>
C:\Users\nitin.deshpande\Documents\GitHub\microsemi-huawei-liteos\microsemi-liteos\mscc-huawei-wsp\sc-gd450i-board-test\Debug/../kernel/base/core/los_task.c:1011
    {
        LOS_ListDelete(&(g_stLosTask.pstRunTask->stPendList));
2000307a:	4b14      	ldr	r3, [pc, #80]	; (200030cc <LOS_TaskYield+0x88>)
2000307c:	681b      	ldr	r3, [r3, #0]
2000307e:	333c      	adds	r3, #60	; 0x3c
20003080:	4618      	mov	r0, r3
20003082:	f7ff fa97 	bl	200025b4 <LOS_ListDelete>
C:\Users\nitin.deshpande\Documents\GitHub\microsemi-huawei-liteos\microsemi-liteos\mscc-huawei-wsp\sc-gd450i-board-test\Debug/../kernel/base/core/los_task.c:1012
        g_stLosTask.pstRunTask->usTaskStatus |= OS_TASK_STATUS_READY;
20003086:	4b11      	ldr	r3, [pc, #68]	; (200030cc <LOS_TaskYield+0x88>)
20003088:	681b      	ldr	r3, [r3, #0]
2000308a:	4a10      	ldr	r2, [pc, #64]	; (200030cc <LOS_TaskYield+0x88>)
2000308c:	6812      	ldr	r2, [r2, #0]
2000308e:	8892      	ldrh	r2, [r2, #4]
20003090:	f042 0204 	orr.w	r2, r2, #4
20003094:	b292      	uxth	r2, r2
20003096:	809a      	strh	r2, [r3, #4]
C:\Users\nitin.deshpande\Documents\GitHub\microsemi-huawei-liteos\microsemi-liteos\mscc-huawei-wsp\sc-gd450i-board-test\Debug/../kernel/base/core/los_task.c:1013
        LOS_PriqueueEnqueue(&(g_stLosTask.pstRunTask->stPendList), g_stLosTask.pstRunTask->usPriority);
20003098:	4b0c      	ldr	r3, [pc, #48]	; (200030cc <LOS_TaskYield+0x88>)
2000309a:	681b      	ldr	r3, [r3, #0]
2000309c:	f103 023c 	add.w	r2, r3, #60	; 0x3c
200030a0:	4b0a      	ldr	r3, [pc, #40]	; (200030cc <LOS_TaskYield+0x88>)
200030a2:	681b      	ldr	r3, [r3, #0]
200030a4:	88db      	ldrh	r3, [r3, #6]
200030a6:	4619      	mov	r1, r3
200030a8:	4610      	mov	r0, r2
200030aa:	f7ff f82b 	bl	20002104 <LOS_PriqueueEnqueue>
C:\Users\nitin.deshpande\Documents\GitHub\microsemi-huawei-liteos\microsemi-liteos\mscc-huawei-wsp\sc-gd450i-board-test\Debug/../kernel/base/core/los_task.c:1021
    {
        (VOID)LOS_IntRestore(uvIntSave);
        return LOS_ERRNO_TSK_YIELD_NOT_ENOUGH_TASK;
    }

    (VOID)LOS_IntRestore(uvIntSave);
200030ae:	6838      	ldr	r0, [r7, #0]
200030b0:	f7fd f9ad 	bl	2000040e <LOS_IntRestore>
C:\Users\nitin.deshpande\Documents\GitHub\microsemi-huawei-liteos\microsemi-liteos\mscc-huawei-wsp\sc-gd450i-board-test\Debug/../kernel/base/core/los_task.c:1022
    LOS_Schedule();
200030b4:	f7fd fa04 	bl	200004c0 <LOS_Schedule>
C:\Users\nitin.deshpande\Documents\GitHub\microsemi-huawei-liteos\microsemi-liteos\mscc-huawei-wsp\sc-gd450i-board-test\Debug/../kernel/base/core/los_task.c:1023
    return LOS_OK;
200030b8:	2300      	movs	r3, #0
200030ba:	e003      	b.n	200030c4 <LOS_TaskYield+0x80>
C:\Users\nitin.deshpande\Documents\GitHub\microsemi-huawei-liteos\microsemi-liteos\mscc-huawei-wsp\sc-gd450i-board-test\Debug/../kernel/base/core/los_task.c:1017
        (VOID)LOS_IntRestore(uvIntSave);
200030bc:	6838      	ldr	r0, [r7, #0]
200030be:	f7fd f9a6 	bl	2000040e <LOS_IntRestore>
C:\Users\nitin.deshpande\Documents\GitHub\microsemi-huawei-liteos\microsemi-liteos\mscc-huawei-wsp\sc-gd450i-board-test\Debug/../kernel/base/core/los_task.c:1018
        return LOS_ERRNO_TSK_YIELD_NOT_ENOUGH_TASK;
200030c2:	4b05      	ldr	r3, [pc, #20]	; (200030d8 <LOS_TaskYield+0x94>)
C:\Users\nitin.deshpande\Documents\GitHub\microsemi-huawei-liteos\microsemi-liteos\mscc-huawei-wsp\sc-gd450i-board-test\Debug/../kernel/base/core/los_task.c:1024
}
200030c4:	4618      	mov	r0, r3
200030c6:	3708      	adds	r7, #8
200030c8:	46bd      	mov	sp, r7
200030ca:	bd80      	pop	{r7, pc}
200030cc:	2000496c 	.word	0x2000496c
200030d0:	20004964 	.word	0x20004964
200030d4:	02000207 	.word	0x02000207
200030d8:	02000210 	.word	0x02000210

200030dc <LOS_TaskLock>:
LOS_TaskLock():
C:\Users\nitin.deshpande\Documents\GitHub\microsemi-huawei-liteos\microsemi-liteos\mscc-huawei-wsp\sc-gd450i-board-test\Debug/../kernel/base/core/los_task.c:1034
 Input       : None
 Output      : None
 Return      : None
 *****************************************************************************/
LITE_OS_SEC_TEXT_MINOR VOID LOS_TaskLock(VOID)
{
200030dc:	b580      	push	{r7, lr}
200030de:	b082      	sub	sp, #8
200030e0:	af00      	add	r7, sp, #0
C:\Users\nitin.deshpande\Documents\GitHub\microsemi-huawei-liteos\microsemi-liteos\mscc-huawei-wsp\sc-gd450i-board-test\Debug/../kernel/base/core/los_task.c:1037
    UINTPTR uvIntSave;

    uvIntSave = LOS_IntLock();
200030e2:	f7fd f98c 	bl	200003fe <LOS_IntLock>
200030e6:	6078      	str	r0, [r7, #4]
C:\Users\nitin.deshpande\Documents\GitHub\microsemi-huawei-liteos\microsemi-liteos\mscc-huawei-wsp\sc-gd450i-board-test\Debug/../kernel/base/core/los_task.c:1038
    g_usLosTaskLock++;
200030e8:	4b06      	ldr	r3, [pc, #24]	; (20003104 <LOS_TaskLock+0x28>)
200030ea:	881b      	ldrh	r3, [r3, #0]
200030ec:	3301      	adds	r3, #1
200030ee:	b29a      	uxth	r2, r3
200030f0:	4b04      	ldr	r3, [pc, #16]	; (20003104 <LOS_TaskLock+0x28>)
200030f2:	801a      	strh	r2, [r3, #0]
C:\Users\nitin.deshpande\Documents\GitHub\microsemi-huawei-liteos\microsemi-liteos\mscc-huawei-wsp\sc-gd450i-board-test\Debug/../kernel/base/core/los_task.c:1039
    (VOID)LOS_IntRestore(uvIntSave);
200030f4:	6878      	ldr	r0, [r7, #4]
200030f6:	f7fd f98a 	bl	2000040e <LOS_IntRestore>
C:\Users\nitin.deshpande\Documents\GitHub\microsemi-huawei-liteos\microsemi-liteos\mscc-huawei-wsp\sc-gd450i-board-test\Debug/../kernel/base/core/los_task.c:1040
}
200030fa:	bf00      	nop
200030fc:	3708      	adds	r7, #8
200030fe:	46bd      	mov	sp, r7
20003100:	bd80      	pop	{r7, pc}
20003102:	bf00      	nop
20003104:	20004968 	.word	0x20004968

20003108 <LOS_TaskUnlock>:
LOS_TaskUnlock():
C:\Users\nitin.deshpande\Documents\GitHub\microsemi-huawei-liteos\microsemi-liteos\mscc-huawei-wsp\sc-gd450i-board-test\Debug/../kernel/base/core/los_task.c:1050
 Input       : None
 Output      : None
 Return      : None
 *****************************************************************************/
LITE_OS_SEC_TEXT_MINOR VOID LOS_TaskUnlock(VOID)
{
20003108:	b580      	push	{r7, lr}
2000310a:	b082      	sub	sp, #8
2000310c:	af00      	add	r7, sp, #0
C:\Users\nitin.deshpande\Documents\GitHub\microsemi-huawei-liteos\microsemi-liteos\mscc-huawei-wsp\sc-gd450i-board-test\Debug/../kernel/base/core/los_task.c:1053
    UINTPTR uvIntSave;

    uvIntSave = LOS_IntLock();
2000310e:	f7fd f976 	bl	200003fe <LOS_IntLock>
20003112:	6078      	str	r0, [r7, #4]
C:\Users\nitin.deshpande\Documents\GitHub\microsemi-huawei-liteos\microsemi-liteos\mscc-huawei-wsp\sc-gd450i-board-test\Debug/../kernel/base/core/los_task.c:1054
    if (g_usLosTaskLock > 0)
20003114:	4b0c      	ldr	r3, [pc, #48]	; (20003148 <LOS_TaskUnlock+0x40>)
20003116:	881b      	ldrh	r3, [r3, #0]
20003118:	2b00      	cmp	r3, #0
2000311a:	d00f      	beq.n	2000313c <LOS_TaskUnlock+0x34>
C:\Users\nitin.deshpande\Documents\GitHub\microsemi-huawei-liteos\microsemi-liteos\mscc-huawei-wsp\sc-gd450i-board-test\Debug/../kernel/base/core/los_task.c:1056
    {
        g_usLosTaskLock--;
2000311c:	4b0a      	ldr	r3, [pc, #40]	; (20003148 <LOS_TaskUnlock+0x40>)
2000311e:	881b      	ldrh	r3, [r3, #0]
20003120:	3b01      	subs	r3, #1
20003122:	b29a      	uxth	r2, r3
20003124:	4b08      	ldr	r3, [pc, #32]	; (20003148 <LOS_TaskUnlock+0x40>)
20003126:	801a      	strh	r2, [r3, #0]
C:\Users\nitin.deshpande\Documents\GitHub\microsemi-huawei-liteos\microsemi-liteos\mscc-huawei-wsp\sc-gd450i-board-test\Debug/../kernel/base/core/los_task.c:1057
        if (0 == g_usLosTaskLock)
20003128:	4b07      	ldr	r3, [pc, #28]	; (20003148 <LOS_TaskUnlock+0x40>)
2000312a:	881b      	ldrh	r3, [r3, #0]
2000312c:	2b00      	cmp	r3, #0
2000312e:	d105      	bne.n	2000313c <LOS_TaskUnlock+0x34>
C:\Users\nitin.deshpande\Documents\GitHub\microsemi-huawei-liteos\microsemi-liteos\mscc-huawei-wsp\sc-gd450i-board-test\Debug/../kernel/base/core/los_task.c:1059
        {
            (VOID)LOS_IntRestore(uvIntSave);
20003130:	6878      	ldr	r0, [r7, #4]
20003132:	f7fd f96c 	bl	2000040e <LOS_IntRestore>
C:\Users\nitin.deshpande\Documents\GitHub\microsemi-huawei-liteos\microsemi-liteos\mscc-huawei-wsp\sc-gd450i-board-test\Debug/../kernel/base/core/los_task.c:1060
            LOS_Schedule();
20003136:	f7fd f9c3 	bl	200004c0 <LOS_Schedule>
C:\Users\nitin.deshpande\Documents\GitHub\microsemi-huawei-liteos\microsemi-liteos\mscc-huawei-wsp\sc-gd450i-board-test\Debug/../kernel/base/core/los_task.c:1061
            return;
2000313a:	e002      	b.n	20003142 <LOS_TaskUnlock+0x3a>
C:\Users\nitin.deshpande\Documents\GitHub\microsemi-huawei-liteos\microsemi-liteos\mscc-huawei-wsp\sc-gd450i-board-test\Debug/../kernel/base/core/los_task.c:1065
        }
    }

    (VOID)LOS_IntRestore(uvIntSave);
2000313c:	6878      	ldr	r0, [r7, #4]
2000313e:	f7fd f966 	bl	2000040e <LOS_IntRestore>
C:\Users\nitin.deshpande\Documents\GitHub\microsemi-huawei-liteos\microsemi-liteos\mscc-huawei-wsp\sc-gd450i-board-test\Debug/../kernel/base/core/los_task.c:1066
}
20003142:	3708      	adds	r7, #8
20003144:	46bd      	mov	sp, r7
20003146:	bd80      	pop	{r7, pc}
20003148:	20004968 	.word	0x20004968

2000314c <osTickHandler>:
osTickHandler():
C:\Users\nitin.deshpande\Documents\GitHub\microsemi-huawei-liteos\microsemi-liteos\mscc-huawei-wsp\sc-gd450i-board-test\Debug/../kernel/base/core/los_tick.c:61
 Output      : None
 Return      : None
 *****************************************************************************/
extern void hal_clock_irqclear(void);
LITE_OS_SEC_TEXT VOID osTickHandler(VOID)
{
2000314c:	b598      	push	{r3, r4, r7, lr}
2000314e:	af00      	add	r7, sp, #0
C:\Users\nitin.deshpande\Documents\GitHub\microsemi-huawei-liteos\microsemi-liteos\mscc-huawei-wsp\sc-gd450i-board-test\Debug/../kernel/base/core/los_tick.c:64


    g_ullTickCount ++;
20003150:	4b08      	ldr	r3, [pc, #32]	; (20003174 <osTickHandler+0x28>)
20003152:	e9d3 3400 	ldrd	r3, r4, [r3]
20003156:	3301      	adds	r3, #1
20003158:	f144 0400 	adc.w	r4, r4, #0
2000315c:	4a05      	ldr	r2, [pc, #20]	; (20003174 <osTickHandler+0x28>)
2000315e:	e9c2 3400 	strd	r3, r4, [r2]
C:\Users\nitin.deshpande\Documents\GitHub\microsemi-huawei-liteos\microsemi-liteos\mscc-huawei-wsp\sc-gd450i-board-test\Debug/../kernel/base/core/los_tick.c:67

    #if(LOSCFG_BASE_CORE_TIMESLICE == YES)
    osTimesliceCheck();
20003162:	f000 f819 	bl	20003198 <osTimesliceCheck>
C:\Users\nitin.deshpande\Documents\GitHub\microsemi-huawei-liteos\microsemi-liteos\mscc-huawei-wsp\sc-gd450i-board-test\Debug/../kernel/base/core/los_tick.c:70
    #endif

    osTaskScan();   //task timeout scan
20003166:	f7ff fb0f 	bl	20002788 <osTaskScan>
C:\Users\nitin.deshpande\Documents\GitHub\microsemi-huawei-liteos\microsemi-liteos\mscc-huawei-wsp\sc-gd450i-board-test\Debug/../kernel/base/core/los_tick.c:73

    #if (LOSCFG_BASE_CORE_SWTMR == YES)
    if (osSwtmrScan() != LOS_OK){
2000316a:	f7ff f9d5 	bl	20002518 <osSwtmrScan>
C:\Users\nitin.deshpande\Documents\GitHub\microsemi-huawei-liteos\microsemi-liteos\mscc-huawei-wsp\sc-gd450i-board-test\Debug/../kernel/base/core/los_tick.c:77
        PRINT_ERR("%s, %d\n", __FUNCTION__, __LINE__);
    }
    #endif
}
2000316e:	bf00      	nop
20003170:	bd98      	pop	{r3, r4, r7, pc}
20003172:	bf00      	nop
20003174:	20004988 	.word	0x20004988

20003178 <osTimesliceInit>:
osTimesliceInit():
C:\Users\nitin.deshpande\Documents\GitHub\microsemi-huawei-liteos\microsemi-liteos\mscc-huawei-wsp\sc-gd450i-board-test\Debug/../kernel/base/core/los_timeslice.c:57
 Input        : None
 Output       : None
 Return       : None
 *****************************************************************************/
LITE_OS_SEC_TEXT_INIT VOID osTimesliceInit(VOID)
{
20003178:	b480      	push	{r7}
2000317a:	af00      	add	r7, sp, #0
C:\Users\nitin.deshpande\Documents\GitHub\microsemi-huawei-liteos\microsemi-liteos\mscc-huawei-wsp\sc-gd450i-board-test\Debug/../kernel/base/core/los_timeslice.c:58
    g_stTaskTimeSlice.pstTask = (LOS_TASK_CB *)NULL;
2000317c:	4b05      	ldr	r3, [pc, #20]	; (20003194 <osTimesliceInit+0x1c>)
2000317e:	2200      	movs	r2, #0
20003180:	601a      	str	r2, [r3, #0]
C:\Users\nitin.deshpande\Documents\GitHub\microsemi-huawei-liteos\microsemi-liteos\mscc-huawei-wsp\sc-gd450i-board-test\Debug/../kernel/base/core/los_timeslice.c:59
    g_stTaskTimeSlice.usTout = LOSCFG_BASE_CORE_TIMESLICE_TIMEOUT;
20003182:	4b04      	ldr	r3, [pc, #16]	; (20003194 <osTimesliceInit+0x1c>)
20003184:	220a      	movs	r2, #10
20003186:	80da      	strh	r2, [r3, #6]
C:\Users\nitin.deshpande\Documents\GitHub\microsemi-huawei-liteos\microsemi-liteos\mscc-huawei-wsp\sc-gd450i-board-test\Debug/../kernel/base/core/los_timeslice.c:60
}
20003188:	bf00      	nop
2000318a:	46bd      	mov	sp, r7
2000318c:	f85d 7b04 	ldr.w	r7, [sp], #4
20003190:	4770      	bx	lr
20003192:	bf00      	nop
20003194:	20004998 	.word	0x20004998

20003198 <osTimesliceCheck>:
osTimesliceCheck():
C:\Users\nitin.deshpande\Documents\GitHub\microsemi-huawei-liteos\microsemi-liteos\mscc-huawei-wsp\sc-gd450i-board-test\Debug/../kernel/base/core/los_timeslice.c:70
 Input        : None
 Output       : None
 Return       : None
 *****************************************************************************/
LITE_OS_SEC_TEXT VOID osTimesliceCheck(VOID)
{
20003198:	b598      	push	{r3, r4, r7, lr}
2000319a:	af00      	add	r7, sp, #0
C:\Users\nitin.deshpande\Documents\GitHub\microsemi-huawei-liteos\microsemi-liteos\mscc-huawei-wsp\sc-gd450i-board-test\Debug/../kernel/base/core/los_timeslice.c:71
    if (g_stTaskTimeSlice.pstTask != g_stLosTask.pstRunTask)
2000319c:	4b12      	ldr	r3, [pc, #72]	; (200031e8 <osTimesliceCheck+0x50>)
2000319e:	681a      	ldr	r2, [r3, #0]
200031a0:	4b12      	ldr	r3, [pc, #72]	; (200031ec <osTimesliceCheck+0x54>)
200031a2:	681b      	ldr	r3, [r3, #0]
200031a4:	429a      	cmp	r2, r3
200031a6:	d00f      	beq.n	200031c8 <osTimesliceCheck+0x30>
C:\Users\nitin.deshpande\Documents\GitHub\microsemi-huawei-liteos\microsemi-liteos\mscc-huawei-wsp\sc-gd450i-board-test\Debug/../kernel/base/core/los_timeslice.c:73
    {
        g_stTaskTimeSlice.pstTask = g_stLosTask.pstRunTask;
200031a8:	4b10      	ldr	r3, [pc, #64]	; (200031ec <osTimesliceCheck+0x54>)
200031aa:	681b      	ldr	r3, [r3, #0]
200031ac:	4a0e      	ldr	r2, [pc, #56]	; (200031e8 <osTimesliceCheck+0x50>)
200031ae:	6013      	str	r3, [r2, #0]
C:\Users\nitin.deshpande\Documents\GitHub\microsemi-huawei-liteos\microsemi-liteos\mscc-huawei-wsp\sc-gd450i-board-test\Debug/../kernel/base/core/los_timeslice.c:74
        g_stTaskTimeSlice.usTime = (UINT16)g_ullTickCount + g_stTaskTimeSlice.usTout - 1;
200031b0:	4b0f      	ldr	r3, [pc, #60]	; (200031f0 <osTimesliceCheck+0x58>)
200031b2:	e9d3 3400 	ldrd	r3, r4, [r3]
200031b6:	b29a      	uxth	r2, r3
200031b8:	4b0b      	ldr	r3, [pc, #44]	; (200031e8 <osTimesliceCheck+0x50>)
200031ba:	88db      	ldrh	r3, [r3, #6]
200031bc:	4413      	add	r3, r2
200031be:	b29b      	uxth	r3, r3
200031c0:	3b01      	subs	r3, #1
200031c2:	b29a      	uxth	r2, r3
200031c4:	4b08      	ldr	r3, [pc, #32]	; (200031e8 <osTimesliceCheck+0x50>)
200031c6:	809a      	strh	r2, [r3, #4]
C:\Users\nitin.deshpande\Documents\GitHub\microsemi-huawei-liteos\microsemi-liteos\mscc-huawei-wsp\sc-gd450i-board-test\Debug/../kernel/base/core/los_timeslice.c:77
    }

    if (g_stTaskTimeSlice.usTime == (UINT16)g_ullTickCount)
200031c8:	4b07      	ldr	r3, [pc, #28]	; (200031e8 <osTimesliceCheck+0x50>)
200031ca:	889a      	ldrh	r2, [r3, #4]
200031cc:	4b08      	ldr	r3, [pc, #32]	; (200031f0 <osTimesliceCheck+0x58>)
200031ce:	e9d3 3400 	ldrd	r3, r4, [r3]
200031d2:	b29b      	uxth	r3, r3
200031d4:	429a      	cmp	r2, r3
200031d6:	d104      	bne.n	200031e2 <osTimesliceCheck+0x4a>
C:\Users\nitin.deshpande\Documents\GitHub\microsemi-huawei-liteos\microsemi-liteos\mscc-huawei-wsp\sc-gd450i-board-test\Debug/../kernel/base/core/los_timeslice.c:79
    {
        g_stTaskTimeSlice.pstTask = (LOS_TASK_CB *)NULL;
200031d8:	4b03      	ldr	r3, [pc, #12]	; (200031e8 <osTimesliceCheck+0x50>)
200031da:	2200      	movs	r2, #0
200031dc:	601a      	str	r2, [r3, #0]
C:\Users\nitin.deshpande\Documents\GitHub\microsemi-huawei-liteos\microsemi-liteos\mscc-huawei-wsp\sc-gd450i-board-test\Debug/../kernel/base/core/los_timeslice.c:80
        if (LOS_TaskYield() != LOS_OK)
200031de:	f7ff ff31 	bl	20003044 <LOS_TaskYield>
C:\Users\nitin.deshpande\Documents\GitHub\microsemi-huawei-liteos\microsemi-liteos\mscc-huawei-wsp\sc-gd450i-board-test\Debug/../kernel/base/core/los_timeslice.c:85
        {
            PRINT_INFO("%s, %d\n", __FUNCTION__, __LINE__);
        }
    } /*lint !e548*/
}
200031e2:	bf00      	nop
200031e4:	bd98      	pop	{r3, r4, r7, pc}
200031e6:	bf00      	nop
200031e8:	20004998 	.word	0x20004998
200031ec:	2000496c 	.word	0x2000496c
200031f0:	20004988 	.word	0x20004988

200031f4 <NMI_Handler>:
NMI_Handler():
C:\Users\nitin.deshpande\Documents\GitHub\microsemi-huawei-liteos\microsemi-liteos\mscc-huawei-wsp\sc-gd450i-board-test\Debug/../gd32firmware/demo/src/gd32f4xx_it.c:35
    \param[in]  none
    \param[out] none
    \retval     none
*/
void NMI_Handler(void)
{
200031f4:	b480      	push	{r7}
200031f6:	af00      	add	r7, sp, #0
C:\Users\nitin.deshpande\Documents\GitHub\microsemi-huawei-liteos\microsemi-liteos\mscc-huawei-wsp\sc-gd450i-board-test\Debug/../gd32firmware/demo/src/gd32f4xx_it.c:36
}
200031f8:	bf00      	nop
200031fa:	46bd      	mov	sp, r7
200031fc:	f85d 7b04 	ldr.w	r7, [sp], #4
20003200:	4770      	bx	lr

20003202 <HardFault_Handler>:
HardFault_Handler():
C:\Users\nitin.deshpande\Documents\GitHub\microsemi-huawei-liteos\microsemi-liteos\mscc-huawei-wsp\sc-gd450i-board-test\Debug/../gd32firmware/demo/src/gd32f4xx_it.c:45
    \param[in]  none
    \param[out] none
    \retval     none
*/
void HardFault_Handler(void)
{
20003202:	b480      	push	{r7}
20003204:	af00      	add	r7, sp, #0
C:\Users\nitin.deshpande\Documents\GitHub\microsemi-huawei-liteos\microsemi-liteos\mscc-huawei-wsp\sc-gd450i-board-test\Debug/../gd32firmware/demo/src/gd32f4xx_it.c:47 (discriminator 1)
    /* if Hard Fault exception occurs, go to infinite loop */
    while (1){
20003206:	e7fe      	b.n	20003206 <HardFault_Handler+0x4>

20003208 <MemManage_Handler>:
MemManage_Handler():
C:\Users\nitin.deshpande\Documents\GitHub\microsemi-huawei-liteos\microsemi-liteos\mscc-huawei-wsp\sc-gd450i-board-test\Debug/../gd32firmware/demo/src/gd32f4xx_it.c:58
    \param[in]  none
    \param[out] none
    \retval     none
*/
void MemManage_Handler(void)
{
20003208:	b480      	push	{r7}
2000320a:	af00      	add	r7, sp, #0
C:\Users\nitin.deshpande\Documents\GitHub\microsemi-huawei-liteos\microsemi-liteos\mscc-huawei-wsp\sc-gd450i-board-test\Debug/../gd32firmware/demo/src/gd32f4xx_it.c:60 (discriminator 1)
    /* if Memory Manage exception occurs, go to infinite loop */
    while (1){
2000320c:	e7fe      	b.n	2000320c <MemManage_Handler+0x4>

2000320e <BusFault_Handler>:
BusFault_Handler():
C:\Users\nitin.deshpande\Documents\GitHub\microsemi-huawei-liteos\microsemi-liteos\mscc-huawei-wsp\sc-gd450i-board-test\Debug/../gd32firmware/demo/src/gd32f4xx_it.c:71
    \param[in]  none
    \param[out] none
    \retval     none
*/
void BusFault_Handler(void)
{
2000320e:	b480      	push	{r7}
20003210:	af00      	add	r7, sp, #0
C:\Users\nitin.deshpande\Documents\GitHub\microsemi-huawei-liteos\microsemi-liteos\mscc-huawei-wsp\sc-gd450i-board-test\Debug/../gd32firmware/demo/src/gd32f4xx_it.c:73 (discriminator 1)
    /* if Bus Fault exception occurs, go to infinite loop */
    while (1){
20003212:	e7fe      	b.n	20003212 <BusFault_Handler+0x4>

20003214 <UsageFault_Handler>:
UsageFault_Handler():
C:\Users\nitin.deshpande\Documents\GitHub\microsemi-huawei-liteos\microsemi-liteos\mscc-huawei-wsp\sc-gd450i-board-test\Debug/../gd32firmware/demo/src/gd32f4xx_it.c:84
    \param[in]  none
    \param[out] none
    \retval     none
*/
void UsageFault_Handler(void)
{
20003214:	b480      	push	{r7}
20003216:	af00      	add	r7, sp, #0
C:\Users\nitin.deshpande\Documents\GitHub\microsemi-huawei-liteos\microsemi-liteos\mscc-huawei-wsp\sc-gd450i-board-test\Debug/../gd32firmware/demo/src/gd32f4xx_it.c:86 (discriminator 1)
    /* if Usage Fault exception occurs, go to infinite loop */
    while (1){
20003218:	e7fe      	b.n	20003218 <UsageFault_Handler+0x4>
	...

2000321c <gd_eval_led_init>:
gd_eval_led_init():
C:\Users\nitin.deshpande\Documents\GitHub\microsemi-huawei-liteos\microsemi-liteos\mscc-huawei-wsp\sc-gd450i-board-test\Debug/../gd32firmware/Library/Utilities/gd32f450i_eval.c:56
      \arg        LED3
    \param[out] none
    \retval     none
*/
void  gd_eval_led_init (led_typedef_enum lednum)
{
2000321c:	b580      	push	{r7, lr}
2000321e:	b082      	sub	sp, #8
20003220:	af00      	add	r7, sp, #0
20003222:	4603      	mov	r3, r0
20003224:	71fb      	strb	r3, [r7, #7]
C:\Users\nitin.deshpande\Documents\GitHub\microsemi-huawei-liteos\microsemi-liteos\mscc-huawei-wsp\sc-gd450i-board-test\Debug/../gd32firmware/Library/Utilities/gd32f450i_eval.c:58
    /* enable the led clock */
    rcu_periph_clock_enable(GPIO_CLK[lednum]);
20003226:	79fb      	ldrb	r3, [r7, #7]
20003228:	4a16      	ldr	r2, [pc, #88]	; (20003284 <gd_eval_led_init+0x68>)
2000322a:	f832 3013 	ldrh.w	r3, [r2, r3, lsl #1]
2000322e:	4618      	mov	r0, r3
20003230:	f000 fb2e 	bl	20003890 <rcu_periph_clock_enable>
C:\Users\nitin.deshpande\Documents\GitHub\microsemi-huawei-liteos\microsemi-liteos\mscc-huawei-wsp\sc-gd450i-board-test\Debug/../gd32firmware/Library/Utilities/gd32f450i_eval.c:60
    /* configure led GPIO port */ 
    gpio_mode_set(GPIO_PORT[lednum], GPIO_MODE_OUTPUT, GPIO_PUPD_NONE,GPIO_PIN[lednum]);
20003234:	79fb      	ldrb	r3, [r7, #7]
20003236:	4a14      	ldr	r2, [pc, #80]	; (20003288 <gd_eval_led_init+0x6c>)
20003238:	f852 0023 	ldr.w	r0, [r2, r3, lsl #2]
2000323c:	79fb      	ldrb	r3, [r7, #7]
2000323e:	4a13      	ldr	r2, [pc, #76]	; (2000328c <gd_eval_led_init+0x70>)
20003240:	f852 3023 	ldr.w	r3, [r2, r3, lsl #2]
20003244:	2200      	movs	r2, #0
20003246:	2101      	movs	r1, #1
20003248:	f000 f9a0 	bl	2000358c <gpio_mode_set>
C:\Users\nitin.deshpande\Documents\GitHub\microsemi-huawei-liteos\microsemi-liteos\mscc-huawei-wsp\sc-gd450i-board-test\Debug/../gd32firmware/Library/Utilities/gd32f450i_eval.c:61
    gpio_output_options_set(GPIO_PORT[lednum], GPIO_OTYPE_PP, GPIO_OSPEED_50MHZ,GPIO_PIN[lednum]);
2000324c:	79fb      	ldrb	r3, [r7, #7]
2000324e:	4a0e      	ldr	r2, [pc, #56]	; (20003288 <gd_eval_led_init+0x6c>)
20003250:	f852 0023 	ldr.w	r0, [r2, r3, lsl #2]
20003254:	79fb      	ldrb	r3, [r7, #7]
20003256:	4a0d      	ldr	r2, [pc, #52]	; (2000328c <gd_eval_led_init+0x70>)
20003258:	f852 3023 	ldr.w	r3, [r2, r3, lsl #2]
2000325c:	2202      	movs	r2, #2
2000325e:	2100      	movs	r1, #0
20003260:	f000 f9e2 	bl	20003628 <gpio_output_options_set>
C:\Users\nitin.deshpande\Documents\GitHub\microsemi-huawei-liteos\microsemi-liteos\mscc-huawei-wsp\sc-gd450i-board-test\Debug/../gd32firmware/Library/Utilities/gd32f450i_eval.c:63

    GPIO_BC(GPIO_PORT[lednum]) = GPIO_PIN[lednum];
20003264:	79fb      	ldrb	r3, [r7, #7]
20003266:	4a08      	ldr	r2, [pc, #32]	; (20003288 <gd_eval_led_init+0x6c>)
20003268:	f852 3023 	ldr.w	r3, [r2, r3, lsl #2]
2000326c:	3328      	adds	r3, #40	; 0x28
2000326e:	4619      	mov	r1, r3
20003270:	79fb      	ldrb	r3, [r7, #7]
20003272:	4a06      	ldr	r2, [pc, #24]	; (2000328c <gd_eval_led_init+0x70>)
20003274:	f852 3023 	ldr.w	r3, [r2, r3, lsl #2]
20003278:	600b      	str	r3, [r1, #0]
C:\Users\nitin.deshpande\Documents\GitHub\microsemi-huawei-liteos\microsemi-liteos\mscc-huawei-wsp\sc-gd450i-board-test\Debug/../gd32firmware/Library/Utilities/gd32f450i_eval.c:64
}
2000327a:	bf00      	nop
2000327c:	3708      	adds	r7, #8
2000327e:	46bd      	mov	sp, r7
20003280:	bd80      	pop	{r7, pc}
20003282:	bf00      	nop
20003284:	20004388 	.word	0x20004388
20003288:	20004364 	.word	0x20004364
2000328c:	20004370 	.word	0x20004370

20003290 <gd_eval_led_on>:
gd_eval_led_on():
C:\Users\nitin.deshpande\Documents\GitHub\microsemi-huawei-liteos\microsemi-liteos\mscc-huawei-wsp\sc-gd450i-board-test\Debug/../gd32firmware/Library/Utilities/gd32f450i_eval.c:76
      \arg        LED3
    \param[out] none
    \retval     none
*/
void gd_eval_led_on(led_typedef_enum lednum)
{
20003290:	b480      	push	{r7}
20003292:	b083      	sub	sp, #12
20003294:	af00      	add	r7, sp, #0
20003296:	4603      	mov	r3, r0
20003298:	71fb      	strb	r3, [r7, #7]
C:\Users\nitin.deshpande\Documents\GitHub\microsemi-huawei-liteos\microsemi-liteos\mscc-huawei-wsp\sc-gd450i-board-test\Debug/../gd32firmware/Library/Utilities/gd32f450i_eval.c:77
    GPIO_BOP(GPIO_PORT[lednum]) = GPIO_PIN[lednum];
2000329a:	79fb      	ldrb	r3, [r7, #7]
2000329c:	4a07      	ldr	r2, [pc, #28]	; (200032bc <gd_eval_led_on+0x2c>)
2000329e:	f852 3023 	ldr.w	r3, [r2, r3, lsl #2]
200032a2:	3318      	adds	r3, #24
200032a4:	4619      	mov	r1, r3
200032a6:	79fb      	ldrb	r3, [r7, #7]
200032a8:	4a05      	ldr	r2, [pc, #20]	; (200032c0 <gd_eval_led_on+0x30>)
200032aa:	f852 3023 	ldr.w	r3, [r2, r3, lsl #2]
200032ae:	600b      	str	r3, [r1, #0]
C:\Users\nitin.deshpande\Documents\GitHub\microsemi-huawei-liteos\microsemi-liteos\mscc-huawei-wsp\sc-gd450i-board-test\Debug/../gd32firmware/Library/Utilities/gd32f450i_eval.c:78
}
200032b0:	bf00      	nop
200032b2:	370c      	adds	r7, #12
200032b4:	46bd      	mov	sp, r7
200032b6:	f85d 7b04 	ldr.w	r7, [sp], #4
200032ba:	4770      	bx	lr
200032bc:	20004364 	.word	0x20004364
200032c0:	20004370 	.word	0x20004370

200032c4 <gd_eval_led_off>:
gd_eval_led_off():
C:\Users\nitin.deshpande\Documents\GitHub\microsemi-huawei-liteos\microsemi-liteos\mscc-huawei-wsp\sc-gd450i-board-test\Debug/../gd32firmware/Library/Utilities/gd32f450i_eval.c:90
      \arg        LED3
    \param[out] none
    \retval     none
*/
void gd_eval_led_off(led_typedef_enum lednum)
{
200032c4:	b480      	push	{r7}
200032c6:	b083      	sub	sp, #12
200032c8:	af00      	add	r7, sp, #0
200032ca:	4603      	mov	r3, r0
200032cc:	71fb      	strb	r3, [r7, #7]
C:\Users\nitin.deshpande\Documents\GitHub\microsemi-huawei-liteos\microsemi-liteos\mscc-huawei-wsp\sc-gd450i-board-test\Debug/../gd32firmware/Library/Utilities/gd32f450i_eval.c:91
    GPIO_BC(GPIO_PORT[lednum]) = GPIO_PIN[lednum];
200032ce:	79fb      	ldrb	r3, [r7, #7]
200032d0:	4a07      	ldr	r2, [pc, #28]	; (200032f0 <gd_eval_led_off+0x2c>)
200032d2:	f852 3023 	ldr.w	r3, [r2, r3, lsl #2]
200032d6:	3328      	adds	r3, #40	; 0x28
200032d8:	4619      	mov	r1, r3
200032da:	79fb      	ldrb	r3, [r7, #7]
200032dc:	4a05      	ldr	r2, [pc, #20]	; (200032f4 <gd_eval_led_off+0x30>)
200032de:	f852 3023 	ldr.w	r3, [r2, r3, lsl #2]
200032e2:	600b      	str	r3, [r1, #0]
C:\Users\nitin.deshpande\Documents\GitHub\microsemi-huawei-liteos\microsemi-liteos\mscc-huawei-wsp\sc-gd450i-board-test\Debug/../gd32firmware/Library/Utilities/gd32f450i_eval.c:92
}
200032e4:	bf00      	nop
200032e6:	370c      	adds	r7, #12
200032e8:	46bd      	mov	sp, r7
200032ea:	f85d 7b04 	ldr.w	r7, [sp], #4
200032ee:	4770      	bx	lr
200032f0:	20004364 	.word	0x20004364
200032f4:	20004370 	.word	0x20004370

200032f8 <gd_eval_key_init>:
gd_eval_key_init():
C:\Users\nitin.deshpande\Documents\GitHub\microsemi-huawei-liteos\microsemi-liteos\mscc-huawei-wsp\sc-gd450i-board-test\Debug/../gd32firmware/Library/Utilities/gd32f450i_eval.c:121
      \arg        KEY_MODE_EXTI: key will be connected to EXTI line with interrupt
    \param[out] none
    \retval     none
*/
void gd_eval_key_init(key_typedef_enum key_num, keymode_typedef_enum key_mode)
{
200032f8:	b580      	push	{r7, lr}
200032fa:	b082      	sub	sp, #8
200032fc:	af00      	add	r7, sp, #0
200032fe:	4603      	mov	r3, r0
20003300:	460a      	mov	r2, r1
20003302:	71fb      	strb	r3, [r7, #7]
20003304:	4613      	mov	r3, r2
20003306:	71bb      	strb	r3, [r7, #6]
C:\Users\nitin.deshpande\Documents\GitHub\microsemi-huawei-liteos\microsemi-liteos\mscc-huawei-wsp\sc-gd450i-board-test\Debug/../gd32firmware/Library/Utilities/gd32f450i_eval.c:123
    /* enable the key clock */
    rcu_periph_clock_enable(KEY_CLK[key_num]);
20003308:	79fb      	ldrb	r3, [r7, #7]
2000330a:	4a1f      	ldr	r2, [pc, #124]	; (20003388 <gd_eval_key_init+0x90>)
2000330c:	f832 3013 	ldrh.w	r3, [r2, r3, lsl #1]
20003310:	4618      	mov	r0, r3
20003312:	f000 fabd 	bl	20003890 <rcu_periph_clock_enable>
C:\Users\nitin.deshpande\Documents\GitHub\microsemi-huawei-liteos\microsemi-liteos\mscc-huawei-wsp\sc-gd450i-board-test\Debug/../gd32firmware/Library/Utilities/gd32f450i_eval.c:124
    rcu_periph_clock_enable(RCU_SYSCFG);
20003316:	f241 100e 	movw	r0, #4366	; 0x110e
2000331a:	f000 fab9 	bl	20003890 <rcu_periph_clock_enable>
C:\Users\nitin.deshpande\Documents\GitHub\microsemi-huawei-liteos\microsemi-liteos\mscc-huawei-wsp\sc-gd450i-board-test\Debug/../gd32firmware/Library/Utilities/gd32f450i_eval.c:127

    /* configure button pin as input */
    gpio_mode_set(KEY_PORT[key_num], GPIO_MODE_INPUT, GPIO_PUPD_NONE,KEY_PIN[key_num]);
2000331e:	79fb      	ldrb	r3, [r7, #7]
20003320:	4a1a      	ldr	r2, [pc, #104]	; (2000338c <gd_eval_key_init+0x94>)
20003322:	f852 0023 	ldr.w	r0, [r2, r3, lsl #2]
20003326:	79fb      	ldrb	r3, [r7, #7]
20003328:	4a19      	ldr	r2, [pc, #100]	; (20003390 <gd_eval_key_init+0x98>)
2000332a:	f852 3023 	ldr.w	r3, [r2, r3, lsl #2]
2000332e:	2200      	movs	r2, #0
20003330:	2100      	movs	r1, #0
20003332:	f000 f92b 	bl	2000358c <gpio_mode_set>
C:\Users\nitin.deshpande\Documents\GitHub\microsemi-huawei-liteos\microsemi-liteos\mscc-huawei-wsp\sc-gd450i-board-test\Debug/../gd32firmware/Library/Utilities/gd32f450i_eval.c:129

    if (key_mode == KEY_MODE_EXTI) {
20003336:	79bb      	ldrb	r3, [r7, #6]
20003338:	2b01      	cmp	r3, #1
2000333a:	d120      	bne.n	2000337e <gd_eval_key_init+0x86>
C:\Users\nitin.deshpande\Documents\GitHub\microsemi-huawei-liteos\microsemi-liteos\mscc-huawei-wsp\sc-gd450i-board-test\Debug/../gd32firmware/Library/Utilities/gd32f450i_eval.c:131
        /* enable and set key EXTI interrupt to the lowest priority */
        nvic_irq_enable(KEY_IRQn[key_num], 2U, 0U);
2000333c:	79fb      	ldrb	r3, [r7, #7]
2000333e:	4a15      	ldr	r2, [pc, #84]	; (20003394 <gd_eval_key_init+0x9c>)
20003340:	5cd3      	ldrb	r3, [r2, r3]
20003342:	2200      	movs	r2, #0
20003344:	2102      	movs	r1, #2
20003346:	4618      	mov	r0, r3
20003348:	f000 fa24 	bl	20003794 <nvic_irq_enable>
C:\Users\nitin.deshpande\Documents\GitHub\microsemi-huawei-liteos\microsemi-liteos\mscc-huawei-wsp\sc-gd450i-board-test\Debug/../gd32firmware/Library/Utilities/gd32f450i_eval.c:134

        /* connect key EXTI line to key GPIO pin */
        syscfg_exti_line_config(KEY_PORT_SOURCE[key_num], KEY_PIN_SOURCE[key_num]);
2000334c:	79fb      	ldrb	r3, [r7, #7]
2000334e:	4a12      	ldr	r2, [pc, #72]	; (20003398 <gd_eval_key_init+0xa0>)
20003350:	5cd0      	ldrb	r0, [r2, r3]
20003352:	79fb      	ldrb	r3, [r7, #7]
20003354:	4a11      	ldr	r2, [pc, #68]	; (2000339c <gd_eval_key_init+0xa4>)
20003356:	5cd3      	ldrb	r3, [r2, r3]
20003358:	4619      	mov	r1, r3
2000335a:	f000 fbc3 	bl	20003ae4 <syscfg_exti_line_config>
C:\Users\nitin.deshpande\Documents\GitHub\microsemi-huawei-liteos\microsemi-liteos\mscc-huawei-wsp\sc-gd450i-board-test\Debug/../gd32firmware/Library/Utilities/gd32f450i_eval.c:137

        /* configure key EXTI line */
        exti_init(KEY_EXTI_LINE[key_num], EXTI_INTERRUPT, EXTI_TRIG_FALLING);
2000335e:	79fb      	ldrb	r3, [r7, #7]
20003360:	4a0f      	ldr	r2, [pc, #60]	; (200033a0 <gd_eval_key_init+0xa8>)
20003362:	f852 3023 	ldr.w	r3, [r2, r3, lsl #2]
20003366:	2201      	movs	r2, #1
20003368:	2100      	movs	r1, #0
2000336a:	4618      	mov	r0, r3
2000336c:	f000 f886 	bl	2000347c <exti_init>
C:\Users\nitin.deshpande\Documents\GitHub\microsemi-huawei-liteos\microsemi-liteos\mscc-huawei-wsp\sc-gd450i-board-test\Debug/../gd32firmware/Library/Utilities/gd32f450i_eval.c:138
        exti_interrupt_flag_clear(KEY_EXTI_LINE[key_num]);
20003370:	79fb      	ldrb	r3, [r7, #7]
20003372:	4a0b      	ldr	r2, [pc, #44]	; (200033a0 <gd_eval_key_init+0xa8>)
20003374:	f852 3023 	ldr.w	r3, [r2, r3, lsl #2]
20003378:	4618      	mov	r0, r3
2000337a:	f000 f8f7 	bl	2000356c <exti_interrupt_flag_clear>
C:\Users\nitin.deshpande\Documents\GitHub\microsemi-huawei-liteos\microsemi-liteos\mscc-huawei-wsp\sc-gd450i-board-test\Debug/../gd32firmware/Library/Utilities/gd32f450i_eval.c:140
    }
}
2000337e:	bf00      	nop
20003380:	3708      	adds	r7, #8
20003382:	46bd      	mov	sp, r7
20003384:	bd80      	pop	{r7, pc}
20003386:	bf00      	nop
20003388:	200043a8 	.word	0x200043a8
2000338c:	20004390 	.word	0x20004390
20003390:	2000439c 	.word	0x2000439c
20003394:	200043c4 	.word	0x200043c4
20003398:	200043bc 	.word	0x200043bc
2000339c:	200043c0 	.word	0x200043c0
200033a0:	200043b0 	.word	0x200043b0

200033a4 <gd_eval_com_init>:
gd_eval_com_init():
C:\Users\nitin.deshpande\Documents\GitHub\microsemi-huawei-liteos\microsemi-liteos\mscc-huawei-wsp\sc-gd450i-board-test\Debug/../gd32firmware/Library/Utilities/gd32f450i_eval.c:164
      \arg        EVAL_COM1: COM1 on the board
    \param[out] none
    \retval     none
*/
void gd_eval_com_init(uint32_t com)
{
200033a4:	b580      	push	{r7, lr}
200033a6:	b084      	sub	sp, #16
200033a8:	af00      	add	r7, sp, #0
200033aa:	6078      	str	r0, [r7, #4]
C:\Users\nitin.deshpande\Documents\GitHub\microsemi-huawei-liteos\microsemi-liteos\mscc-huawei-wsp\sc-gd450i-board-test\Debug/../gd32firmware/Library/Utilities/gd32f450i_eval.c:167
    /* enable GPIO clock */
    uint32_t COM_ID;
    if(EVAL_COM1 == com)
200033ac:	687b      	ldr	r3, [r7, #4]
200033ae:	4a2e      	ldr	r2, [pc, #184]	; (20003468 <gd_eval_com_init+0xc4>)
200033b0:	4293      	cmp	r3, r2
200033b2:	d101      	bne.n	200033b8 <gd_eval_com_init+0x14>
C:\Users\nitin.deshpande\Documents\GitHub\microsemi-huawei-liteos\microsemi-liteos\mscc-huawei-wsp\sc-gd450i-board-test\Debug/../gd32firmware/Library/Utilities/gd32f450i_eval.c:169
    {
        COM_ID = 0U;
200033b4:	2300      	movs	r3, #0
200033b6:	60fb      	str	r3, [r7, #12]
C:\Users\nitin.deshpande\Documents\GitHub\microsemi-huawei-liteos\microsemi-liteos\mscc-huawei-wsp\sc-gd450i-board-test\Debug/../gd32firmware/Library/Utilities/gd32f450i_eval.c:172
    }

    rcu_periph_clock_enable( EVAL_COM_GPIO_CLK);
200033b8:	f44f 6040 	mov.w	r0, #3072	; 0xc00
200033bc:	f000 fa68 	bl	20003890 <rcu_periph_clock_enable>
C:\Users\nitin.deshpande\Documents\GitHub\microsemi-huawei-liteos\microsemi-liteos\mscc-huawei-wsp\sc-gd450i-board-test\Debug/../gd32firmware/Library/Utilities/gd32f450i_eval.c:175

    /* enable USART clock */
    rcu_periph_clock_enable(COM_CLK[COM_ID]);
200033c0:	4a2a      	ldr	r2, [pc, #168]	; (2000346c <gd_eval_com_init+0xc8>)
200033c2:	68fb      	ldr	r3, [r7, #12]
200033c4:	f832 3013 	ldrh.w	r3, [r2, r3, lsl #1]
200033c8:	4618      	mov	r0, r3
200033ca:	f000 fa61 	bl	20003890 <rcu_periph_clock_enable>
C:\Users\nitin.deshpande\Documents\GitHub\microsemi-huawei-liteos\microsemi-liteos\mscc-huawei-wsp\sc-gd450i-board-test\Debug/../gd32firmware/Library/Utilities/gd32f450i_eval.c:178

    /* connect port to USARTx_Tx */
    gpio_af_set(EVAL_COM_GPIO_PORT, EVAL_COM_AF, COM_TX_PIN[COM_ID]);
200033ce:	4a28      	ldr	r2, [pc, #160]	; (20003470 <gd_eval_com_init+0xcc>)
200033d0:	68fb      	ldr	r3, [r7, #12]
200033d2:	f852 3023 	ldr.w	r3, [r2, r3, lsl #2]
200033d6:	461a      	mov	r2, r3
200033d8:	2107      	movs	r1, #7
200033da:	4826      	ldr	r0, [pc, #152]	; (20003474 <gd_eval_com_init+0xd0>)
200033dc:	f000 f973 	bl	200036c6 <gpio_af_set>
C:\Users\nitin.deshpande\Documents\GitHub\microsemi-huawei-liteos\microsemi-liteos\mscc-huawei-wsp\sc-gd450i-board-test\Debug/../gd32firmware/Library/Utilities/gd32f450i_eval.c:181

    /* connect port to USARTx_Rx */
    gpio_af_set(EVAL_COM_GPIO_PORT, EVAL_COM_AF, COM_RX_PIN[COM_ID]);
200033e0:	4a25      	ldr	r2, [pc, #148]	; (20003478 <gd_eval_com_init+0xd4>)
200033e2:	68fb      	ldr	r3, [r7, #12]
200033e4:	f852 3023 	ldr.w	r3, [r2, r3, lsl #2]
200033e8:	461a      	mov	r2, r3
200033ea:	2107      	movs	r1, #7
200033ec:	4821      	ldr	r0, [pc, #132]	; (20003474 <gd_eval_com_init+0xd0>)
200033ee:	f000 f96a 	bl	200036c6 <gpio_af_set>
C:\Users\nitin.deshpande\Documents\GitHub\microsemi-huawei-liteos\microsemi-liteos\mscc-huawei-wsp\sc-gd450i-board-test\Debug/../gd32firmware/Library/Utilities/gd32f450i_eval.c:184

    /* configure USART Tx as alternate function push-pull */
    gpio_mode_set(EVAL_COM_GPIO_PORT, GPIO_MODE_AF, GPIO_PUPD_PULLUP,COM_TX_PIN[COM_ID]);
200033f2:	4a1f      	ldr	r2, [pc, #124]	; (20003470 <gd_eval_com_init+0xcc>)
200033f4:	68fb      	ldr	r3, [r7, #12]
200033f6:	f852 3023 	ldr.w	r3, [r2, r3, lsl #2]
200033fa:	2201      	movs	r2, #1
200033fc:	2102      	movs	r1, #2
200033fe:	481d      	ldr	r0, [pc, #116]	; (20003474 <gd_eval_com_init+0xd0>)
20003400:	f000 f8c4 	bl	2000358c <gpio_mode_set>
C:\Users\nitin.deshpande\Documents\GitHub\microsemi-huawei-liteos\microsemi-liteos\mscc-huawei-wsp\sc-gd450i-board-test\Debug/../gd32firmware/Library/Utilities/gd32f450i_eval.c:185
    gpio_output_options_set(EVAL_COM_GPIO_PORT, GPIO_OTYPE_PP, GPIO_OSPEED_50MHZ,COM_TX_PIN[COM_ID]);
20003404:	4a1a      	ldr	r2, [pc, #104]	; (20003470 <gd_eval_com_init+0xcc>)
20003406:	68fb      	ldr	r3, [r7, #12]
20003408:	f852 3023 	ldr.w	r3, [r2, r3, lsl #2]
2000340c:	2202      	movs	r2, #2
2000340e:	2100      	movs	r1, #0
20003410:	4818      	ldr	r0, [pc, #96]	; (20003474 <gd_eval_com_init+0xd0>)
20003412:	f000 f909 	bl	20003628 <gpio_output_options_set>
C:\Users\nitin.deshpande\Documents\GitHub\microsemi-huawei-liteos\microsemi-liteos\mscc-huawei-wsp\sc-gd450i-board-test\Debug/../gd32firmware/Library/Utilities/gd32f450i_eval.c:188

    /* configure USART Rx as alternate function push-pull */
    gpio_mode_set(EVAL_COM_GPIO_PORT, GPIO_MODE_AF, GPIO_PUPD_PULLUP,COM_RX_PIN[COM_ID]);
20003416:	4a18      	ldr	r2, [pc, #96]	; (20003478 <gd_eval_com_init+0xd4>)
20003418:	68fb      	ldr	r3, [r7, #12]
2000341a:	f852 3023 	ldr.w	r3, [r2, r3, lsl #2]
2000341e:	2201      	movs	r2, #1
20003420:	2102      	movs	r1, #2
20003422:	4814      	ldr	r0, [pc, #80]	; (20003474 <gd_eval_com_init+0xd0>)
20003424:	f000 f8b2 	bl	2000358c <gpio_mode_set>
C:\Users\nitin.deshpande\Documents\GitHub\microsemi-huawei-liteos\microsemi-liteos\mscc-huawei-wsp\sc-gd450i-board-test\Debug/../gd32firmware/Library/Utilities/gd32f450i_eval.c:189
    gpio_output_options_set(EVAL_COM_GPIO_PORT, GPIO_OTYPE_PP, GPIO_OSPEED_50MHZ,COM_RX_PIN[COM_ID]);
20003428:	4a13      	ldr	r2, [pc, #76]	; (20003478 <gd_eval_com_init+0xd4>)
2000342a:	68fb      	ldr	r3, [r7, #12]
2000342c:	f852 3023 	ldr.w	r3, [r2, r3, lsl #2]
20003430:	2202      	movs	r2, #2
20003432:	2100      	movs	r1, #0
20003434:	480f      	ldr	r0, [pc, #60]	; (20003474 <gd_eval_com_init+0xd0>)
20003436:	f000 f8f7 	bl	20003628 <gpio_output_options_set>
C:\Users\nitin.deshpande\Documents\GitHub\microsemi-huawei-liteos\microsemi-liteos\mscc-huawei-wsp\sc-gd450i-board-test\Debug/../gd32firmware/Library/Utilities/gd32f450i_eval.c:192

    /* USART configure */
    usart_deinit(com);
2000343a:	6878      	ldr	r0, [r7, #4]
2000343c:	f000 fbc0 	bl	20003bc0 <usart_deinit>
C:\Users\nitin.deshpande\Documents\GitHub\microsemi-huawei-liteos\microsemi-liteos\mscc-huawei-wsp\sc-gd450i-board-test\Debug/../gd32firmware/Library/Utilities/gd32f450i_eval.c:193
    usart_baudrate_set(com,115200U);
20003440:	f44f 31e1 	mov.w	r1, #115200	; 0x1c200
20003444:	6878      	ldr	r0, [r7, #4]
20003446:	f000 fc3d 	bl	20003cc4 <usart_baudrate_set>
C:\Users\nitin.deshpande\Documents\GitHub\microsemi-huawei-liteos\microsemi-liteos\mscc-huawei-wsp\sc-gd450i-board-test\Debug/../gd32firmware/Library/Utilities/gd32f450i_eval.c:194
    usart_receive_config(com, USART_RECEIVE_ENABLE);
2000344a:	2104      	movs	r1, #4
2000344c:	6878      	ldr	r0, [r7, #4]
2000344e:	f000 fd18 	bl	20003e82 <usart_receive_config>
C:\Users\nitin.deshpande\Documents\GitHub\microsemi-huawei-liteos\microsemi-liteos\mscc-huawei-wsp\sc-gd450i-board-test\Debug/../gd32firmware/Library/Utilities/gd32f450i_eval.c:195
    usart_transmit_config(com, USART_TRANSMIT_ENABLE);
20003452:	2108      	movs	r1, #8
20003454:	6878      	ldr	r0, [r7, #4]
20003456:	f000 fcf6 	bl	20003e46 <usart_transmit_config>
C:\Users\nitin.deshpande\Documents\GitHub\microsemi-huawei-liteos\microsemi-liteos\mscc-huawei-wsp\sc-gd450i-board-test\Debug/../gd32firmware/Library/Utilities/gd32f450i_eval.c:196
    usart_enable(com);
2000345a:	6878      	ldr	r0, [r7, #4]
2000345c:	f000 fce0 	bl	20003e20 <usart_enable>
C:\Users\nitin.deshpande\Documents\GitHub\microsemi-huawei-liteos\microsemi-liteos\mscc-huawei-wsp\sc-gd450i-board-test\Debug/../gd32firmware/Library/Utilities/gd32f450i_eval.c:197
}
20003460:	bf00      	nop
20003462:	3710      	adds	r7, #16
20003464:	46bd      	mov	sp, r7
20003466:	bd80      	pop	{r7, pc}
20003468:	40011000 	.word	0x40011000
2000346c:	2000437c 	.word	0x2000437c
20003470:	20004380 	.word	0x20004380
20003474:	40020000 	.word	0x40020000
20003478:	20004384 	.word	0x20004384

2000347c <exti_init>:
exti_init():
C:\Users\nitin.deshpande\Documents\GitHub\microsemi-huawei-liteos\microsemi-liteos\mscc-huawei-wsp\sc-gd450i-board-test\Debug/../gd32firmware/Library/Firmware/GD32F4xx_standard_peripheral/Source/gd32f4xx_exti.c:50
    \retval     none
*/
void exti_init(exti_line_enum linex, \
                exti_mode_enum mode, \
                exti_trig_type_enum trig_type)
{
2000347c:	b480      	push	{r7}
2000347e:	b083      	sub	sp, #12
20003480:	af00      	add	r7, sp, #0
20003482:	6078      	str	r0, [r7, #4]
20003484:	460b      	mov	r3, r1
20003486:	70fb      	strb	r3, [r7, #3]
20003488:	4613      	mov	r3, r2
2000348a:	70bb      	strb	r3, [r7, #2]
C:\Users\nitin.deshpande\Documents\GitHub\microsemi-huawei-liteos\microsemi-liteos\mscc-huawei-wsp\sc-gd450i-board-test\Debug/../gd32firmware/Library/Firmware/GD32F4xx_standard_peripheral/Source/gd32f4xx_exti.c:52
    /* reset the EXTI line x */
    EXTI_INTEN &= ~(uint32_t)linex;
2000348c:	4933      	ldr	r1, [pc, #204]	; (2000355c <exti_init+0xe0>)
2000348e:	4b33      	ldr	r3, [pc, #204]	; (2000355c <exti_init+0xe0>)
20003490:	681a      	ldr	r2, [r3, #0]
20003492:	687b      	ldr	r3, [r7, #4]
20003494:	43db      	mvns	r3, r3
20003496:	4013      	ands	r3, r2
20003498:	600b      	str	r3, [r1, #0]
C:\Users\nitin.deshpande\Documents\GitHub\microsemi-huawei-liteos\microsemi-liteos\mscc-huawei-wsp\sc-gd450i-board-test\Debug/../gd32firmware/Library/Firmware/GD32F4xx_standard_peripheral/Source/gd32f4xx_exti.c:53
    EXTI_EVEN &= ~(uint32_t)linex;
2000349a:	4931      	ldr	r1, [pc, #196]	; (20003560 <exti_init+0xe4>)
2000349c:	4b30      	ldr	r3, [pc, #192]	; (20003560 <exti_init+0xe4>)
2000349e:	681a      	ldr	r2, [r3, #0]
200034a0:	687b      	ldr	r3, [r7, #4]
200034a2:	43db      	mvns	r3, r3
200034a4:	4013      	ands	r3, r2
200034a6:	600b      	str	r3, [r1, #0]
C:\Users\nitin.deshpande\Documents\GitHub\microsemi-huawei-liteos\microsemi-liteos\mscc-huawei-wsp\sc-gd450i-board-test\Debug/../gd32firmware/Library/Firmware/GD32F4xx_standard_peripheral/Source/gd32f4xx_exti.c:54
    EXTI_RTEN &= ~(uint32_t)linex;
200034a8:	492e      	ldr	r1, [pc, #184]	; (20003564 <exti_init+0xe8>)
200034aa:	4b2e      	ldr	r3, [pc, #184]	; (20003564 <exti_init+0xe8>)
200034ac:	681a      	ldr	r2, [r3, #0]
200034ae:	687b      	ldr	r3, [r7, #4]
200034b0:	43db      	mvns	r3, r3
200034b2:	4013      	ands	r3, r2
200034b4:	600b      	str	r3, [r1, #0]
C:\Users\nitin.deshpande\Documents\GitHub\microsemi-huawei-liteos\microsemi-liteos\mscc-huawei-wsp\sc-gd450i-board-test\Debug/../gd32firmware/Library/Firmware/GD32F4xx_standard_peripheral/Source/gd32f4xx_exti.c:55
    EXTI_FTEN &= ~(uint32_t)linex;
200034b6:	492c      	ldr	r1, [pc, #176]	; (20003568 <exti_init+0xec>)
200034b8:	4b2b      	ldr	r3, [pc, #172]	; (20003568 <exti_init+0xec>)
200034ba:	681a      	ldr	r2, [r3, #0]
200034bc:	687b      	ldr	r3, [r7, #4]
200034be:	43db      	mvns	r3, r3
200034c0:	4013      	ands	r3, r2
200034c2:	600b      	str	r3, [r1, #0]
C:\Users\nitin.deshpande\Documents\GitHub\microsemi-huawei-liteos\microsemi-liteos\mscc-huawei-wsp\sc-gd450i-board-test\Debug/../gd32firmware/Library/Firmware/GD32F4xx_standard_peripheral/Source/gd32f4xx_exti.c:58
    
    /* set the EXTI mode and enable the interrupts or events from EXTI line x */
    switch(mode){
200034c4:	78fb      	ldrb	r3, [r7, #3]
200034c6:	2b00      	cmp	r3, #0
200034c8:	d002      	beq.n	200034d0 <exti_init+0x54>
200034ca:	2b01      	cmp	r3, #1
200034cc:	d007      	beq.n	200034de <exti_init+0x62>
C:\Users\nitin.deshpande\Documents\GitHub\microsemi-huawei-liteos\microsemi-liteos\mscc-huawei-wsp\sc-gd450i-board-test\Debug/../gd32firmware/Library/Firmware/GD32F4xx_standard_peripheral/Source/gd32f4xx_exti.c:66
        break;
    case EXTI_EVENT:
        EXTI_EVEN |= (uint32_t)linex;
        break;
    default:
        break;
200034ce:	e00d      	b.n	200034ec <exti_init+0x70>
C:\Users\nitin.deshpande\Documents\GitHub\microsemi-huawei-liteos\microsemi-liteos\mscc-huawei-wsp\sc-gd450i-board-test\Debug/../gd32firmware/Library/Firmware/GD32F4xx_standard_peripheral/Source/gd32f4xx_exti.c:60
        EXTI_INTEN |= (uint32_t)linex;
200034d0:	4922      	ldr	r1, [pc, #136]	; (2000355c <exti_init+0xe0>)
200034d2:	4b22      	ldr	r3, [pc, #136]	; (2000355c <exti_init+0xe0>)
200034d4:	681a      	ldr	r2, [r3, #0]
200034d6:	687b      	ldr	r3, [r7, #4]
200034d8:	4313      	orrs	r3, r2
200034da:	600b      	str	r3, [r1, #0]
C:\Users\nitin.deshpande\Documents\GitHub\microsemi-huawei-liteos\microsemi-liteos\mscc-huawei-wsp\sc-gd450i-board-test\Debug/../gd32firmware/Library/Firmware/GD32F4xx_standard_peripheral/Source/gd32f4xx_exti.c:61
        break;
200034dc:	e006      	b.n	200034ec <exti_init+0x70>
C:\Users\nitin.deshpande\Documents\GitHub\microsemi-huawei-liteos\microsemi-liteos\mscc-huawei-wsp\sc-gd450i-board-test\Debug/../gd32firmware/Library/Firmware/GD32F4xx_standard_peripheral/Source/gd32f4xx_exti.c:63
        EXTI_EVEN |= (uint32_t)linex;
200034de:	4920      	ldr	r1, [pc, #128]	; (20003560 <exti_init+0xe4>)
200034e0:	4b1f      	ldr	r3, [pc, #124]	; (20003560 <exti_init+0xe4>)
200034e2:	681a      	ldr	r2, [r3, #0]
200034e4:	687b      	ldr	r3, [r7, #4]
200034e6:	4313      	orrs	r3, r2
200034e8:	600b      	str	r3, [r1, #0]
C:\Users\nitin.deshpande\Documents\GitHub\microsemi-huawei-liteos\microsemi-liteos\mscc-huawei-wsp\sc-gd450i-board-test\Debug/../gd32firmware/Library/Firmware/GD32F4xx_standard_peripheral/Source/gd32f4xx_exti.c:64
        break;
200034ea:	bf00      	nop
C:\Users\nitin.deshpande\Documents\GitHub\microsemi-huawei-liteos\microsemi-liteos\mscc-huawei-wsp\sc-gd450i-board-test\Debug/../gd32firmware/Library/Firmware/GD32F4xx_standard_peripheral/Source/gd32f4xx_exti.c:70
    }
    
    /* set the EXTI trigger type */
    switch(trig_type){
200034ec:	78bb      	ldrb	r3, [r7, #2]
200034ee:	2b01      	cmp	r3, #1
200034f0:	d012      	beq.n	20003518 <exti_init+0x9c>
200034f2:	2b02      	cmp	r3, #2
200034f4:	d01e      	beq.n	20003534 <exti_init+0xb8>
200034f6:	2b00      	cmp	r3, #0
200034f8:	d000      	beq.n	200034fc <exti_init+0x80>
C:\Users\nitin.deshpande\Documents\GitHub\microsemi-huawei-liteos\microsemi-liteos\mscc-huawei-wsp\sc-gd450i-board-test\Debug/../gd32firmware/Library/Firmware/GD32F4xx_standard_peripheral/Source/gd32f4xx_exti.c:84
    case EXTI_TRIG_BOTH:
        EXTI_RTEN |= (uint32_t)linex;
        EXTI_FTEN |= (uint32_t)linex;
        break;
    default:
        break;
200034fa:	e028      	b.n	2000354e <exti_init+0xd2>
C:\Users\nitin.deshpande\Documents\GitHub\microsemi-huawei-liteos\microsemi-liteos\mscc-huawei-wsp\sc-gd450i-board-test\Debug/../gd32firmware/Library/Firmware/GD32F4xx_standard_peripheral/Source/gd32f4xx_exti.c:72
        EXTI_RTEN |= (uint32_t)linex;
200034fc:	4919      	ldr	r1, [pc, #100]	; (20003564 <exti_init+0xe8>)
200034fe:	4b19      	ldr	r3, [pc, #100]	; (20003564 <exti_init+0xe8>)
20003500:	681a      	ldr	r2, [r3, #0]
20003502:	687b      	ldr	r3, [r7, #4]
20003504:	4313      	orrs	r3, r2
20003506:	600b      	str	r3, [r1, #0]
C:\Users\nitin.deshpande\Documents\GitHub\microsemi-huawei-liteos\microsemi-liteos\mscc-huawei-wsp\sc-gd450i-board-test\Debug/../gd32firmware/Library/Firmware/GD32F4xx_standard_peripheral/Source/gd32f4xx_exti.c:73
        EXTI_FTEN &= ~(uint32_t)linex;
20003508:	4917      	ldr	r1, [pc, #92]	; (20003568 <exti_init+0xec>)
2000350a:	4b17      	ldr	r3, [pc, #92]	; (20003568 <exti_init+0xec>)
2000350c:	681a      	ldr	r2, [r3, #0]
2000350e:	687b      	ldr	r3, [r7, #4]
20003510:	43db      	mvns	r3, r3
20003512:	4013      	ands	r3, r2
20003514:	600b      	str	r3, [r1, #0]
C:\Users\nitin.deshpande\Documents\GitHub\microsemi-huawei-liteos\microsemi-liteos\mscc-huawei-wsp\sc-gd450i-board-test\Debug/../gd32firmware/Library/Firmware/GD32F4xx_standard_peripheral/Source/gd32f4xx_exti.c:74
        break;
20003516:	e01a      	b.n	2000354e <exti_init+0xd2>
C:\Users\nitin.deshpande\Documents\GitHub\microsemi-huawei-liteos\microsemi-liteos\mscc-huawei-wsp\sc-gd450i-board-test\Debug/../gd32firmware/Library/Firmware/GD32F4xx_standard_peripheral/Source/gd32f4xx_exti.c:76
        EXTI_RTEN &= ~(uint32_t)linex;
20003518:	4912      	ldr	r1, [pc, #72]	; (20003564 <exti_init+0xe8>)
2000351a:	4b12      	ldr	r3, [pc, #72]	; (20003564 <exti_init+0xe8>)
2000351c:	681a      	ldr	r2, [r3, #0]
2000351e:	687b      	ldr	r3, [r7, #4]
20003520:	43db      	mvns	r3, r3
20003522:	4013      	ands	r3, r2
20003524:	600b      	str	r3, [r1, #0]
C:\Users\nitin.deshpande\Documents\GitHub\microsemi-huawei-liteos\microsemi-liteos\mscc-huawei-wsp\sc-gd450i-board-test\Debug/../gd32firmware/Library/Firmware/GD32F4xx_standard_peripheral/Source/gd32f4xx_exti.c:77
        EXTI_FTEN |= (uint32_t)linex;
20003526:	4910      	ldr	r1, [pc, #64]	; (20003568 <exti_init+0xec>)
20003528:	4b0f      	ldr	r3, [pc, #60]	; (20003568 <exti_init+0xec>)
2000352a:	681a      	ldr	r2, [r3, #0]
2000352c:	687b      	ldr	r3, [r7, #4]
2000352e:	4313      	orrs	r3, r2
20003530:	600b      	str	r3, [r1, #0]
C:\Users\nitin.deshpande\Documents\GitHub\microsemi-huawei-liteos\microsemi-liteos\mscc-huawei-wsp\sc-gd450i-board-test\Debug/../gd32firmware/Library/Firmware/GD32F4xx_standard_peripheral/Source/gd32f4xx_exti.c:78
        break;
20003532:	e00c      	b.n	2000354e <exti_init+0xd2>
C:\Users\nitin.deshpande\Documents\GitHub\microsemi-huawei-liteos\microsemi-liteos\mscc-huawei-wsp\sc-gd450i-board-test\Debug/../gd32firmware/Library/Firmware/GD32F4xx_standard_peripheral/Source/gd32f4xx_exti.c:80
        EXTI_RTEN |= (uint32_t)linex;
20003534:	490b      	ldr	r1, [pc, #44]	; (20003564 <exti_init+0xe8>)
20003536:	4b0b      	ldr	r3, [pc, #44]	; (20003564 <exti_init+0xe8>)
20003538:	681a      	ldr	r2, [r3, #0]
2000353a:	687b      	ldr	r3, [r7, #4]
2000353c:	4313      	orrs	r3, r2
2000353e:	600b      	str	r3, [r1, #0]
C:\Users\nitin.deshpande\Documents\GitHub\microsemi-huawei-liteos\microsemi-liteos\mscc-huawei-wsp\sc-gd450i-board-test\Debug/../gd32firmware/Library/Firmware/GD32F4xx_standard_peripheral/Source/gd32f4xx_exti.c:81
        EXTI_FTEN |= (uint32_t)linex;
20003540:	4909      	ldr	r1, [pc, #36]	; (20003568 <exti_init+0xec>)
20003542:	4b09      	ldr	r3, [pc, #36]	; (20003568 <exti_init+0xec>)
20003544:	681a      	ldr	r2, [r3, #0]
20003546:	687b      	ldr	r3, [r7, #4]
20003548:	4313      	orrs	r3, r2
2000354a:	600b      	str	r3, [r1, #0]
C:\Users\nitin.deshpande\Documents\GitHub\microsemi-huawei-liteos\microsemi-liteos\mscc-huawei-wsp\sc-gd450i-board-test\Debug/../gd32firmware/Library/Firmware/GD32F4xx_standard_peripheral/Source/gd32f4xx_exti.c:82
        break;
2000354c:	bf00      	nop
C:\Users\nitin.deshpande\Documents\GitHub\microsemi-huawei-liteos\microsemi-liteos\mscc-huawei-wsp\sc-gd450i-board-test\Debug/../gd32firmware/Library/Firmware/GD32F4xx_standard_peripheral/Source/gd32f4xx_exti.c:86
    }
}
2000354e:	bf00      	nop
20003550:	370c      	adds	r7, #12
20003552:	46bd      	mov	sp, r7
20003554:	f85d 7b04 	ldr.w	r7, [sp], #4
20003558:	4770      	bx	lr
2000355a:	bf00      	nop
2000355c:	40013c00 	.word	0x40013c00
20003560:	40013c04 	.word	0x40013c04
20003564:	40013c08 	.word	0x40013c08
20003568:	40013c0c 	.word	0x40013c0c

2000356c <exti_interrupt_flag_clear>:
exti_interrupt_flag_clear():
C:\Users\nitin.deshpande\Documents\GitHub\microsemi-huawei-liteos\microsemi-liteos\mscc-huawei-wsp\sc-gd450i-board-test\Debug/../gd32firmware/Library/Firmware/GD32F4xx_standard_peripheral/Source/gd32f4xx_exti.c:201
      \arg        EXTI_x (x=0..22): EXTI line x
    \param[out] none
    \retval     none
*/
void exti_interrupt_flag_clear(exti_line_enum linex)
{
2000356c:	b480      	push	{r7}
2000356e:	b083      	sub	sp, #12
20003570:	af00      	add	r7, sp, #0
20003572:	6078      	str	r0, [r7, #4]
C:\Users\nitin.deshpande\Documents\GitHub\microsemi-huawei-liteos\microsemi-liteos\mscc-huawei-wsp\sc-gd450i-board-test\Debug/../gd32firmware/Library/Firmware/GD32F4xx_standard_peripheral/Source/gd32f4xx_exti.c:202
    EXTI_PD = (uint32_t)linex;
20003574:	4a04      	ldr	r2, [pc, #16]	; (20003588 <exti_interrupt_flag_clear+0x1c>)
20003576:	687b      	ldr	r3, [r7, #4]
20003578:	6013      	str	r3, [r2, #0]
C:\Users\nitin.deshpande\Documents\GitHub\microsemi-huawei-liteos\microsemi-liteos\mscc-huawei-wsp\sc-gd450i-board-test\Debug/../gd32firmware/Library/Firmware/GD32F4xx_standard_peripheral/Source/gd32f4xx_exti.c:203
}
2000357a:	bf00      	nop
2000357c:	370c      	adds	r7, #12
2000357e:	46bd      	mov	sp, r7
20003580:	f85d 7b04 	ldr.w	r7, [sp], #4
20003584:	4770      	bx	lr
20003586:	bf00      	nop
20003588:	40013c14 	.word	0x40013c14

2000358c <gpio_mode_set>:
gpio_mode_set():
C:\Users\nitin.deshpande\Documents\GitHub\microsemi-huawei-liteos\microsemi-liteos\mscc-huawei-wsp\sc-gd450i-board-test\Debug/../gd32firmware/Library/Firmware/GD32F4xx_standard_peripheral/Source/gd32f4xx_gpio.c:90
    \param[in]  pin: GPIO_PIN_x(x=0..15), GPIO_PIN_ALL
    \param[out] none
    \retval     none
*/
void gpio_mode_set(uint32_t gpio_periph,uint32_t mode,uint32_t pull_up_down,uint32_t pin)
{
2000358c:	b480      	push	{r7}
2000358e:	b089      	sub	sp, #36	; 0x24
20003590:	af00      	add	r7, sp, #0
20003592:	60f8      	str	r0, [r7, #12]
20003594:	60b9      	str	r1, [r7, #8]
20003596:	607a      	str	r2, [r7, #4]
20003598:	603b      	str	r3, [r7, #0]
C:\Users\nitin.deshpande\Documents\GitHub\microsemi-huawei-liteos\microsemi-liteos\mscc-huawei-wsp\sc-gd450i-board-test\Debug/../gd32firmware/Library/Firmware/GD32F4xx_standard_peripheral/Source/gd32f4xx_gpio.c:94
    uint16_t i;
    uint32_t ctl, pupd;

    ctl = GPIO_CTL(gpio_periph);
2000359a:	68fb      	ldr	r3, [r7, #12]
2000359c:	681b      	ldr	r3, [r3, #0]
2000359e:	61bb      	str	r3, [r7, #24]
C:\Users\nitin.deshpande\Documents\GitHub\microsemi-huawei-liteos\microsemi-liteos\mscc-huawei-wsp\sc-gd450i-board-test\Debug/../gd32firmware/Library/Firmware/GD32F4xx_standard_peripheral/Source/gd32f4xx_gpio.c:95
    pupd = GPIO_PUD(gpio_periph);
200035a0:	68fb      	ldr	r3, [r7, #12]
200035a2:	330c      	adds	r3, #12
200035a4:	681b      	ldr	r3, [r3, #0]
200035a6:	617b      	str	r3, [r7, #20]
C:\Users\nitin.deshpande\Documents\GitHub\microsemi-huawei-liteos\microsemi-liteos\mscc-huawei-wsp\sc-gd450i-board-test\Debug/../gd32firmware/Library/Firmware/GD32F4xx_standard_peripheral/Source/gd32f4xx_gpio.c:97

    for(i = 0U;i < 16U;i++){
200035a8:	2300      	movs	r3, #0
200035aa:	83fb      	strh	r3, [r7, #30]
200035ac:	e02b      	b.n	20003606 <gpio_mode_set+0x7a>
C:\Users\nitin.deshpande\Documents\GitHub\microsemi-huawei-liteos\microsemi-liteos\mscc-huawei-wsp\sc-gd450i-board-test\Debug/../gd32firmware/Library/Firmware/GD32F4xx_standard_peripheral/Source/gd32f4xx_gpio.c:98
        if((1U << i) & pin){
200035ae:	8bfb      	ldrh	r3, [r7, #30]
200035b0:	2201      	movs	r2, #1
200035b2:	409a      	lsls	r2, r3
200035b4:	683b      	ldr	r3, [r7, #0]
200035b6:	4013      	ands	r3, r2
200035b8:	2b00      	cmp	r3, #0
200035ba:	d021      	beq.n	20003600 <gpio_mode_set+0x74>
C:\Users\nitin.deshpande\Documents\GitHub\microsemi-huawei-liteos\microsemi-liteos\mscc-huawei-wsp\sc-gd450i-board-test\Debug/../gd32firmware/Library/Firmware/GD32F4xx_standard_peripheral/Source/gd32f4xx_gpio.c:100
            /* clear the specified pin mode bits */
            ctl &= ~GPIO_MODE_MASK(i);
200035bc:	8bfb      	ldrh	r3, [r7, #30]
200035be:	005b      	lsls	r3, r3, #1
200035c0:	2203      	movs	r2, #3
200035c2:	fa02 f303 	lsl.w	r3, r2, r3
200035c6:	43db      	mvns	r3, r3
200035c8:	69ba      	ldr	r2, [r7, #24]
200035ca:	4013      	ands	r3, r2
200035cc:	61bb      	str	r3, [r7, #24]
C:\Users\nitin.deshpande\Documents\GitHub\microsemi-huawei-liteos\microsemi-liteos\mscc-huawei-wsp\sc-gd450i-board-test\Debug/../gd32firmware/Library/Firmware/GD32F4xx_standard_peripheral/Source/gd32f4xx_gpio.c:102
            /* set the specified pin mode bits */
            ctl |= GPIO_MODE_SET(i, mode);
200035ce:	8bfb      	ldrh	r3, [r7, #30]
200035d0:	005b      	lsls	r3, r3, #1
200035d2:	68ba      	ldr	r2, [r7, #8]
200035d4:	fa02 f303 	lsl.w	r3, r2, r3
200035d8:	69ba      	ldr	r2, [r7, #24]
200035da:	4313      	orrs	r3, r2
200035dc:	61bb      	str	r3, [r7, #24]
C:\Users\nitin.deshpande\Documents\GitHub\microsemi-huawei-liteos\microsemi-liteos\mscc-huawei-wsp\sc-gd450i-board-test\Debug/../gd32firmware/Library/Firmware/GD32F4xx_standard_peripheral/Source/gd32f4xx_gpio.c:105

            /* clear the specified pin pupd bits */
            pupd &= ~GPIO_PUPD_MASK(i);
200035de:	8bfb      	ldrh	r3, [r7, #30]
200035e0:	005b      	lsls	r3, r3, #1
200035e2:	2203      	movs	r2, #3
200035e4:	fa02 f303 	lsl.w	r3, r2, r3
200035e8:	43db      	mvns	r3, r3
200035ea:	697a      	ldr	r2, [r7, #20]
200035ec:	4013      	ands	r3, r2
200035ee:	617b      	str	r3, [r7, #20]
C:\Users\nitin.deshpande\Documents\GitHub\microsemi-huawei-liteos\microsemi-liteos\mscc-huawei-wsp\sc-gd450i-board-test\Debug/../gd32firmware/Library/Firmware/GD32F4xx_standard_peripheral/Source/gd32f4xx_gpio.c:107
            /* set the specified pin pupd bits */
            pupd |= GPIO_PUPD_SET(i, pull_up_down);
200035f0:	8bfb      	ldrh	r3, [r7, #30]
200035f2:	005b      	lsls	r3, r3, #1
200035f4:	687a      	ldr	r2, [r7, #4]
200035f6:	fa02 f303 	lsl.w	r3, r2, r3
200035fa:	697a      	ldr	r2, [r7, #20]
200035fc:	4313      	orrs	r3, r2
200035fe:	617b      	str	r3, [r7, #20]
C:\Users\nitin.deshpande\Documents\GitHub\microsemi-huawei-liteos\microsemi-liteos\mscc-huawei-wsp\sc-gd450i-board-test\Debug/../gd32firmware/Library/Firmware/GD32F4xx_standard_peripheral/Source/gd32f4xx_gpio.c:97 (discriminator 2)
    for(i = 0U;i < 16U;i++){
20003600:	8bfb      	ldrh	r3, [r7, #30]
20003602:	3301      	adds	r3, #1
20003604:	83fb      	strh	r3, [r7, #30]
C:\Users\nitin.deshpande\Documents\GitHub\microsemi-huawei-liteos\microsemi-liteos\mscc-huawei-wsp\sc-gd450i-board-test\Debug/../gd32firmware/Library/Firmware/GD32F4xx_standard_peripheral/Source/gd32f4xx_gpio.c:97 (discriminator 1)
20003606:	8bfb      	ldrh	r3, [r7, #30]
20003608:	2b0f      	cmp	r3, #15
2000360a:	d9d0      	bls.n	200035ae <gpio_mode_set+0x22>
C:\Users\nitin.deshpande\Documents\GitHub\microsemi-huawei-liteos\microsemi-liteos\mscc-huawei-wsp\sc-gd450i-board-test\Debug/../gd32firmware/Library/Firmware/GD32F4xx_standard_peripheral/Source/gd32f4xx_gpio.c:111
        }
    }

    GPIO_CTL(gpio_periph) = ctl;
2000360c:	68fb      	ldr	r3, [r7, #12]
2000360e:	69ba      	ldr	r2, [r7, #24]
20003610:	601a      	str	r2, [r3, #0]
C:\Users\nitin.deshpande\Documents\GitHub\microsemi-huawei-liteos\microsemi-liteos\mscc-huawei-wsp\sc-gd450i-board-test\Debug/../gd32firmware/Library/Firmware/GD32F4xx_standard_peripheral/Source/gd32f4xx_gpio.c:112
    GPIO_PUD(gpio_periph) = pupd;
20003612:	68fb      	ldr	r3, [r7, #12]
20003614:	330c      	adds	r3, #12
20003616:	461a      	mov	r2, r3
20003618:	697b      	ldr	r3, [r7, #20]
2000361a:	6013      	str	r3, [r2, #0]
C:\Users\nitin.deshpande\Documents\GitHub\microsemi-huawei-liteos\microsemi-liteos\mscc-huawei-wsp\sc-gd450i-board-test\Debug/../gd32firmware/Library/Firmware/GD32F4xx_standard_peripheral/Source/gd32f4xx_gpio.c:113
}
2000361c:	bf00      	nop
2000361e:	3724      	adds	r7, #36	; 0x24
20003620:	46bd      	mov	sp, r7
20003622:	f85d 7b04 	ldr.w	r7, [sp], #4
20003626:	4770      	bx	lr

20003628 <gpio_output_options_set>:
gpio_output_options_set():
C:\Users\nitin.deshpande\Documents\GitHub\microsemi-huawei-liteos\microsemi-liteos\mscc-huawei-wsp\sc-gd450i-board-test\Debug/../gd32firmware/Library/Firmware/GD32F4xx_standard_peripheral/Source/gd32f4xx_gpio.c:131
    \param[in]  pin: GPIO_PIN_x(x=0..15), GPIO_PIN_ALL
    \param[out] none
    \retval     none
*/
void gpio_output_options_set(uint32_t gpio_periph,uint8_t otype,uint32_t speed,uint32_t pin)
{
20003628:	b480      	push	{r7}
2000362a:	b087      	sub	sp, #28
2000362c:	af00      	add	r7, sp, #0
2000362e:	60f8      	str	r0, [r7, #12]
20003630:	607a      	str	r2, [r7, #4]
20003632:	603b      	str	r3, [r7, #0]
20003634:	460b      	mov	r3, r1
20003636:	72fb      	strb	r3, [r7, #11]
C:\Users\nitin.deshpande\Documents\GitHub\microsemi-huawei-liteos\microsemi-liteos\mscc-huawei-wsp\sc-gd450i-board-test\Debug/../gd32firmware/Library/Firmware/GD32F4xx_standard_peripheral/Source/gd32f4xx_gpio.c:135
    uint16_t i;
    uint32_t ospeedr;

    if(0x1U == otype){
20003638:	7afb      	ldrb	r3, [r7, #11]
2000363a:	2b01      	cmp	r3, #1
2000363c:	d109      	bne.n	20003652 <gpio_output_options_set+0x2a>
C:\Users\nitin.deshpande\Documents\GitHub\microsemi-huawei-liteos\microsemi-liteos\mscc-huawei-wsp\sc-gd450i-board-test\Debug/../gd32firmware/Library/Firmware/GD32F4xx_standard_peripheral/Source/gd32f4xx_gpio.c:136
        GPIO_OMODE(gpio_periph) |= (uint32_t)pin;
2000363e:	68fb      	ldr	r3, [r7, #12]
20003640:	3304      	adds	r3, #4
20003642:	4619      	mov	r1, r3
20003644:	68fb      	ldr	r3, [r7, #12]
20003646:	3304      	adds	r3, #4
20003648:	681a      	ldr	r2, [r3, #0]
2000364a:	683b      	ldr	r3, [r7, #0]
2000364c:	4313      	orrs	r3, r2
2000364e:	600b      	str	r3, [r1, #0]
20003650:	e009      	b.n	20003666 <gpio_output_options_set+0x3e>
C:\Users\nitin.deshpande\Documents\GitHub\microsemi-huawei-liteos\microsemi-liteos\mscc-huawei-wsp\sc-gd450i-board-test\Debug/../gd32firmware/Library/Firmware/GD32F4xx_standard_peripheral/Source/gd32f4xx_gpio.c:138
    }else{
        GPIO_OMODE(gpio_periph) &= (uint32_t)(~pin);
20003652:	68fb      	ldr	r3, [r7, #12]
20003654:	3304      	adds	r3, #4
20003656:	4619      	mov	r1, r3
20003658:	68fb      	ldr	r3, [r7, #12]
2000365a:	3304      	adds	r3, #4
2000365c:	681a      	ldr	r2, [r3, #0]
2000365e:	683b      	ldr	r3, [r7, #0]
20003660:	43db      	mvns	r3, r3
20003662:	4013      	ands	r3, r2
20003664:	600b      	str	r3, [r1, #0]
C:\Users\nitin.deshpande\Documents\GitHub\microsemi-huawei-liteos\microsemi-liteos\mscc-huawei-wsp\sc-gd450i-board-test\Debug/../gd32firmware/Library/Firmware/GD32F4xx_standard_peripheral/Source/gd32f4xx_gpio.c:142
    }

    /* get the specified pin output speed bits value */
    ospeedr = GPIO_OSPD(gpio_periph);
20003666:	68fb      	ldr	r3, [r7, #12]
20003668:	3308      	adds	r3, #8
2000366a:	681b      	ldr	r3, [r3, #0]
2000366c:	613b      	str	r3, [r7, #16]
C:\Users\nitin.deshpande\Documents\GitHub\microsemi-huawei-liteos\microsemi-liteos\mscc-huawei-wsp\sc-gd450i-board-test\Debug/../gd32firmware/Library/Firmware/GD32F4xx_standard_peripheral/Source/gd32f4xx_gpio.c:144

    for(i = 0U;i < 16U;i++){
2000366e:	2300      	movs	r3, #0
20003670:	82fb      	strh	r3, [r7, #22]
20003672:	e01a      	b.n	200036aa <gpio_output_options_set+0x82>
C:\Users\nitin.deshpande\Documents\GitHub\microsemi-huawei-liteos\microsemi-liteos\mscc-huawei-wsp\sc-gd450i-board-test\Debug/../gd32firmware/Library/Firmware/GD32F4xx_standard_peripheral/Source/gd32f4xx_gpio.c:145
        if((1U << i) & pin){
20003674:	8afb      	ldrh	r3, [r7, #22]
20003676:	2201      	movs	r2, #1
20003678:	409a      	lsls	r2, r3
2000367a:	683b      	ldr	r3, [r7, #0]
2000367c:	4013      	ands	r3, r2
2000367e:	2b00      	cmp	r3, #0
20003680:	d010      	beq.n	200036a4 <gpio_output_options_set+0x7c>
C:\Users\nitin.deshpande\Documents\GitHub\microsemi-huawei-liteos\microsemi-liteos\mscc-huawei-wsp\sc-gd450i-board-test\Debug/../gd32firmware/Library/Firmware/GD32F4xx_standard_peripheral/Source/gd32f4xx_gpio.c:147
            /* clear the specified pin output speed bits */
            ospeedr &= ~GPIO_OSPEED_MASK(i);
20003682:	8afb      	ldrh	r3, [r7, #22]
20003684:	005b      	lsls	r3, r3, #1
20003686:	2203      	movs	r2, #3
20003688:	fa02 f303 	lsl.w	r3, r2, r3
2000368c:	43db      	mvns	r3, r3
2000368e:	693a      	ldr	r2, [r7, #16]
20003690:	4013      	ands	r3, r2
20003692:	613b      	str	r3, [r7, #16]
C:\Users\nitin.deshpande\Documents\GitHub\microsemi-huawei-liteos\microsemi-liteos\mscc-huawei-wsp\sc-gd450i-board-test\Debug/../gd32firmware/Library/Firmware/GD32F4xx_standard_peripheral/Source/gd32f4xx_gpio.c:149
            /* set the specified pin output speed bits */
            ospeedr |= GPIO_OSPEED_SET(i,speed);
20003694:	8afb      	ldrh	r3, [r7, #22]
20003696:	005b      	lsls	r3, r3, #1
20003698:	687a      	ldr	r2, [r7, #4]
2000369a:	fa02 f303 	lsl.w	r3, r2, r3
2000369e:	693a      	ldr	r2, [r7, #16]
200036a0:	4313      	orrs	r3, r2
200036a2:	613b      	str	r3, [r7, #16]
C:\Users\nitin.deshpande\Documents\GitHub\microsemi-huawei-liteos\microsemi-liteos\mscc-huawei-wsp\sc-gd450i-board-test\Debug/../gd32firmware/Library/Firmware/GD32F4xx_standard_peripheral/Source/gd32f4xx_gpio.c:144 (discriminator 2)
    for(i = 0U;i < 16U;i++){
200036a4:	8afb      	ldrh	r3, [r7, #22]
200036a6:	3301      	adds	r3, #1
200036a8:	82fb      	strh	r3, [r7, #22]
C:\Users\nitin.deshpande\Documents\GitHub\microsemi-huawei-liteos\microsemi-liteos\mscc-huawei-wsp\sc-gd450i-board-test\Debug/../gd32firmware/Library/Firmware/GD32F4xx_standard_peripheral/Source/gd32f4xx_gpio.c:144 (discriminator 1)
200036aa:	8afb      	ldrh	r3, [r7, #22]
200036ac:	2b0f      	cmp	r3, #15
200036ae:	d9e1      	bls.n	20003674 <gpio_output_options_set+0x4c>
C:\Users\nitin.deshpande\Documents\GitHub\microsemi-huawei-liteos\microsemi-liteos\mscc-huawei-wsp\sc-gd450i-board-test\Debug/../gd32firmware/Library/Firmware/GD32F4xx_standard_peripheral/Source/gd32f4xx_gpio.c:152
        }
    }
    GPIO_OSPD(gpio_periph) = ospeedr;
200036b0:	68fb      	ldr	r3, [r7, #12]
200036b2:	3308      	adds	r3, #8
200036b4:	461a      	mov	r2, r3
200036b6:	693b      	ldr	r3, [r7, #16]
200036b8:	6013      	str	r3, [r2, #0]
C:\Users\nitin.deshpande\Documents\GitHub\microsemi-huawei-liteos\microsemi-liteos\mscc-huawei-wsp\sc-gd450i-board-test\Debug/../gd32firmware/Library/Firmware/GD32F4xx_standard_peripheral/Source/gd32f4xx_gpio.c:153
}
200036ba:	bf00      	nop
200036bc:	371c      	adds	r7, #28
200036be:	46bd      	mov	sp, r7
200036c0:	f85d 7b04 	ldr.w	r7, [sp], #4
200036c4:	4770      	bx	lr

200036c6 <gpio_af_set>:
gpio_af_set():
C:\Users\nitin.deshpande\Documents\GitHub\microsemi-huawei-liteos\microsemi-liteos\mscc-huawei-wsp\sc-gd450i-board-test\Debug/../gd32firmware/Library/Firmware/GD32F4xx_standard_peripheral/Source/gd32f4xx_gpio.c:289
    \param[in]  pin: GPIO_PIN_x(x=0..15), GPIO_PIN_ALL
    \param[out] none
    \retval     none
*/
void gpio_af_set(uint32_t gpio_periph,uint32_t alt_func_num,uint32_t pin)
{
200036c6:	b480      	push	{r7}
200036c8:	b089      	sub	sp, #36	; 0x24
200036ca:	af00      	add	r7, sp, #0
200036cc:	60f8      	str	r0, [r7, #12]
200036ce:	60b9      	str	r1, [r7, #8]
200036d0:	607a      	str	r2, [r7, #4]
C:\Users\nitin.deshpande\Documents\GitHub\microsemi-huawei-liteos\microsemi-liteos\mscc-huawei-wsp\sc-gd450i-board-test\Debug/../gd32firmware/Library/Firmware/GD32F4xx_standard_peripheral/Source/gd32f4xx_gpio.c:293
    uint16_t i;
    uint32_t afrl, afrh;

    afrl = GPIO_AFSEL0(gpio_periph);
200036d2:	68fb      	ldr	r3, [r7, #12]
200036d4:	3320      	adds	r3, #32
200036d6:	681b      	ldr	r3, [r3, #0]
200036d8:	61bb      	str	r3, [r7, #24]
C:\Users\nitin.deshpande\Documents\GitHub\microsemi-huawei-liteos\microsemi-liteos\mscc-huawei-wsp\sc-gd450i-board-test\Debug/../gd32firmware/Library/Firmware/GD32F4xx_standard_peripheral/Source/gd32f4xx_gpio.c:294
    afrh = GPIO_AFSEL1(gpio_periph);
200036da:	68fb      	ldr	r3, [r7, #12]
200036dc:	3324      	adds	r3, #36	; 0x24
200036de:	681b      	ldr	r3, [r3, #0]
200036e0:	617b      	str	r3, [r7, #20]
C:\Users\nitin.deshpande\Documents\GitHub\microsemi-huawei-liteos\microsemi-liteos\mscc-huawei-wsp\sc-gd450i-board-test\Debug/../gd32firmware/Library/Firmware/GD32F4xx_standard_peripheral/Source/gd32f4xx_gpio.c:296

    for(i = 0U;i < 8U;i++){
200036e2:	2300      	movs	r3, #0
200036e4:	83fb      	strh	r3, [r7, #30]
200036e6:	e01a      	b.n	2000371e <gpio_af_set+0x58>
C:\Users\nitin.deshpande\Documents\GitHub\microsemi-huawei-liteos\microsemi-liteos\mscc-huawei-wsp\sc-gd450i-board-test\Debug/../gd32firmware/Library/Firmware/GD32F4xx_standard_peripheral/Source/gd32f4xx_gpio.c:297
        if((1U << i) & pin){
200036e8:	8bfb      	ldrh	r3, [r7, #30]
200036ea:	2201      	movs	r2, #1
200036ec:	409a      	lsls	r2, r3
200036ee:	687b      	ldr	r3, [r7, #4]
200036f0:	4013      	ands	r3, r2
200036f2:	2b00      	cmp	r3, #0
200036f4:	d010      	beq.n	20003718 <gpio_af_set+0x52>
C:\Users\nitin.deshpande\Documents\GitHub\microsemi-huawei-liteos\microsemi-liteos\mscc-huawei-wsp\sc-gd450i-board-test\Debug/../gd32firmware/Library/Firmware/GD32F4xx_standard_peripheral/Source/gd32f4xx_gpio.c:299
            /* clear the specified pin alternate function bits */
            afrl &= ~GPIO_AFR_MASK(i);
200036f6:	8bfb      	ldrh	r3, [r7, #30]
200036f8:	009b      	lsls	r3, r3, #2
200036fa:	220f      	movs	r2, #15
200036fc:	fa02 f303 	lsl.w	r3, r2, r3
20003700:	43db      	mvns	r3, r3
20003702:	69ba      	ldr	r2, [r7, #24]
20003704:	4013      	ands	r3, r2
20003706:	61bb      	str	r3, [r7, #24]
C:\Users\nitin.deshpande\Documents\GitHub\microsemi-huawei-liteos\microsemi-liteos\mscc-huawei-wsp\sc-gd450i-board-test\Debug/../gd32firmware/Library/Firmware/GD32F4xx_standard_peripheral/Source/gd32f4xx_gpio.c:300
            afrl |= GPIO_AFR_SET(i,alt_func_num);
20003708:	8bfb      	ldrh	r3, [r7, #30]
2000370a:	009b      	lsls	r3, r3, #2
2000370c:	68ba      	ldr	r2, [r7, #8]
2000370e:	fa02 f303 	lsl.w	r3, r2, r3
20003712:	69ba      	ldr	r2, [r7, #24]
20003714:	4313      	orrs	r3, r2
20003716:	61bb      	str	r3, [r7, #24]
C:\Users\nitin.deshpande\Documents\GitHub\microsemi-huawei-liteos\microsemi-liteos\mscc-huawei-wsp\sc-gd450i-board-test\Debug/../gd32firmware/Library/Firmware/GD32F4xx_standard_peripheral/Source/gd32f4xx_gpio.c:296 (discriminator 2)
    for(i = 0U;i < 8U;i++){
20003718:	8bfb      	ldrh	r3, [r7, #30]
2000371a:	3301      	adds	r3, #1
2000371c:	83fb      	strh	r3, [r7, #30]
C:\Users\nitin.deshpande\Documents\GitHub\microsemi-huawei-liteos\microsemi-liteos\mscc-huawei-wsp\sc-gd450i-board-test\Debug/../gd32firmware/Library/Firmware/GD32F4xx_standard_peripheral/Source/gd32f4xx_gpio.c:296 (discriminator 1)
2000371e:	8bfb      	ldrh	r3, [r7, #30]
20003720:	2b07      	cmp	r3, #7
20003722:	d9e1      	bls.n	200036e8 <gpio_af_set+0x22>
C:\Users\nitin.deshpande\Documents\GitHub\microsemi-huawei-liteos\microsemi-liteos\mscc-huawei-wsp\sc-gd450i-board-test\Debug/../gd32firmware/Library/Firmware/GD32F4xx_standard_peripheral/Source/gd32f4xx_gpio.c:304
        }
    }

    for(i = 8U;i < 16U;i++){
20003724:	2308      	movs	r3, #8
20003726:	83fb      	strh	r3, [r7, #30]
20003728:	e020      	b.n	2000376c <gpio_af_set+0xa6>
C:\Users\nitin.deshpande\Documents\GitHub\microsemi-huawei-liteos\microsemi-liteos\mscc-huawei-wsp\sc-gd450i-board-test\Debug/../gd32firmware/Library/Firmware/GD32F4xx_standard_peripheral/Source/gd32f4xx_gpio.c:305
        if((1U << i) & pin){
2000372a:	8bfb      	ldrh	r3, [r7, #30]
2000372c:	2201      	movs	r2, #1
2000372e:	409a      	lsls	r2, r3
20003730:	687b      	ldr	r3, [r7, #4]
20003732:	4013      	ands	r3, r2
20003734:	2b00      	cmp	r3, #0
20003736:	d016      	beq.n	20003766 <gpio_af_set+0xa0>
C:\Users\nitin.deshpande\Documents\GitHub\microsemi-huawei-liteos\microsemi-liteos\mscc-huawei-wsp\sc-gd450i-board-test\Debug/../gd32firmware/Library/Firmware/GD32F4xx_standard_peripheral/Source/gd32f4xx_gpio.c:307
            /* clear the specified pin alternate function bits */
            afrh &= ~GPIO_AFR_MASK(i - 8U);
20003738:	8bfb      	ldrh	r3, [r7, #30]
2000373a:	f103 4380 	add.w	r3, r3, #1073741824	; 0x40000000
2000373e:	3b08      	subs	r3, #8
20003740:	009b      	lsls	r3, r3, #2
20003742:	220f      	movs	r2, #15
20003744:	fa02 f303 	lsl.w	r3, r2, r3
20003748:	43db      	mvns	r3, r3
2000374a:	697a      	ldr	r2, [r7, #20]
2000374c:	4013      	ands	r3, r2
2000374e:	617b      	str	r3, [r7, #20]
C:\Users\nitin.deshpande\Documents\GitHub\microsemi-huawei-liteos\microsemi-liteos\mscc-huawei-wsp\sc-gd450i-board-test\Debug/../gd32firmware/Library/Firmware/GD32F4xx_standard_peripheral/Source/gd32f4xx_gpio.c:308
            afrh |= GPIO_AFR_SET(i - 8U,alt_func_num);
20003750:	8bfb      	ldrh	r3, [r7, #30]
20003752:	f103 4380 	add.w	r3, r3, #1073741824	; 0x40000000
20003756:	3b08      	subs	r3, #8
20003758:	009b      	lsls	r3, r3, #2
2000375a:	68ba      	ldr	r2, [r7, #8]
2000375c:	fa02 f303 	lsl.w	r3, r2, r3
20003760:	697a      	ldr	r2, [r7, #20]
20003762:	4313      	orrs	r3, r2
20003764:	617b      	str	r3, [r7, #20]
C:\Users\nitin.deshpande\Documents\GitHub\microsemi-huawei-liteos\microsemi-liteos\mscc-huawei-wsp\sc-gd450i-board-test\Debug/../gd32firmware/Library/Firmware/GD32F4xx_standard_peripheral/Source/gd32f4xx_gpio.c:304 (discriminator 2)
    for(i = 8U;i < 16U;i++){
20003766:	8bfb      	ldrh	r3, [r7, #30]
20003768:	3301      	adds	r3, #1
2000376a:	83fb      	strh	r3, [r7, #30]
C:\Users\nitin.deshpande\Documents\GitHub\microsemi-huawei-liteos\microsemi-liteos\mscc-huawei-wsp\sc-gd450i-board-test\Debug/../gd32firmware/Library/Firmware/GD32F4xx_standard_peripheral/Source/gd32f4xx_gpio.c:304 (discriminator 1)
2000376c:	8bfb      	ldrh	r3, [r7, #30]
2000376e:	2b0f      	cmp	r3, #15
20003770:	d9db      	bls.n	2000372a <gpio_af_set+0x64>
C:\Users\nitin.deshpande\Documents\GitHub\microsemi-huawei-liteos\microsemi-liteos\mscc-huawei-wsp\sc-gd450i-board-test\Debug/../gd32firmware/Library/Firmware/GD32F4xx_standard_peripheral/Source/gd32f4xx_gpio.c:312
        }
    }

    GPIO_AFSEL0(gpio_periph) = afrl;
20003772:	68fb      	ldr	r3, [r7, #12]
20003774:	3320      	adds	r3, #32
20003776:	461a      	mov	r2, r3
20003778:	69bb      	ldr	r3, [r7, #24]
2000377a:	6013      	str	r3, [r2, #0]
C:\Users\nitin.deshpande\Documents\GitHub\microsemi-huawei-liteos\microsemi-liteos\mscc-huawei-wsp\sc-gd450i-board-test\Debug/../gd32firmware/Library/Firmware/GD32F4xx_standard_peripheral/Source/gd32f4xx_gpio.c:313
    GPIO_AFSEL1(gpio_periph) = afrh;
2000377c:	68fb      	ldr	r3, [r7, #12]
2000377e:	3324      	adds	r3, #36	; 0x24
20003780:	461a      	mov	r2, r3
20003782:	697b      	ldr	r3, [r7, #20]
20003784:	6013      	str	r3, [r2, #0]
C:\Users\nitin.deshpande\Documents\GitHub\microsemi-huawei-liteos\microsemi-liteos\mscc-huawei-wsp\sc-gd450i-board-test\Debug/../gd32firmware/Library/Firmware/GD32F4xx_standard_peripheral/Source/gd32f4xx_gpio.c:314
}
20003786:	bf00      	nop
20003788:	3724      	adds	r7, #36	; 0x24
2000378a:	46bd      	mov	sp, r7
2000378c:	f85d 7b04 	ldr.w	r7, [sp], #4
20003790:	4770      	bx	lr
	...

20003794 <nvic_irq_enable>:
nvic_irq_enable():
C:\Users\nitin.deshpande\Documents\GitHub\microsemi-huawei-liteos\microsemi-liteos\mscc-huawei-wsp\sc-gd450i-board-test\Debug/../gd32firmware/Library/Firmware/GD32F4xx_standard_peripheral/Source/gd32f4xx_misc.c:41
    \param[out] none
    \retval     none
*/
void nvic_irq_enable(uint8_t nvic_irq, uint8_t nvic_irq_pre_priority, 
                     uint8_t nvic_irq_sub_priority)
{
20003794:	b480      	push	{r7}
20003796:	b087      	sub	sp, #28
20003798:	af00      	add	r7, sp, #0
2000379a:	4603      	mov	r3, r0
2000379c:	71fb      	strb	r3, [r7, #7]
2000379e:	460b      	mov	r3, r1
200037a0:	71bb      	strb	r3, [r7, #6]
200037a2:	4613      	mov	r3, r2
200037a4:	717b      	strb	r3, [r7, #5]
C:\Users\nitin.deshpande\Documents\GitHub\microsemi-huawei-liteos\microsemi-liteos\mscc-huawei-wsp\sc-gd450i-board-test\Debug/../gd32firmware/Library/Firmware/GD32F4xx_standard_peripheral/Source/gd32f4xx_misc.c:42
    uint32_t temp_priority = 0x00U, temp_pre = 0x00U, temp_sub = 0x00U;
200037a6:	2300      	movs	r3, #0
200037a8:	60fb      	str	r3, [r7, #12]
200037aa:	2300      	movs	r3, #0
200037ac:	617b      	str	r3, [r7, #20]
200037ae:	2300      	movs	r3, #0
200037b0:	613b      	str	r3, [r7, #16]
C:\Users\nitin.deshpande\Documents\GitHub\microsemi-huawei-liteos\microsemi-liteos\mscc-huawei-wsp\sc-gd450i-board-test\Debug/../gd32firmware/Library/Firmware/GD32F4xx_standard_peripheral/Source/gd32f4xx_misc.c:44
    /* use the priority group value to get the temp_pre and the temp_sub */
    if(((SCB->AIRCR) & (uint32_t)0x700U)==NVIC_PRIGROUP_PRE0_SUB4){
200037b2:	4b35      	ldr	r3, [pc, #212]	; (20003888 <nvic_irq_enable+0xf4>)
200037b4:	68db      	ldr	r3, [r3, #12]
200037b6:	f403 63e0 	and.w	r3, r3, #1792	; 0x700
200037ba:	f5b3 6fe0 	cmp.w	r3, #1792	; 0x700
200037be:	d104      	bne.n	200037ca <nvic_irq_enable+0x36>
C:\Users\nitin.deshpande\Documents\GitHub\microsemi-huawei-liteos\microsemi-liteos\mscc-huawei-wsp\sc-gd450i-board-test\Debug/../gd32firmware/Library/Firmware/GD32F4xx_standard_peripheral/Source/gd32f4xx_misc.c:45
        temp_pre=0U;
200037c0:	2300      	movs	r3, #0
200037c2:	617b      	str	r3, [r7, #20]
C:\Users\nitin.deshpande\Documents\GitHub\microsemi-huawei-liteos\microsemi-liteos\mscc-huawei-wsp\sc-gd450i-board-test\Debug/../gd32firmware/Library/Firmware/GD32F4xx_standard_peripheral/Source/gd32f4xx_misc.c:46
        temp_sub=0x4U;
200037c4:	2304      	movs	r3, #4
200037c6:	613b      	str	r3, [r7, #16]
200037c8:	e02e      	b.n	20003828 <nvic_irq_enable+0x94>
C:\Users\nitin.deshpande\Documents\GitHub\microsemi-huawei-liteos\microsemi-liteos\mscc-huawei-wsp\sc-gd450i-board-test\Debug/../gd32firmware/Library/Firmware/GD32F4xx_standard_peripheral/Source/gd32f4xx_misc.c:47
    }else if(((SCB->AIRCR) & (uint32_t)0x700U)==NVIC_PRIGROUP_PRE1_SUB3){
200037ca:	4b2f      	ldr	r3, [pc, #188]	; (20003888 <nvic_irq_enable+0xf4>)
200037cc:	68db      	ldr	r3, [r3, #12]
200037ce:	f403 63e0 	and.w	r3, r3, #1792	; 0x700
200037d2:	f5b3 6fc0 	cmp.w	r3, #1536	; 0x600
200037d6:	d104      	bne.n	200037e2 <nvic_irq_enable+0x4e>
C:\Users\nitin.deshpande\Documents\GitHub\microsemi-huawei-liteos\microsemi-liteos\mscc-huawei-wsp\sc-gd450i-board-test\Debug/../gd32firmware/Library/Firmware/GD32F4xx_standard_peripheral/Source/gd32f4xx_misc.c:48
        temp_pre=1U;
200037d8:	2301      	movs	r3, #1
200037da:	617b      	str	r3, [r7, #20]
C:\Users\nitin.deshpande\Documents\GitHub\microsemi-huawei-liteos\microsemi-liteos\mscc-huawei-wsp\sc-gd450i-board-test\Debug/../gd32firmware/Library/Firmware/GD32F4xx_standard_peripheral/Source/gd32f4xx_misc.c:49
        temp_sub=0x3U;
200037dc:	2303      	movs	r3, #3
200037de:	613b      	str	r3, [r7, #16]
200037e0:	e022      	b.n	20003828 <nvic_irq_enable+0x94>
C:\Users\nitin.deshpande\Documents\GitHub\microsemi-huawei-liteos\microsemi-liteos\mscc-huawei-wsp\sc-gd450i-board-test\Debug/../gd32firmware/Library/Firmware/GD32F4xx_standard_peripheral/Source/gd32f4xx_misc.c:50
    }else if(((SCB->AIRCR) & (uint32_t)0x700U)==NVIC_PRIGROUP_PRE2_SUB2){
200037e2:	4b29      	ldr	r3, [pc, #164]	; (20003888 <nvic_irq_enable+0xf4>)
200037e4:	68db      	ldr	r3, [r3, #12]
200037e6:	f403 63e0 	and.w	r3, r3, #1792	; 0x700
200037ea:	f5b3 6fa0 	cmp.w	r3, #1280	; 0x500
200037ee:	d104      	bne.n	200037fa <nvic_irq_enable+0x66>
C:\Users\nitin.deshpande\Documents\GitHub\microsemi-huawei-liteos\microsemi-liteos\mscc-huawei-wsp\sc-gd450i-board-test\Debug/../gd32firmware/Library/Firmware/GD32F4xx_standard_peripheral/Source/gd32f4xx_misc.c:51
        temp_pre=2U;
200037f0:	2302      	movs	r3, #2
200037f2:	617b      	str	r3, [r7, #20]
C:\Users\nitin.deshpande\Documents\GitHub\microsemi-huawei-liteos\microsemi-liteos\mscc-huawei-wsp\sc-gd450i-board-test\Debug/../gd32firmware/Library/Firmware/GD32F4xx_standard_peripheral/Source/gd32f4xx_misc.c:52
        temp_sub=0x2U;
200037f4:	2302      	movs	r3, #2
200037f6:	613b      	str	r3, [r7, #16]
200037f8:	e016      	b.n	20003828 <nvic_irq_enable+0x94>
C:\Users\nitin.deshpande\Documents\GitHub\microsemi-huawei-liteos\microsemi-liteos\mscc-huawei-wsp\sc-gd450i-board-test\Debug/../gd32firmware/Library/Firmware/GD32F4xx_standard_peripheral/Source/gd32f4xx_misc.c:53
    }else if(((SCB->AIRCR) & (uint32_t)0x700U)==NVIC_PRIGROUP_PRE3_SUB1){
200037fa:	4b23      	ldr	r3, [pc, #140]	; (20003888 <nvic_irq_enable+0xf4>)
200037fc:	68db      	ldr	r3, [r3, #12]
200037fe:	f403 63e0 	and.w	r3, r3, #1792	; 0x700
20003802:	f5b3 6f80 	cmp.w	r3, #1024	; 0x400
20003806:	d104      	bne.n	20003812 <nvic_irq_enable+0x7e>
C:\Users\nitin.deshpande\Documents\GitHub\microsemi-huawei-liteos\microsemi-liteos\mscc-huawei-wsp\sc-gd450i-board-test\Debug/../gd32firmware/Library/Firmware/GD32F4xx_standard_peripheral/Source/gd32f4xx_misc.c:54
        temp_pre=3U;
20003808:	2303      	movs	r3, #3
2000380a:	617b      	str	r3, [r7, #20]
C:\Users\nitin.deshpande\Documents\GitHub\microsemi-huawei-liteos\microsemi-liteos\mscc-huawei-wsp\sc-gd450i-board-test\Debug/../gd32firmware/Library/Firmware/GD32F4xx_standard_peripheral/Source/gd32f4xx_misc.c:55
        temp_sub=0x1U;
2000380c:	2301      	movs	r3, #1
2000380e:	613b      	str	r3, [r7, #16]
20003810:	e00a      	b.n	20003828 <nvic_irq_enable+0x94>
C:\Users\nitin.deshpande\Documents\GitHub\microsemi-huawei-liteos\microsemi-liteos\mscc-huawei-wsp\sc-gd450i-board-test\Debug/../gd32firmware/Library/Firmware/GD32F4xx_standard_peripheral/Source/gd32f4xx_misc.c:56
    }else if(((SCB->AIRCR) & (uint32_t)0x700U)==NVIC_PRIGROUP_PRE4_SUB0){
20003812:	4b1d      	ldr	r3, [pc, #116]	; (20003888 <nvic_irq_enable+0xf4>)
20003814:	68db      	ldr	r3, [r3, #12]
20003816:	f403 63e0 	and.w	r3, r3, #1792	; 0x700
2000381a:	f5b3 7f40 	cmp.w	r3, #768	; 0x300
2000381e:	d103      	bne.n	20003828 <nvic_irq_enable+0x94>
C:\Users\nitin.deshpande\Documents\GitHub\microsemi-huawei-liteos\microsemi-liteos\mscc-huawei-wsp\sc-gd450i-board-test\Debug/../gd32firmware/Library/Firmware/GD32F4xx_standard_peripheral/Source/gd32f4xx_misc.c:57
        temp_pre=4U;
20003820:	2304      	movs	r3, #4
20003822:	617b      	str	r3, [r7, #20]
C:\Users\nitin.deshpande\Documents\GitHub\microsemi-huawei-liteos\microsemi-liteos\mscc-huawei-wsp\sc-gd450i-board-test\Debug/../gd32firmware/Library/Firmware/GD32F4xx_standard_peripheral/Source/gd32f4xx_misc.c:58
        temp_sub=0x0U;
20003824:	2300      	movs	r3, #0
20003826:	613b      	str	r3, [r7, #16]
C:\Users\nitin.deshpande\Documents\GitHub\microsemi-huawei-liteos\microsemi-liteos\mscc-huawei-wsp\sc-gd450i-board-test\Debug/../gd32firmware/Library/Firmware/GD32F4xx_standard_peripheral/Source/gd32f4xx_misc.c:62
    }else{
    }
    /* get the temp_priority to fill the NVIC->IP register */
    temp_priority = (uint32_t)nvic_irq_pre_priority << (0x4U - temp_pre);
20003828:	79ba      	ldrb	r2, [r7, #6]
2000382a:	697b      	ldr	r3, [r7, #20]
2000382c:	f1c3 0304 	rsb	r3, r3, #4
20003830:	fa02 f303 	lsl.w	r3, r2, r3
20003834:	60fb      	str	r3, [r7, #12]
C:\Users\nitin.deshpande\Documents\GitHub\microsemi-huawei-liteos\microsemi-liteos\mscc-huawei-wsp\sc-gd450i-board-test\Debug/../gd32firmware/Library/Firmware/GD32F4xx_standard_peripheral/Source/gd32f4xx_misc.c:63
    temp_priority |= nvic_irq_sub_priority &(0x0FU >> (0x4U - temp_sub));
20003836:	797a      	ldrb	r2, [r7, #5]
20003838:	693b      	ldr	r3, [r7, #16]
2000383a:	f1c3 0304 	rsb	r3, r3, #4
2000383e:	210f      	movs	r1, #15
20003840:	fa21 f303 	lsr.w	r3, r1, r3
20003844:	4013      	ands	r3, r2
20003846:	68fa      	ldr	r2, [r7, #12]
20003848:	4313      	orrs	r3, r2
2000384a:	60fb      	str	r3, [r7, #12]
C:\Users\nitin.deshpande\Documents\GitHub\microsemi-huawei-liteos\microsemi-liteos\mscc-huawei-wsp\sc-gd450i-board-test\Debug/../gd32firmware/Library/Firmware/GD32F4xx_standard_peripheral/Source/gd32f4xx_misc.c:64
    temp_priority = temp_priority << 0x04U;
2000384c:	68fb      	ldr	r3, [r7, #12]
2000384e:	011b      	lsls	r3, r3, #4
20003850:	60fb      	str	r3, [r7, #12]
C:\Users\nitin.deshpande\Documents\GitHub\microsemi-huawei-liteos\microsemi-liteos\mscc-huawei-wsp\sc-gd450i-board-test\Debug/../gd32firmware/Library/Firmware/GD32F4xx_standard_peripheral/Source/gd32f4xx_misc.c:65
    NVIC->IP[nvic_irq] = (uint8_t)temp_priority;
20003852:	4a0e      	ldr	r2, [pc, #56]	; (2000388c <nvic_irq_enable+0xf8>)
20003854:	79fb      	ldrb	r3, [r7, #7]
20003856:	68f9      	ldr	r1, [r7, #12]
20003858:	b2c9      	uxtb	r1, r1
2000385a:	4413      	add	r3, r2
2000385c:	460a      	mov	r2, r1
2000385e:	f883 2300 	strb.w	r2, [r3, #768]	; 0x300
C:\Users\nitin.deshpande\Documents\GitHub\microsemi-huawei-liteos\microsemi-liteos\mscc-huawei-wsp\sc-gd450i-board-test\Debug/../gd32firmware/Library/Firmware/GD32F4xx_standard_peripheral/Source/gd32f4xx_misc.c:67
    /* enable the selected IRQ */
    NVIC->ISER[nvic_irq >> 0x05U] = (uint32_t)0x01U << (nvic_irq & (uint8_t)0x1FU);
20003862:	4a0a      	ldr	r2, [pc, #40]	; (2000388c <nvic_irq_enable+0xf8>)
20003864:	79fb      	ldrb	r3, [r7, #7]
20003866:	095b      	lsrs	r3, r3, #5
20003868:	b2db      	uxtb	r3, r3
2000386a:	4618      	mov	r0, r3
2000386c:	79fb      	ldrb	r3, [r7, #7]
2000386e:	f003 031f 	and.w	r3, r3, #31
20003872:	2101      	movs	r1, #1
20003874:	fa01 f303 	lsl.w	r3, r1, r3
20003878:	f842 3020 	str.w	r3, [r2, r0, lsl #2]
C:\Users\nitin.deshpande\Documents\GitHub\microsemi-huawei-liteos\microsemi-liteos\mscc-huawei-wsp\sc-gd450i-board-test\Debug/../gd32firmware/Library/Firmware/GD32F4xx_standard_peripheral/Source/gd32f4xx_misc.c:68
}
2000387c:	bf00      	nop
2000387e:	371c      	adds	r7, #28
20003880:	46bd      	mov	sp, r7
20003882:	f85d 7b04 	ldr.w	r7, [sp], #4
20003886:	4770      	bx	lr
20003888:	e000ed00 	.word	0xe000ed00
2000388c:	e000e100 	.word	0xe000e100

20003890 <rcu_periph_clock_enable>:
rcu_periph_clock_enable():
C:\Users\nitin.deshpande\Documents\GitHub\microsemi-huawei-liteos\microsemi-liteos\mscc-huawei-wsp\sc-gd450i-board-test\Debug/../gd32firmware/Library/Firmware/GD32F4xx_standard_peripheral/Source/gd32f4xx_rcu.c:90
      \arg        RCU_IREF: IREF clock
    \param[out] none
    \retval     none
*/
void rcu_periph_clock_enable(rcu_periph_enum periph)
{
20003890:	b480      	push	{r7}
20003892:	b083      	sub	sp, #12
20003894:	af00      	add	r7, sp, #0
20003896:	4603      	mov	r3, r0
20003898:	80fb      	strh	r3, [r7, #6]
C:\Users\nitin.deshpande\Documents\GitHub\microsemi-huawei-liteos\microsemi-liteos\mscc-huawei-wsp\sc-gd450i-board-test\Debug/../gd32firmware/Library/Firmware/GD32F4xx_standard_peripheral/Source/gd32f4xx_rcu.c:91
    RCU_REG_VAL(periph) |= BIT(RCU_BIT_POS(periph));
2000389a:	88fb      	ldrh	r3, [r7, #6]
2000389c:	099b      	lsrs	r3, r3, #6
2000389e:	b29b      	uxth	r3, r3
200038a0:	f103 4380 	add.w	r3, r3, #1073741824	; 0x40000000
200038a4:	f503 330e 	add.w	r3, r3, #145408	; 0x23800
200038a8:	4618      	mov	r0, r3
200038aa:	88fb      	ldrh	r3, [r7, #6]
200038ac:	099b      	lsrs	r3, r3, #6
200038ae:	b29b      	uxth	r3, r3
200038b0:	f103 4380 	add.w	r3, r3, #1073741824	; 0x40000000
200038b4:	f503 330e 	add.w	r3, r3, #145408	; 0x23800
200038b8:	681a      	ldr	r2, [r3, #0]
200038ba:	88fb      	ldrh	r3, [r7, #6]
200038bc:	f003 031f 	and.w	r3, r3, #31
200038c0:	2101      	movs	r1, #1
200038c2:	fa01 f303 	lsl.w	r3, r1, r3
200038c6:	4313      	orrs	r3, r2
200038c8:	6003      	str	r3, [r0, #0]
C:\Users\nitin.deshpande\Documents\GitHub\microsemi-huawei-liteos\microsemi-liteos\mscc-huawei-wsp\sc-gd450i-board-test\Debug/../gd32firmware/Library/Firmware/GD32F4xx_standard_peripheral/Source/gd32f4xx_rcu.c:92
}
200038ca:	bf00      	nop
200038cc:	370c      	adds	r7, #12
200038ce:	46bd      	mov	sp, r7
200038d0:	f85d 7b04 	ldr.w	r7, [sp], #4
200038d4:	4770      	bx	lr

200038d6 <rcu_periph_reset_enable>:
rcu_periph_reset_enable():
C:\Users\nitin.deshpande\Documents\GitHub\microsemi-huawei-liteos\microsemi-liteos\mscc-huawei-wsp\sc-gd450i-board-test\Debug/../gd32firmware/Library/Firmware/GD32F4xx_standard_peripheral/Source/gd32f4xx_rcu.c:265
      \arg        RCU_IREFRST: reset IREF
    \param[out] none
    \retval     none
*/
void rcu_periph_reset_enable(rcu_periph_reset_enum periph_reset)
{
200038d6:	b480      	push	{r7}
200038d8:	b083      	sub	sp, #12
200038da:	af00      	add	r7, sp, #0
200038dc:	4603      	mov	r3, r0
200038de:	80fb      	strh	r3, [r7, #6]
C:\Users\nitin.deshpande\Documents\GitHub\microsemi-huawei-liteos\microsemi-liteos\mscc-huawei-wsp\sc-gd450i-board-test\Debug/../gd32firmware/Library/Firmware/GD32F4xx_standard_peripheral/Source/gd32f4xx_rcu.c:266
    RCU_REG_VAL(periph_reset) |= BIT(RCU_BIT_POS(periph_reset));
200038e0:	88fb      	ldrh	r3, [r7, #6]
200038e2:	099b      	lsrs	r3, r3, #6
200038e4:	b29b      	uxth	r3, r3
200038e6:	f103 4380 	add.w	r3, r3, #1073741824	; 0x40000000
200038ea:	f503 330e 	add.w	r3, r3, #145408	; 0x23800
200038ee:	4618      	mov	r0, r3
200038f0:	88fb      	ldrh	r3, [r7, #6]
200038f2:	099b      	lsrs	r3, r3, #6
200038f4:	b29b      	uxth	r3, r3
200038f6:	f103 4380 	add.w	r3, r3, #1073741824	; 0x40000000
200038fa:	f503 330e 	add.w	r3, r3, #145408	; 0x23800
200038fe:	681a      	ldr	r2, [r3, #0]
20003900:	88fb      	ldrh	r3, [r7, #6]
20003902:	f003 031f 	and.w	r3, r3, #31
20003906:	2101      	movs	r1, #1
20003908:	fa01 f303 	lsl.w	r3, r1, r3
2000390c:	4313      	orrs	r3, r2
2000390e:	6003      	str	r3, [r0, #0]
C:\Users\nitin.deshpande\Documents\GitHub\microsemi-huawei-liteos\microsemi-liteos\mscc-huawei-wsp\sc-gd450i-board-test\Debug/../gd32firmware/Library/Firmware/GD32F4xx_standard_peripheral/Source/gd32f4xx_rcu.c:267
}
20003910:	bf00      	nop
20003912:	370c      	adds	r7, #12
20003914:	46bd      	mov	sp, r7
20003916:	f85d 7b04 	ldr.w	r7, [sp], #4
2000391a:	4770      	bx	lr

2000391c <rcu_periph_reset_disable>:
rcu_periph_reset_disable():
C:\Users\nitin.deshpande\Documents\GitHub\microsemi-huawei-liteos\microsemi-liteos\mscc-huawei-wsp\sc-gd450i-board-test\Debug/../gd32firmware/Library/Firmware/GD32F4xx_standard_peripheral/Source/gd32f4xx_rcu.c:302
      \arg        RCU_IREFRST: reset IREF
    \param[out] none
    \retval     none
*/
void rcu_periph_reset_disable(rcu_periph_reset_enum periph_reset)
{
2000391c:	b480      	push	{r7}
2000391e:	b083      	sub	sp, #12
20003920:	af00      	add	r7, sp, #0
20003922:	4603      	mov	r3, r0
20003924:	80fb      	strh	r3, [r7, #6]
C:\Users\nitin.deshpande\Documents\GitHub\microsemi-huawei-liteos\microsemi-liteos\mscc-huawei-wsp\sc-gd450i-board-test\Debug/../gd32firmware/Library/Firmware/GD32F4xx_standard_peripheral/Source/gd32f4xx_rcu.c:303
    RCU_REG_VAL(periph_reset) &= ~BIT(RCU_BIT_POS(periph_reset));
20003926:	88fb      	ldrh	r3, [r7, #6]
20003928:	099b      	lsrs	r3, r3, #6
2000392a:	b29b      	uxth	r3, r3
2000392c:	f103 4380 	add.w	r3, r3, #1073741824	; 0x40000000
20003930:	f503 330e 	add.w	r3, r3, #145408	; 0x23800
20003934:	4618      	mov	r0, r3
20003936:	88fb      	ldrh	r3, [r7, #6]
20003938:	099b      	lsrs	r3, r3, #6
2000393a:	b29b      	uxth	r3, r3
2000393c:	f103 4380 	add.w	r3, r3, #1073741824	; 0x40000000
20003940:	f503 330e 	add.w	r3, r3, #145408	; 0x23800
20003944:	681a      	ldr	r2, [r3, #0]
20003946:	88fb      	ldrh	r3, [r7, #6]
20003948:	f003 031f 	and.w	r3, r3, #31
2000394c:	2101      	movs	r1, #1
2000394e:	fa01 f303 	lsl.w	r3, r1, r3
20003952:	43db      	mvns	r3, r3
20003954:	4013      	ands	r3, r2
20003956:	6003      	str	r3, [r0, #0]
C:\Users\nitin.deshpande\Documents\GitHub\microsemi-huawei-liteos\microsemi-liteos\mscc-huawei-wsp\sc-gd450i-board-test\Debug/../gd32firmware/Library/Firmware/GD32F4xx_standard_peripheral/Source/gd32f4xx_rcu.c:304
}
20003958:	bf00      	nop
2000395a:	370c      	adds	r7, #12
2000395c:	46bd      	mov	sp, r7
2000395e:	f85d 7b04 	ldr.w	r7, [sp], #4
20003962:	4770      	bx	lr

20003964 <rcu_clock_freq_get>:
rcu_clock_freq_get():
C:\Users\nitin.deshpande\Documents\GitHub\microsemi-huawei-liteos\microsemi-liteos\mscc-huawei-wsp\sc-gd450i-board-test\Debug/../gd32firmware/Library/Firmware/GD32F4xx_standard_peripheral/Source/gd32f4xx_rcu.c:1208
      \arg        CK_APB2: APB2 clock frequency
    \param[out] none
    \retval     clock frequency of system, AHB, APB1, APB2
*/
uint32_t rcu_clock_freq_get(rcu_clock_freq_enum clock)
{
20003964:	b490      	push	{r4, r7}
20003966:	b098      	sub	sp, #96	; 0x60
20003968:	af00      	add	r7, sp, #0
2000396a:	4603      	mov	r3, r0
2000396c:	71fb      	strb	r3, [r7, #7]
C:\Users\nitin.deshpande\Documents\GitHub\microsemi-huawei-liteos\microsemi-liteos\mscc-huawei-wsp\sc-gd450i-board-test\Debug/../gd32firmware/Library/Firmware/GD32F4xx_standard_peripheral/Source/gd32f4xx_rcu.c:1209
    uint32_t sws, ck_freq = 0U;
2000396e:	2300      	movs	r3, #0
20003970:	65fb      	str	r3, [r7, #92]	; 0x5c
C:\Users\nitin.deshpande\Documents\GitHub\microsemi-huawei-liteos\microsemi-liteos\mscc-huawei-wsp\sc-gd450i-board-test\Debug/../gd32firmware/Library/Firmware/GD32F4xx_standard_peripheral/Source/gd32f4xx_rcu.c:1214
    uint32_t cksys_freq, ahb_freq, apb1_freq, apb2_freq;
    uint32_t pllpsc, plln, pllsel, pllp, ck_src, idx, clk_exp;
    
    /* exponent of AHB, APB1 and APB2 clock divider */
    const uint8_t ahb_exp[16] = {0, 0, 0, 0, 0, 0, 0, 0, 1, 2, 3, 4, 6, 7, 8, 9};
20003972:	4b56      	ldr	r3, [pc, #344]	; (20003acc <rcu_clock_freq_get+0x168>)
20003974:	f107 041c 	add.w	r4, r7, #28
20003978:	cb0f      	ldmia	r3, {r0, r1, r2, r3}
2000397a:	e884 000f 	stmia.w	r4, {r0, r1, r2, r3}
C:\Users\nitin.deshpande\Documents\GitHub\microsemi-huawei-liteos\microsemi-liteos\mscc-huawei-wsp\sc-gd450i-board-test\Debug/../gd32firmware/Library/Firmware/GD32F4xx_standard_peripheral/Source/gd32f4xx_rcu.c:1215
    const uint8_t apb1_exp[8] = {0, 0, 0, 0, 1, 2, 3, 4};
2000397e:	4a54      	ldr	r2, [pc, #336]	; (20003ad0 <rcu_clock_freq_get+0x16c>)
20003980:	f107 0314 	add.w	r3, r7, #20
20003984:	e892 0003 	ldmia.w	r2, {r0, r1}
20003988:	e883 0003 	stmia.w	r3, {r0, r1}
C:\Users\nitin.deshpande\Documents\GitHub\microsemi-huawei-liteos\microsemi-liteos\mscc-huawei-wsp\sc-gd450i-board-test\Debug/../gd32firmware/Library/Firmware/GD32F4xx_standard_peripheral/Source/gd32f4xx_rcu.c:1216
    const uint8_t apb2_exp[8] = {0, 0, 0, 0, 1, 2, 3, 4};
2000398c:	4a50      	ldr	r2, [pc, #320]	; (20003ad0 <rcu_clock_freq_get+0x16c>)
2000398e:	f107 030c 	add.w	r3, r7, #12
20003992:	e892 0003 	ldmia.w	r2, {r0, r1}
20003996:	e883 0003 	stmia.w	r3, {r0, r1}
C:\Users\nitin.deshpande\Documents\GitHub\microsemi-huawei-liteos\microsemi-liteos\mscc-huawei-wsp\sc-gd450i-board-test\Debug/../gd32firmware/Library/Firmware/GD32F4xx_standard_peripheral/Source/gd32f4xx_rcu.c:1218

    sws = GET_BITS(RCU_CFG0, 2, 3);
2000399a:	4b4e      	ldr	r3, [pc, #312]	; (20003ad4 <rcu_clock_freq_get+0x170>)
2000399c:	681b      	ldr	r3, [r3, #0]
2000399e:	089b      	lsrs	r3, r3, #2
200039a0:	f003 0303 	and.w	r3, r3, #3
200039a4:	653b      	str	r3, [r7, #80]	; 0x50
C:\Users\nitin.deshpande\Documents\GitHub\microsemi-huawei-liteos\microsemi-liteos\mscc-huawei-wsp\sc-gd450i-board-test\Debug/../gd32firmware/Library/Firmware/GD32F4xx_standard_peripheral/Source/gd32f4xx_rcu.c:1219
    switch(sws){
200039a6:	6d3b      	ldr	r3, [r7, #80]	; 0x50
200039a8:	2b01      	cmp	r3, #1
200039aa:	d007      	beq.n	200039bc <rcu_clock_freq_get+0x58>
200039ac:	2b01      	cmp	r3, #1
200039ae:	d302      	bcc.n	200039b6 <rcu_clock_freq_get+0x52>
200039b0:	2b02      	cmp	r3, #2
200039b2:	d006      	beq.n	200039c2 <rcu_clock_freq_get+0x5e>
200039b4:	e032      	b.n	20003a1c <rcu_clock_freq_get+0xb8>
C:\Users\nitin.deshpande\Documents\GitHub\microsemi-huawei-liteos\microsemi-liteos\mscc-huawei-wsp\sc-gd450i-board-test\Debug/../gd32firmware/Library/Firmware/GD32F4xx_standard_peripheral/Source/gd32f4xx_rcu.c:1222
    /* IRC16M is selected as CK_SYS */
    case SEL_IRC16M:
        cksys_freq = IRC16M_VALUE;
200039b6:	4b48      	ldr	r3, [pc, #288]	; (20003ad8 <rcu_clock_freq_get+0x174>)
200039b8:	65bb      	str	r3, [r7, #88]	; 0x58
C:\Users\nitin.deshpande\Documents\GitHub\microsemi-huawei-liteos\microsemi-liteos\mscc-huawei-wsp\sc-gd450i-board-test\Debug/../gd32firmware/Library/Firmware/GD32F4xx_standard_peripheral/Source/gd32f4xx_rcu.c:1223
        break;
200039ba:	e032      	b.n	20003a22 <rcu_clock_freq_get+0xbe>
C:\Users\nitin.deshpande\Documents\GitHub\microsemi-huawei-liteos\microsemi-liteos\mscc-huawei-wsp\sc-gd450i-board-test\Debug/../gd32firmware/Library/Firmware/GD32F4xx_standard_peripheral/Source/gd32f4xx_rcu.c:1226
    /* HXTAL is selected as CK_SYS */
    case SEL_HXTAL:
        cksys_freq = HXTAL_VALUE;
200039bc:	4b47      	ldr	r3, [pc, #284]	; (20003adc <rcu_clock_freq_get+0x178>)
200039be:	65bb      	str	r3, [r7, #88]	; 0x58
C:\Users\nitin.deshpande\Documents\GitHub\microsemi-huawei-liteos\microsemi-liteos\mscc-huawei-wsp\sc-gd450i-board-test\Debug/../gd32firmware/Library/Firmware/GD32F4xx_standard_peripheral/Source/gd32f4xx_rcu.c:1227
        break;
200039c0:	e02f      	b.n	20003a22 <rcu_clock_freq_get+0xbe>
C:\Users\nitin.deshpande\Documents\GitHub\microsemi-huawei-liteos\microsemi-liteos\mscc-huawei-wsp\sc-gd450i-board-test\Debug/../gd32firmware/Library/Firmware/GD32F4xx_standard_peripheral/Source/gd32f4xx_rcu.c:1231
    /* PLLP is selected as CK_SYS */
    case SEL_PLLP:
        /* get the value of PLLPSC[5:0] */
        pllpsc = GET_BITS(RCU_PLL, 0U, 5U);
200039c2:	4b47      	ldr	r3, [pc, #284]	; (20003ae0 <rcu_clock_freq_get+0x17c>)
200039c4:	681b      	ldr	r3, [r3, #0]
200039c6:	f003 033f 	and.w	r3, r3, #63	; 0x3f
200039ca:	64fb      	str	r3, [r7, #76]	; 0x4c
C:\Users\nitin.deshpande\Documents\GitHub\microsemi-huawei-liteos\microsemi-liteos\mscc-huawei-wsp\sc-gd450i-board-test\Debug/../gd32firmware/Library/Firmware/GD32F4xx_standard_peripheral/Source/gd32f4xx_rcu.c:1232
        plln = GET_BITS(RCU_PLL, 6U, 14U);
200039cc:	4b44      	ldr	r3, [pc, #272]	; (20003ae0 <rcu_clock_freq_get+0x17c>)
200039ce:	681b      	ldr	r3, [r3, #0]
200039d0:	099b      	lsrs	r3, r3, #6
200039d2:	f3c3 0308 	ubfx	r3, r3, #0, #9
200039d6:	64bb      	str	r3, [r7, #72]	; 0x48
C:\Users\nitin.deshpande\Documents\GitHub\microsemi-huawei-liteos\microsemi-liteos\mscc-huawei-wsp\sc-gd450i-board-test\Debug/../gd32firmware/Library/Firmware/GD32F4xx_standard_peripheral/Source/gd32f4xx_rcu.c:1233
        pllp = (GET_BITS(RCU_PLL, 16U, 17U) + 1U) * 2U;
200039d8:	4b41      	ldr	r3, [pc, #260]	; (20003ae0 <rcu_clock_freq_get+0x17c>)
200039da:	681b      	ldr	r3, [r3, #0]
200039dc:	0c1b      	lsrs	r3, r3, #16
200039de:	f003 0303 	and.w	r3, r3, #3
200039e2:	3301      	adds	r3, #1
200039e4:	005b      	lsls	r3, r3, #1
200039e6:	647b      	str	r3, [r7, #68]	; 0x44
C:\Users\nitin.deshpande\Documents\GitHub\microsemi-huawei-liteos\microsemi-liteos\mscc-huawei-wsp\sc-gd450i-board-test\Debug/../gd32firmware/Library/Firmware/GD32F4xx_standard_peripheral/Source/gd32f4xx_rcu.c:1235
        /* PLL clock source selection, HXTAL or IRC8M/2 */
        pllsel = (RCU_PLL & RCU_PLL_PLLSEL);
200039e8:	4b3d      	ldr	r3, [pc, #244]	; (20003ae0 <rcu_clock_freq_get+0x17c>)
200039ea:	681b      	ldr	r3, [r3, #0]
200039ec:	f403 0380 	and.w	r3, r3, #4194304	; 0x400000
200039f0:	643b      	str	r3, [r7, #64]	; 0x40
C:\Users\nitin.deshpande\Documents\GitHub\microsemi-huawei-liteos\microsemi-liteos\mscc-huawei-wsp\sc-gd450i-board-test\Debug/../gd32firmware/Library/Firmware/GD32F4xx_standard_peripheral/Source/gd32f4xx_rcu.c:1236
        if (RCU_PLLSRC_HXTAL == pllsel) {
200039f2:	6c3b      	ldr	r3, [r7, #64]	; 0x40
200039f4:	f5b3 0f80 	cmp.w	r3, #4194304	; 0x400000
200039f8:	d102      	bne.n	20003a00 <rcu_clock_freq_get+0x9c>
C:\Users\nitin.deshpande\Documents\GitHub\microsemi-huawei-liteos\microsemi-liteos\mscc-huawei-wsp\sc-gd450i-board-test\Debug/../gd32firmware/Library/Firmware/GD32F4xx_standard_peripheral/Source/gd32f4xx_rcu.c:1237
            ck_src = HXTAL_VALUE;
200039fa:	4b38      	ldr	r3, [pc, #224]	; (20003adc <rcu_clock_freq_get+0x178>)
200039fc:	657b      	str	r3, [r7, #84]	; 0x54
200039fe:	e001      	b.n	20003a04 <rcu_clock_freq_get+0xa0>
C:\Users\nitin.deshpande\Documents\GitHub\microsemi-huawei-liteos\microsemi-liteos\mscc-huawei-wsp\sc-gd450i-board-test\Debug/../gd32firmware/Library/Firmware/GD32F4xx_standard_peripheral/Source/gd32f4xx_rcu.c:1239
        } else {
            ck_src = IRC16M_VALUE;
20003a00:	4b35      	ldr	r3, [pc, #212]	; (20003ad8 <rcu_clock_freq_get+0x174>)
20003a02:	657b      	str	r3, [r7, #84]	; 0x54
C:\Users\nitin.deshpande\Documents\GitHub\microsemi-huawei-liteos\microsemi-liteos\mscc-huawei-wsp\sc-gd450i-board-test\Debug/../gd32firmware/Library/Firmware/GD32F4xx_standard_peripheral/Source/gd32f4xx_rcu.c:1241
        }
        cksys_freq = ((ck_src / pllpsc) * plln)/pllp;
20003a04:	6d7a      	ldr	r2, [r7, #84]	; 0x54
20003a06:	6cfb      	ldr	r3, [r7, #76]	; 0x4c
20003a08:	fbb2 f3f3 	udiv	r3, r2, r3
20003a0c:	6cba      	ldr	r2, [r7, #72]	; 0x48
20003a0e:	fb02 f203 	mul.w	r2, r2, r3
20003a12:	6c7b      	ldr	r3, [r7, #68]	; 0x44
20003a14:	fbb2 f3f3 	udiv	r3, r2, r3
20003a18:	65bb      	str	r3, [r7, #88]	; 0x58
C:\Users\nitin.deshpande\Documents\GitHub\microsemi-huawei-liteos\microsemi-liteos\mscc-huawei-wsp\sc-gd450i-board-test\Debug/../gd32firmware/Library/Firmware/GD32F4xx_standard_peripheral/Source/gd32f4xx_rcu.c:1242
        break;
20003a1a:	e002      	b.n	20003a22 <rcu_clock_freq_get+0xbe>
C:\Users\nitin.deshpande\Documents\GitHub\microsemi-huawei-liteos\microsemi-liteos\mscc-huawei-wsp\sc-gd450i-board-test\Debug/../gd32firmware/Library/Firmware/GD32F4xx_standard_peripheral/Source/gd32f4xx_rcu.c:1245
    /* IRC16M is selected as CK_SYS */
    default:
        cksys_freq = IRC16M_VALUE;
20003a1c:	4b2e      	ldr	r3, [pc, #184]	; (20003ad8 <rcu_clock_freq_get+0x174>)
20003a1e:	65bb      	str	r3, [r7, #88]	; 0x58
C:\Users\nitin.deshpande\Documents\GitHub\microsemi-huawei-liteos\microsemi-liteos\mscc-huawei-wsp\sc-gd450i-board-test\Debug/../gd32firmware/Library/Firmware/GD32F4xx_standard_peripheral/Source/gd32f4xx_rcu.c:1246
        break;
20003a20:	bf00      	nop
C:\Users\nitin.deshpande\Documents\GitHub\microsemi-huawei-liteos\microsemi-liteos\mscc-huawei-wsp\sc-gd450i-board-test\Debug/../gd32firmware/Library/Firmware/GD32F4xx_standard_peripheral/Source/gd32f4xx_rcu.c:1249
    }
    /* calculate AHB clock frequency */
    idx = GET_BITS(RCU_CFG0, 4, 7);
20003a22:	4b2c      	ldr	r3, [pc, #176]	; (20003ad4 <rcu_clock_freq_get+0x170>)
20003a24:	681b      	ldr	r3, [r3, #0]
20003a26:	091b      	lsrs	r3, r3, #4
20003a28:	f003 030f 	and.w	r3, r3, #15
20003a2c:	63fb      	str	r3, [r7, #60]	; 0x3c
C:\Users\nitin.deshpande\Documents\GitHub\microsemi-huawei-liteos\microsemi-liteos\mscc-huawei-wsp\sc-gd450i-board-test\Debug/../gd32firmware/Library/Firmware/GD32F4xx_standard_peripheral/Source/gd32f4xx_rcu.c:1250
    clk_exp = ahb_exp[idx];
20003a2e:	f107 021c 	add.w	r2, r7, #28
20003a32:	6bfb      	ldr	r3, [r7, #60]	; 0x3c
20003a34:	4413      	add	r3, r2
20003a36:	781b      	ldrb	r3, [r3, #0]
20003a38:	63bb      	str	r3, [r7, #56]	; 0x38
C:\Users\nitin.deshpande\Documents\GitHub\microsemi-huawei-liteos\microsemi-liteos\mscc-huawei-wsp\sc-gd450i-board-test\Debug/../gd32firmware/Library/Firmware/GD32F4xx_standard_peripheral/Source/gd32f4xx_rcu.c:1251
    ahb_freq = cksys_freq >> clk_exp;
20003a3a:	6dba      	ldr	r2, [r7, #88]	; 0x58
20003a3c:	6bbb      	ldr	r3, [r7, #56]	; 0x38
20003a3e:	fa22 f303 	lsr.w	r3, r2, r3
20003a42:	637b      	str	r3, [r7, #52]	; 0x34
C:\Users\nitin.deshpande\Documents\GitHub\microsemi-huawei-liteos\microsemi-liteos\mscc-huawei-wsp\sc-gd450i-board-test\Debug/../gd32firmware/Library/Firmware/GD32F4xx_standard_peripheral/Source/gd32f4xx_rcu.c:1254
    
    /* calculate APB1 clock frequency */
    idx = GET_BITS(RCU_CFG0, 10, 12);
20003a44:	4b23      	ldr	r3, [pc, #140]	; (20003ad4 <rcu_clock_freq_get+0x170>)
20003a46:	681b      	ldr	r3, [r3, #0]
20003a48:	0a9b      	lsrs	r3, r3, #10
20003a4a:	f003 0307 	and.w	r3, r3, #7
20003a4e:	63fb      	str	r3, [r7, #60]	; 0x3c
C:\Users\nitin.deshpande\Documents\GitHub\microsemi-huawei-liteos\microsemi-liteos\mscc-huawei-wsp\sc-gd450i-board-test\Debug/../gd32firmware/Library/Firmware/GD32F4xx_standard_peripheral/Source/gd32f4xx_rcu.c:1255
    clk_exp = apb1_exp[idx];
20003a50:	f107 0214 	add.w	r2, r7, #20
20003a54:	6bfb      	ldr	r3, [r7, #60]	; 0x3c
20003a56:	4413      	add	r3, r2
20003a58:	781b      	ldrb	r3, [r3, #0]
20003a5a:	63bb      	str	r3, [r7, #56]	; 0x38
C:\Users\nitin.deshpande\Documents\GitHub\microsemi-huawei-liteos\microsemi-liteos\mscc-huawei-wsp\sc-gd450i-board-test\Debug/../gd32firmware/Library/Firmware/GD32F4xx_standard_peripheral/Source/gd32f4xx_rcu.c:1256
    apb1_freq = ahb_freq >> clk_exp;
20003a5c:	6b7a      	ldr	r2, [r7, #52]	; 0x34
20003a5e:	6bbb      	ldr	r3, [r7, #56]	; 0x38
20003a60:	fa22 f303 	lsr.w	r3, r2, r3
20003a64:	633b      	str	r3, [r7, #48]	; 0x30
C:\Users\nitin.deshpande\Documents\GitHub\microsemi-huawei-liteos\microsemi-liteos\mscc-huawei-wsp\sc-gd450i-board-test\Debug/../gd32firmware/Library/Firmware/GD32F4xx_standard_peripheral/Source/gd32f4xx_rcu.c:1259
    
    /* calculate APB2 clock frequency */
    idx = GET_BITS(RCU_CFG0, 13, 15);
20003a66:	4b1b      	ldr	r3, [pc, #108]	; (20003ad4 <rcu_clock_freq_get+0x170>)
20003a68:	681b      	ldr	r3, [r3, #0]
20003a6a:	0b5b      	lsrs	r3, r3, #13
20003a6c:	f003 0307 	and.w	r3, r3, #7
20003a70:	63fb      	str	r3, [r7, #60]	; 0x3c
C:\Users\nitin.deshpande\Documents\GitHub\microsemi-huawei-liteos\microsemi-liteos\mscc-huawei-wsp\sc-gd450i-board-test\Debug/../gd32firmware/Library/Firmware/GD32F4xx_standard_peripheral/Source/gd32f4xx_rcu.c:1260
    clk_exp = apb2_exp[idx];
20003a72:	f107 020c 	add.w	r2, r7, #12
20003a76:	6bfb      	ldr	r3, [r7, #60]	; 0x3c
20003a78:	4413      	add	r3, r2
20003a7a:	781b      	ldrb	r3, [r3, #0]
20003a7c:	63bb      	str	r3, [r7, #56]	; 0x38
C:\Users\nitin.deshpande\Documents\GitHub\microsemi-huawei-liteos\microsemi-liteos\mscc-huawei-wsp\sc-gd450i-board-test\Debug/../gd32firmware/Library/Firmware/GD32F4xx_standard_peripheral/Source/gd32f4xx_rcu.c:1261
    apb2_freq = ahb_freq >> clk_exp;
20003a7e:	6b7a      	ldr	r2, [r7, #52]	; 0x34
20003a80:	6bbb      	ldr	r3, [r7, #56]	; 0x38
20003a82:	fa22 f303 	lsr.w	r3, r2, r3
20003a86:	62fb      	str	r3, [r7, #44]	; 0x2c
C:\Users\nitin.deshpande\Documents\GitHub\microsemi-huawei-liteos\microsemi-liteos\mscc-huawei-wsp\sc-gd450i-board-test\Debug/../gd32firmware/Library/Firmware/GD32F4xx_standard_peripheral/Source/gd32f4xx_rcu.c:1264
    
    /* return the clocks frequency */
    switch(clock){
20003a88:	79fb      	ldrb	r3, [r7, #7]
20003a8a:	2b03      	cmp	r3, #3
20003a8c:	d816      	bhi.n	20003abc <rcu_clock_freq_get+0x158>
20003a8e:	a201      	add	r2, pc, #4	; (adr r2, 20003a94 <rcu_clock_freq_get+0x130>)
20003a90:	f852 f023 	ldr.w	pc, [r2, r3, lsl #2]
20003a94:	20003aa5 	.word	0x20003aa5
20003a98:	20003aab 	.word	0x20003aab
20003a9c:	20003ab1 	.word	0x20003ab1
20003aa0:	20003ab7 	.word	0x20003ab7
C:\Users\nitin.deshpande\Documents\GitHub\microsemi-huawei-liteos\microsemi-liteos\mscc-huawei-wsp\sc-gd450i-board-test\Debug/../gd32firmware/Library/Firmware/GD32F4xx_standard_peripheral/Source/gd32f4xx_rcu.c:1266
    case CK_SYS:
        ck_freq = cksys_freq;
20003aa4:	6dbb      	ldr	r3, [r7, #88]	; 0x58
20003aa6:	65fb      	str	r3, [r7, #92]	; 0x5c
C:\Users\nitin.deshpande\Documents\GitHub\microsemi-huawei-liteos\microsemi-liteos\mscc-huawei-wsp\sc-gd450i-board-test\Debug/../gd32firmware/Library/Firmware/GD32F4xx_standard_peripheral/Source/gd32f4xx_rcu.c:1267
        break;
20003aa8:	e009      	b.n	20003abe <rcu_clock_freq_get+0x15a>
C:\Users\nitin.deshpande\Documents\GitHub\microsemi-huawei-liteos\microsemi-liteos\mscc-huawei-wsp\sc-gd450i-board-test\Debug/../gd32firmware/Library/Firmware/GD32F4xx_standard_peripheral/Source/gd32f4xx_rcu.c:1269
    case CK_AHB:
        ck_freq = ahb_freq;
20003aaa:	6b7b      	ldr	r3, [r7, #52]	; 0x34
20003aac:	65fb      	str	r3, [r7, #92]	; 0x5c
C:\Users\nitin.deshpande\Documents\GitHub\microsemi-huawei-liteos\microsemi-liteos\mscc-huawei-wsp\sc-gd450i-board-test\Debug/../gd32firmware/Library/Firmware/GD32F4xx_standard_peripheral/Source/gd32f4xx_rcu.c:1270
        break;
20003aae:	e006      	b.n	20003abe <rcu_clock_freq_get+0x15a>
C:\Users\nitin.deshpande\Documents\GitHub\microsemi-huawei-liteos\microsemi-liteos\mscc-huawei-wsp\sc-gd450i-board-test\Debug/../gd32firmware/Library/Firmware/GD32F4xx_standard_peripheral/Source/gd32f4xx_rcu.c:1272
    case CK_APB1:
        ck_freq = apb1_freq;
20003ab0:	6b3b      	ldr	r3, [r7, #48]	; 0x30
20003ab2:	65fb      	str	r3, [r7, #92]	; 0x5c
C:\Users\nitin.deshpande\Documents\GitHub\microsemi-huawei-liteos\microsemi-liteos\mscc-huawei-wsp\sc-gd450i-board-test\Debug/../gd32firmware/Library/Firmware/GD32F4xx_standard_peripheral/Source/gd32f4xx_rcu.c:1273
        break;
20003ab4:	e003      	b.n	20003abe <rcu_clock_freq_get+0x15a>
C:\Users\nitin.deshpande\Documents\GitHub\microsemi-huawei-liteos\microsemi-liteos\mscc-huawei-wsp\sc-gd450i-board-test\Debug/../gd32firmware/Library/Firmware/GD32F4xx_standard_peripheral/Source/gd32f4xx_rcu.c:1275
    case CK_APB2:
        ck_freq = apb2_freq;
20003ab6:	6afb      	ldr	r3, [r7, #44]	; 0x2c
20003ab8:	65fb      	str	r3, [r7, #92]	; 0x5c
C:\Users\nitin.deshpande\Documents\GitHub\microsemi-huawei-liteos\microsemi-liteos\mscc-huawei-wsp\sc-gd450i-board-test\Debug/../gd32firmware/Library/Firmware/GD32F4xx_standard_peripheral/Source/gd32f4xx_rcu.c:1276
        break;
20003aba:	e000      	b.n	20003abe <rcu_clock_freq_get+0x15a>
C:\Users\nitin.deshpande\Documents\GitHub\microsemi-huawei-liteos\microsemi-liteos\mscc-huawei-wsp\sc-gd450i-board-test\Debug/../gd32firmware/Library/Firmware/GD32F4xx_standard_peripheral/Source/gd32f4xx_rcu.c:1278
    default:
        break;
20003abc:	bf00      	nop
C:\Users\nitin.deshpande\Documents\GitHub\microsemi-huawei-liteos\microsemi-liteos\mscc-huawei-wsp\sc-gd450i-board-test\Debug/../gd32firmware/Library/Firmware/GD32F4xx_standard_peripheral/Source/gd32f4xx_rcu.c:1280
    }
    return ck_freq;
20003abe:	6dfb      	ldr	r3, [r7, #92]	; 0x5c
C:\Users\nitin.deshpande\Documents\GitHub\microsemi-huawei-liteos\microsemi-liteos\mscc-huawei-wsp\sc-gd450i-board-test\Debug/../gd32firmware/Library/Firmware/GD32F4xx_standard_peripheral/Source/gd32f4xx_rcu.c:1281
}
20003ac0:	4618      	mov	r0, r3
20003ac2:	3760      	adds	r7, #96	; 0x60
20003ac4:	46bd      	mov	sp, r7
20003ac6:	bc90      	pop	{r4, r7}
20003ac8:	4770      	bx	lr
20003aca:	bf00      	nop
20003acc:	20004318 	.word	0x20004318
20003ad0:	20004328 	.word	0x20004328
20003ad4:	40023808 	.word	0x40023808
20003ad8:	00f42400 	.word	0x00f42400
20003adc:	017d7840 	.word	0x017d7840
20003ae0:	40023804 	.word	0x40023804

20003ae4 <syscfg_exti_line_config>:
syscfg_exti_line_config():
C:\Users\nitin.deshpande\Documents\GitHub\microsemi-huawei-liteos\microsemi-liteos\mscc-huawei-wsp\sc-gd450i-board-test\Debug/../gd32firmware/Library/Firmware/GD32F4xx_standard_peripheral/Source/gd32f4xx_syscfg.c:89
      \arg        EXTI_SOURCE_PINx(x = 0..15): EXTI GPIO pin
    \param[out] none
    \retval     none
*/
void syscfg_exti_line_config(uint8_t exti_port, uint8_t exti_pin)
{
20003ae4:	b480      	push	{r7}
20003ae6:	b085      	sub	sp, #20
20003ae8:	af00      	add	r7, sp, #0
20003aea:	4603      	mov	r3, r0
20003aec:	460a      	mov	r2, r1
20003aee:	71fb      	strb	r3, [r7, #7]
20003af0:	4613      	mov	r3, r2
20003af2:	71bb      	strb	r3, [r7, #6]
C:\Users\nitin.deshpande\Documents\GitHub\microsemi-huawei-liteos\microsemi-liteos\mscc-huawei-wsp\sc-gd450i-board-test\Debug/../gd32firmware/Library/Firmware/GD32F4xx_standard_peripheral/Source/gd32f4xx_syscfg.c:90
    uint32_t clear_exti_mask = ~((uint32_t)EXTI_SS_MASK << (EXTI_SS_MSTEP(exti_pin)));
20003af4:	79bb      	ldrb	r3, [r7, #6]
20003af6:	f003 0303 	and.w	r3, r3, #3
20003afa:	009b      	lsls	r3, r3, #2
20003afc:	220f      	movs	r2, #15
20003afe:	fa02 f303 	lsl.w	r3, r2, r3
20003b02:	43db      	mvns	r3, r3
20003b04:	60fb      	str	r3, [r7, #12]
C:\Users\nitin.deshpande\Documents\GitHub\microsemi-huawei-liteos\microsemi-liteos\mscc-huawei-wsp\sc-gd450i-board-test\Debug/../gd32firmware/Library/Firmware/GD32F4xx_standard_peripheral/Source/gd32f4xx_syscfg.c:91
    uint32_t config_exti_mask = ((uint32_t)exti_port) << (EXTI_SS_MSTEP(exti_pin));
20003b06:	79fa      	ldrb	r2, [r7, #7]
20003b08:	79bb      	ldrb	r3, [r7, #6]
20003b0a:	f003 0303 	and.w	r3, r3, #3
20003b0e:	009b      	lsls	r3, r3, #2
20003b10:	fa02 f303 	lsl.w	r3, r2, r3
20003b14:	60bb      	str	r3, [r7, #8]
C:\Users\nitin.deshpande\Documents\GitHub\microsemi-huawei-liteos\microsemi-liteos\mscc-huawei-wsp\sc-gd450i-board-test\Debug/../gd32firmware/Library/Firmware/GD32F4xx_standard_peripheral/Source/gd32f4xx_syscfg.c:93

    switch(exti_pin/EXTI_SS_JSTEP){
20003b16:	79bb      	ldrb	r3, [r7, #6]
20003b18:	089b      	lsrs	r3, r3, #2
20003b1a:	b2db      	uxtb	r3, r3
20003b1c:	2b03      	cmp	r3, #3
20003b1e:	d83f      	bhi.n	20003ba0 <syscfg_exti_line_config+0xbc>
20003b20:	a201      	add	r2, pc, #4	; (adr r2, 20003b28 <syscfg_exti_line_config+0x44>)
20003b22:	f852 f023 	ldr.w	pc, [r2, r3, lsl #2]
20003b26:	bf00      	nop
20003b28:	20003b39 	.word	0x20003b39
20003b2c:	20003b53 	.word	0x20003b53
20003b30:	20003b6d 	.word	0x20003b6d
20003b34:	20003b87 	.word	0x20003b87
C:\Users\nitin.deshpande\Documents\GitHub\microsemi-huawei-liteos\microsemi-liteos\mscc-huawei-wsp\sc-gd450i-board-test\Debug/../gd32firmware/Library/Firmware/GD32F4xx_standard_peripheral/Source/gd32f4xx_syscfg.c:96
    case EXTISS0:
        /* clear EXTI source line(0..3) */
        SYSCFG_EXTISS0 &= clear_exti_mask;
20003b38:	491d      	ldr	r1, [pc, #116]	; (20003bb0 <syscfg_exti_line_config+0xcc>)
20003b3a:	4b1d      	ldr	r3, [pc, #116]	; (20003bb0 <syscfg_exti_line_config+0xcc>)
20003b3c:	681a      	ldr	r2, [r3, #0]
20003b3e:	68fb      	ldr	r3, [r7, #12]
20003b40:	4013      	ands	r3, r2
20003b42:	600b      	str	r3, [r1, #0]
C:\Users\nitin.deshpande\Documents\GitHub\microsemi-huawei-liteos\microsemi-liteos\mscc-huawei-wsp\sc-gd450i-board-test\Debug/../gd32firmware/Library/Firmware/GD32F4xx_standard_peripheral/Source/gd32f4xx_syscfg.c:98
        /* configure EXTI soure line(0..3) */
        SYSCFG_EXTISS0 |= config_exti_mask;
20003b44:	491a      	ldr	r1, [pc, #104]	; (20003bb0 <syscfg_exti_line_config+0xcc>)
20003b46:	4b1a      	ldr	r3, [pc, #104]	; (20003bb0 <syscfg_exti_line_config+0xcc>)
20003b48:	681a      	ldr	r2, [r3, #0]
20003b4a:	68bb      	ldr	r3, [r7, #8]
20003b4c:	4313      	orrs	r3, r2
20003b4e:	600b      	str	r3, [r1, #0]
C:\Users\nitin.deshpande\Documents\GitHub\microsemi-huawei-liteos\microsemi-liteos\mscc-huawei-wsp\sc-gd450i-board-test\Debug/../gd32firmware/Library/Firmware/GD32F4xx_standard_peripheral/Source/gd32f4xx_syscfg.c:99
        break;
20003b50:	e027      	b.n	20003ba2 <syscfg_exti_line_config+0xbe>
C:\Users\nitin.deshpande\Documents\GitHub\microsemi-huawei-liteos\microsemi-liteos\mscc-huawei-wsp\sc-gd450i-board-test\Debug/../gd32firmware/Library/Firmware/GD32F4xx_standard_peripheral/Source/gd32f4xx_syscfg.c:102
    case EXTISS1:
        /* clear EXTI soure line(4..7) */
        SYSCFG_EXTISS1 &= clear_exti_mask;
20003b52:	4918      	ldr	r1, [pc, #96]	; (20003bb4 <syscfg_exti_line_config+0xd0>)
20003b54:	4b17      	ldr	r3, [pc, #92]	; (20003bb4 <syscfg_exti_line_config+0xd0>)
20003b56:	681a      	ldr	r2, [r3, #0]
20003b58:	68fb      	ldr	r3, [r7, #12]
20003b5a:	4013      	ands	r3, r2
20003b5c:	600b      	str	r3, [r1, #0]
C:\Users\nitin.deshpande\Documents\GitHub\microsemi-huawei-liteos\microsemi-liteos\mscc-huawei-wsp\sc-gd450i-board-test\Debug/../gd32firmware/Library/Firmware/GD32F4xx_standard_peripheral/Source/gd32f4xx_syscfg.c:104
        /* configure EXTI soure line(4..7) */
        SYSCFG_EXTISS1 |= config_exti_mask;
20003b5e:	4915      	ldr	r1, [pc, #84]	; (20003bb4 <syscfg_exti_line_config+0xd0>)
20003b60:	4b14      	ldr	r3, [pc, #80]	; (20003bb4 <syscfg_exti_line_config+0xd0>)
20003b62:	681a      	ldr	r2, [r3, #0]
20003b64:	68bb      	ldr	r3, [r7, #8]
20003b66:	4313      	orrs	r3, r2
20003b68:	600b      	str	r3, [r1, #0]
C:\Users\nitin.deshpande\Documents\GitHub\microsemi-huawei-liteos\microsemi-liteos\mscc-huawei-wsp\sc-gd450i-board-test\Debug/../gd32firmware/Library/Firmware/GD32F4xx_standard_peripheral/Source/gd32f4xx_syscfg.c:105
        break;
20003b6a:	e01a      	b.n	20003ba2 <syscfg_exti_line_config+0xbe>
C:\Users\nitin.deshpande\Documents\GitHub\microsemi-huawei-liteos\microsemi-liteos\mscc-huawei-wsp\sc-gd450i-board-test\Debug/../gd32firmware/Library/Firmware/GD32F4xx_standard_peripheral/Source/gd32f4xx_syscfg.c:108
    case EXTISS2:
        /* clear EXTI soure line(8..11) */
        SYSCFG_EXTISS2 &= clear_exti_mask;
20003b6c:	4912      	ldr	r1, [pc, #72]	; (20003bb8 <syscfg_exti_line_config+0xd4>)
20003b6e:	4b12      	ldr	r3, [pc, #72]	; (20003bb8 <syscfg_exti_line_config+0xd4>)
20003b70:	681a      	ldr	r2, [r3, #0]
20003b72:	68fb      	ldr	r3, [r7, #12]
20003b74:	4013      	ands	r3, r2
20003b76:	600b      	str	r3, [r1, #0]
C:\Users\nitin.deshpande\Documents\GitHub\microsemi-huawei-liteos\microsemi-liteos\mscc-huawei-wsp\sc-gd450i-board-test\Debug/../gd32firmware/Library/Firmware/GD32F4xx_standard_peripheral/Source/gd32f4xx_syscfg.c:110
        /* configure EXTI soure line(8..11) */
        SYSCFG_EXTISS2 |= config_exti_mask;
20003b78:	490f      	ldr	r1, [pc, #60]	; (20003bb8 <syscfg_exti_line_config+0xd4>)
20003b7a:	4b0f      	ldr	r3, [pc, #60]	; (20003bb8 <syscfg_exti_line_config+0xd4>)
20003b7c:	681a      	ldr	r2, [r3, #0]
20003b7e:	68bb      	ldr	r3, [r7, #8]
20003b80:	4313      	orrs	r3, r2
20003b82:	600b      	str	r3, [r1, #0]
C:\Users\nitin.deshpande\Documents\GitHub\microsemi-huawei-liteos\microsemi-liteos\mscc-huawei-wsp\sc-gd450i-board-test\Debug/../gd32firmware/Library/Firmware/GD32F4xx_standard_peripheral/Source/gd32f4xx_syscfg.c:111
        break;
20003b84:	e00d      	b.n	20003ba2 <syscfg_exti_line_config+0xbe>
C:\Users\nitin.deshpande\Documents\GitHub\microsemi-huawei-liteos\microsemi-liteos\mscc-huawei-wsp\sc-gd450i-board-test\Debug/../gd32firmware/Library/Firmware/GD32F4xx_standard_peripheral/Source/gd32f4xx_syscfg.c:114
    case EXTISS3:
        /* clear EXTI soure line(12..15) */
        SYSCFG_EXTISS3 &= clear_exti_mask;
20003b86:	490d      	ldr	r1, [pc, #52]	; (20003bbc <syscfg_exti_line_config+0xd8>)
20003b88:	4b0c      	ldr	r3, [pc, #48]	; (20003bbc <syscfg_exti_line_config+0xd8>)
20003b8a:	681a      	ldr	r2, [r3, #0]
20003b8c:	68fb      	ldr	r3, [r7, #12]
20003b8e:	4013      	ands	r3, r2
20003b90:	600b      	str	r3, [r1, #0]
C:\Users\nitin.deshpande\Documents\GitHub\microsemi-huawei-liteos\microsemi-liteos\mscc-huawei-wsp\sc-gd450i-board-test\Debug/../gd32firmware/Library/Firmware/GD32F4xx_standard_peripheral/Source/gd32f4xx_syscfg.c:116
        /* configure EXTI soure line(12..15) */
        SYSCFG_EXTISS3 |= config_exti_mask;
20003b92:	490a      	ldr	r1, [pc, #40]	; (20003bbc <syscfg_exti_line_config+0xd8>)
20003b94:	4b09      	ldr	r3, [pc, #36]	; (20003bbc <syscfg_exti_line_config+0xd8>)
20003b96:	681a      	ldr	r2, [r3, #0]
20003b98:	68bb      	ldr	r3, [r7, #8]
20003b9a:	4313      	orrs	r3, r2
20003b9c:	600b      	str	r3, [r1, #0]
C:\Users\nitin.deshpande\Documents\GitHub\microsemi-huawei-liteos\microsemi-liteos\mscc-huawei-wsp\sc-gd450i-board-test\Debug/../gd32firmware/Library/Firmware/GD32F4xx_standard_peripheral/Source/gd32f4xx_syscfg.c:117
        break;
20003b9e:	e000      	b.n	20003ba2 <syscfg_exti_line_config+0xbe>
C:\Users\nitin.deshpande\Documents\GitHub\microsemi-huawei-liteos\microsemi-liteos\mscc-huawei-wsp\sc-gd450i-board-test\Debug/../gd32firmware/Library/Firmware/GD32F4xx_standard_peripheral/Source/gd32f4xx_syscfg.c:119
    default:
        break;
20003ba0:	bf00      	nop
C:\Users\nitin.deshpande\Documents\GitHub\microsemi-huawei-liteos\microsemi-liteos\mscc-huawei-wsp\sc-gd450i-board-test\Debug/../gd32firmware/Library/Firmware/GD32F4xx_standard_peripheral/Source/gd32f4xx_syscfg.c:121
    }
}
20003ba2:	bf00      	nop
20003ba4:	3714      	adds	r7, #20
20003ba6:	46bd      	mov	sp, r7
20003ba8:	f85d 7b04 	ldr.w	r7, [sp], #4
20003bac:	4770      	bx	lr
20003bae:	bf00      	nop
20003bb0:	40013808 	.word	0x40013808
20003bb4:	4001380c 	.word	0x4001380c
20003bb8:	40013810 	.word	0x40013810
20003bbc:	40013814 	.word	0x40013814

20003bc0 <usart_deinit>:
usart_deinit():
C:\Users\nitin.deshpande\Documents\GitHub\microsemi-huawei-liteos\microsemi-liteos\mscc-huawei-wsp\sc-gd450i-board-test\Debug/../gd32firmware/Library/Firmware/GD32F4xx_standard_peripheral/Source/gd32f4xx_usart.c:21
    \param[in]  usart_periph: USARTx(x=0,1,2,5)/UARTx(x=3,4,6,7)
    \param[out] none
    \retval     none
*/
void usart_deinit(uint32_t usart_periph)
{
20003bc0:	b580      	push	{r7, lr}
20003bc2:	b082      	sub	sp, #8
20003bc4:	af00      	add	r7, sp, #0
20003bc6:	6078      	str	r0, [r7, #4]
C:\Users\nitin.deshpande\Documents\GitHub\microsemi-huawei-liteos\microsemi-liteos\mscc-huawei-wsp\sc-gd450i-board-test\Debug/../gd32firmware/Library/Firmware/GD32F4xx_standard_peripheral/Source/gd32f4xx_usart.c:22
    switch(usart_periph){
20003bc8:	687b      	ldr	r3, [r7, #4]
20003bca:	4a36      	ldr	r2, [pc, #216]	; (20003ca4 <usart_deinit+0xe4>)
20003bcc:	4293      	cmp	r3, r2
20003bce:	d04a      	beq.n	20003c66 <usart_deinit+0xa6>
20003bd0:	4a34      	ldr	r2, [pc, #208]	; (20003ca4 <usart_deinit+0xe4>)
20003bd2:	4293      	cmp	r3, r2
20003bd4:	d809      	bhi.n	20003bea <usart_deinit+0x2a>
20003bd6:	4a34      	ldr	r2, [pc, #208]	; (20003ca8 <usart_deinit+0xe8>)
20003bd8:	4293      	cmp	r3, r2
20003bda:	d029      	beq.n	20003c30 <usart_deinit+0x70>
20003bdc:	4a33      	ldr	r2, [pc, #204]	; (20003cac <usart_deinit+0xec>)
20003bde:	4293      	cmp	r3, r2
20003be0:	d038      	beq.n	20003c54 <usart_deinit+0x94>
20003be2:	4a33      	ldr	r2, [pc, #204]	; (20003cb0 <usart_deinit+0xf0>)
20003be4:	4293      	cmp	r3, r2
20003be6:	d01a      	beq.n	20003c1e <usart_deinit+0x5e>
C:\Users\nitin.deshpande\Documents\GitHub\microsemi-huawei-liteos\microsemi-liteos\mscc-huawei-wsp\sc-gd450i-board-test\Debug/../gd32firmware/Library/Firmware/GD32F4xx_standard_peripheral/Source/gd32f4xx_usart.c:56
    case UART7:
        rcu_periph_reset_enable(RCU_UART7RST);
        rcu_periph_reset_disable(RCU_UART7RST);
        break;
    default:
        break;
20003be8:	e058      	b.n	20003c9c <usart_deinit+0xdc>
C:\Users\nitin.deshpande\Documents\GitHub\microsemi-huawei-liteos\microsemi-liteos\mscc-huawei-wsp\sc-gd450i-board-test\Debug/../gd32firmware/Library/Firmware/GD32F4xx_standard_peripheral/Source/gd32f4xx_usart.c:22
    switch(usart_periph){
20003bea:	4a32      	ldr	r2, [pc, #200]	; (20003cb4 <usart_deinit+0xf4>)
20003bec:	4293      	cmp	r3, r2
20003bee:	d04c      	beq.n	20003c8a <usart_deinit+0xca>
20003bf0:	4a30      	ldr	r2, [pc, #192]	; (20003cb4 <usart_deinit+0xf4>)
20003bf2:	4293      	cmp	r3, r2
20003bf4:	d803      	bhi.n	20003bfe <usart_deinit+0x3e>
20003bf6:	4a30      	ldr	r2, [pc, #192]	; (20003cb8 <usart_deinit+0xf8>)
20003bf8:	4293      	cmp	r3, r2
20003bfa:	d03d      	beq.n	20003c78 <usart_deinit+0xb8>
C:\Users\nitin.deshpande\Documents\GitHub\microsemi-huawei-liteos\microsemi-liteos\mscc-huawei-wsp\sc-gd450i-board-test\Debug/../gd32firmware/Library/Firmware/GD32F4xx_standard_peripheral/Source/gd32f4xx_usart.c:56
        break;
20003bfc:	e04e      	b.n	20003c9c <usart_deinit+0xdc>
C:\Users\nitin.deshpande\Documents\GitHub\microsemi-huawei-liteos\microsemi-liteos\mscc-huawei-wsp\sc-gd450i-board-test\Debug/../gd32firmware/Library/Firmware/GD32F4xx_standard_peripheral/Source/gd32f4xx_usart.c:22
    switch(usart_periph){
20003bfe:	4a2f      	ldr	r2, [pc, #188]	; (20003cbc <usart_deinit+0xfc>)
20003c00:	4293      	cmp	r3, r2
20003c02:	d003      	beq.n	20003c0c <usart_deinit+0x4c>
20003c04:	4a2e      	ldr	r2, [pc, #184]	; (20003cc0 <usart_deinit+0x100>)
20003c06:	4293      	cmp	r3, r2
20003c08:	d01b      	beq.n	20003c42 <usart_deinit+0x82>
C:\Users\nitin.deshpande\Documents\GitHub\microsemi-huawei-liteos\microsemi-liteos\mscc-huawei-wsp\sc-gd450i-board-test\Debug/../gd32firmware/Library/Firmware/GD32F4xx_standard_peripheral/Source/gd32f4xx_usart.c:56
        break;
20003c0a:	e047      	b.n	20003c9c <usart_deinit+0xdc>
C:\Users\nitin.deshpande\Documents\GitHub\microsemi-huawei-liteos\microsemi-liteos\mscc-huawei-wsp\sc-gd450i-board-test\Debug/../gd32firmware/Library/Firmware/GD32F4xx_standard_peripheral/Source/gd32f4xx_usart.c:24
        rcu_periph_reset_enable(RCU_USART0RST);
20003c0c:	f640 1004 	movw	r0, #2308	; 0x904
20003c10:	f7ff fe61 	bl	200038d6 <rcu_periph_reset_enable>
C:\Users\nitin.deshpande\Documents\GitHub\microsemi-huawei-liteos\microsemi-liteos\mscc-huawei-wsp\sc-gd450i-board-test\Debug/../gd32firmware/Library/Firmware/GD32F4xx_standard_peripheral/Source/gd32f4xx_usart.c:25
        rcu_periph_reset_disable(RCU_USART0RST);
20003c14:	f640 1004 	movw	r0, #2308	; 0x904
20003c18:	f7ff fe80 	bl	2000391c <rcu_periph_reset_disable>
C:\Users\nitin.deshpande\Documents\GitHub\microsemi-huawei-liteos\microsemi-liteos\mscc-huawei-wsp\sc-gd450i-board-test\Debug/../gd32firmware/Library/Firmware/GD32F4xx_standard_peripheral/Source/gd32f4xx_usart.c:26
        break;
20003c1c:	e03e      	b.n	20003c9c <usart_deinit+0xdc>
C:\Users\nitin.deshpande\Documents\GitHub\microsemi-huawei-liteos\microsemi-liteos\mscc-huawei-wsp\sc-gd450i-board-test\Debug/../gd32firmware/Library/Firmware/GD32F4xx_standard_peripheral/Source/gd32f4xx_usart.c:28
        rcu_periph_reset_enable(RCU_USART1RST);
20003c1e:	f640 0011 	movw	r0, #2065	; 0x811
20003c22:	f7ff fe58 	bl	200038d6 <rcu_periph_reset_enable>
C:\Users\nitin.deshpande\Documents\GitHub\microsemi-huawei-liteos\microsemi-liteos\mscc-huawei-wsp\sc-gd450i-board-test\Debug/../gd32firmware/Library/Firmware/GD32F4xx_standard_peripheral/Source/gd32f4xx_usart.c:29
        rcu_periph_reset_disable(RCU_USART1RST);
20003c26:	f640 0011 	movw	r0, #2065	; 0x811
20003c2a:	f7ff fe77 	bl	2000391c <rcu_periph_reset_disable>
C:\Users\nitin.deshpande\Documents\GitHub\microsemi-huawei-liteos\microsemi-liteos\mscc-huawei-wsp\sc-gd450i-board-test\Debug/../gd32firmware/Library/Firmware/GD32F4xx_standard_peripheral/Source/gd32f4xx_usart.c:30
        break;
20003c2e:	e035      	b.n	20003c9c <usart_deinit+0xdc>
C:\Users\nitin.deshpande\Documents\GitHub\microsemi-huawei-liteos\microsemi-liteos\mscc-huawei-wsp\sc-gd450i-board-test\Debug/../gd32firmware/Library/Firmware/GD32F4xx_standard_peripheral/Source/gd32f4xx_usart.c:32
        rcu_periph_reset_enable(RCU_USART2RST);
20003c30:	f640 0012 	movw	r0, #2066	; 0x812
20003c34:	f7ff fe4f 	bl	200038d6 <rcu_periph_reset_enable>
C:\Users\nitin.deshpande\Documents\GitHub\microsemi-huawei-liteos\microsemi-liteos\mscc-huawei-wsp\sc-gd450i-board-test\Debug/../gd32firmware/Library/Firmware/GD32F4xx_standard_peripheral/Source/gd32f4xx_usart.c:33
        rcu_periph_reset_disable(RCU_USART2RST);
20003c38:	f640 0012 	movw	r0, #2066	; 0x812
20003c3c:	f7ff fe6e 	bl	2000391c <rcu_periph_reset_disable>
C:\Users\nitin.deshpande\Documents\GitHub\microsemi-huawei-liteos\microsemi-liteos\mscc-huawei-wsp\sc-gd450i-board-test\Debug/../gd32firmware/Library/Firmware/GD32F4xx_standard_peripheral/Source/gd32f4xx_usart.c:34
        break;
20003c40:	e02c      	b.n	20003c9c <usart_deinit+0xdc>
C:\Users\nitin.deshpande\Documents\GitHub\microsemi-huawei-liteos\microsemi-liteos\mscc-huawei-wsp\sc-gd450i-board-test\Debug/../gd32firmware/Library/Firmware/GD32F4xx_standard_peripheral/Source/gd32f4xx_usart.c:36
        rcu_periph_reset_enable(RCU_USART5RST);
20003c42:	f640 1005 	movw	r0, #2309	; 0x905
20003c46:	f7ff fe46 	bl	200038d6 <rcu_periph_reset_enable>
C:\Users\nitin.deshpande\Documents\GitHub\microsemi-huawei-liteos\microsemi-liteos\mscc-huawei-wsp\sc-gd450i-board-test\Debug/../gd32firmware/Library/Firmware/GD32F4xx_standard_peripheral/Source/gd32f4xx_usart.c:37
        rcu_periph_reset_disable(RCU_USART5RST);
20003c4a:	f640 1005 	movw	r0, #2309	; 0x905
20003c4e:	f7ff fe65 	bl	2000391c <rcu_periph_reset_disable>
C:\Users\nitin.deshpande\Documents\GitHub\microsemi-huawei-liteos\microsemi-liteos\mscc-huawei-wsp\sc-gd450i-board-test\Debug/../gd32firmware/Library/Firmware/GD32F4xx_standard_peripheral/Source/gd32f4xx_usart.c:38
        break;
20003c52:	e023      	b.n	20003c9c <usart_deinit+0xdc>
C:\Users\nitin.deshpande\Documents\GitHub\microsemi-huawei-liteos\microsemi-liteos\mscc-huawei-wsp\sc-gd450i-board-test\Debug/../gd32firmware/Library/Firmware/GD32F4xx_standard_peripheral/Source/gd32f4xx_usart.c:40
        rcu_periph_reset_enable(RCU_UART3RST);
20003c54:	f640 0013 	movw	r0, #2067	; 0x813
20003c58:	f7ff fe3d 	bl	200038d6 <rcu_periph_reset_enable>
C:\Users\nitin.deshpande\Documents\GitHub\microsemi-huawei-liteos\microsemi-liteos\mscc-huawei-wsp\sc-gd450i-board-test\Debug/../gd32firmware/Library/Firmware/GD32F4xx_standard_peripheral/Source/gd32f4xx_usart.c:41
        rcu_periph_reset_disable(RCU_UART3RST);
20003c5c:	f640 0013 	movw	r0, #2067	; 0x813
20003c60:	f7ff fe5c 	bl	2000391c <rcu_periph_reset_disable>
C:\Users\nitin.deshpande\Documents\GitHub\microsemi-huawei-liteos\microsemi-liteos\mscc-huawei-wsp\sc-gd450i-board-test\Debug/../gd32firmware/Library/Firmware/GD32F4xx_standard_peripheral/Source/gd32f4xx_usart.c:42
        break;
20003c64:	e01a      	b.n	20003c9c <usart_deinit+0xdc>
C:\Users\nitin.deshpande\Documents\GitHub\microsemi-huawei-liteos\microsemi-liteos\mscc-huawei-wsp\sc-gd450i-board-test\Debug/../gd32firmware/Library/Firmware/GD32F4xx_standard_peripheral/Source/gd32f4xx_usart.c:44
        rcu_periph_reset_enable(RCU_UART4RST);
20003c66:	f640 0014 	movw	r0, #2068	; 0x814
20003c6a:	f7ff fe34 	bl	200038d6 <rcu_periph_reset_enable>
C:\Users\nitin.deshpande\Documents\GitHub\microsemi-huawei-liteos\microsemi-liteos\mscc-huawei-wsp\sc-gd450i-board-test\Debug/../gd32firmware/Library/Firmware/GD32F4xx_standard_peripheral/Source/gd32f4xx_usart.c:45
        rcu_periph_reset_disable(RCU_UART4RST);
20003c6e:	f640 0014 	movw	r0, #2068	; 0x814
20003c72:	f7ff fe53 	bl	2000391c <rcu_periph_reset_disable>
C:\Users\nitin.deshpande\Documents\GitHub\microsemi-huawei-liteos\microsemi-liteos\mscc-huawei-wsp\sc-gd450i-board-test\Debug/../gd32firmware/Library/Firmware/GD32F4xx_standard_peripheral/Source/gd32f4xx_usart.c:46
        break;
20003c76:	e011      	b.n	20003c9c <usart_deinit+0xdc>
C:\Users\nitin.deshpande\Documents\GitHub\microsemi-huawei-liteos\microsemi-liteos\mscc-huawei-wsp\sc-gd450i-board-test\Debug/../gd32firmware/Library/Firmware/GD32F4xx_standard_peripheral/Source/gd32f4xx_usart.c:48
        rcu_periph_reset_enable(RCU_UART6RST);
20003c78:	f640 001e 	movw	r0, #2078	; 0x81e
20003c7c:	f7ff fe2b 	bl	200038d6 <rcu_periph_reset_enable>
C:\Users\nitin.deshpande\Documents\GitHub\microsemi-huawei-liteos\microsemi-liteos\mscc-huawei-wsp\sc-gd450i-board-test\Debug/../gd32firmware/Library/Firmware/GD32F4xx_standard_peripheral/Source/gd32f4xx_usart.c:49
        rcu_periph_reset_disable(RCU_UART6RST);
20003c80:	f640 001e 	movw	r0, #2078	; 0x81e
20003c84:	f7ff fe4a 	bl	2000391c <rcu_periph_reset_disable>
C:\Users\nitin.deshpande\Documents\GitHub\microsemi-huawei-liteos\microsemi-liteos\mscc-huawei-wsp\sc-gd450i-board-test\Debug/../gd32firmware/Library/Firmware/GD32F4xx_standard_peripheral/Source/gd32f4xx_usart.c:50
        break;
20003c88:	e008      	b.n	20003c9c <usart_deinit+0xdc>
C:\Users\nitin.deshpande\Documents\GitHub\microsemi-huawei-liteos\microsemi-liteos\mscc-huawei-wsp\sc-gd450i-board-test\Debug/../gd32firmware/Library/Firmware/GD32F4xx_standard_peripheral/Source/gd32f4xx_usart.c:52
        rcu_periph_reset_enable(RCU_UART7RST);
20003c8a:	f640 001f 	movw	r0, #2079	; 0x81f
20003c8e:	f7ff fe22 	bl	200038d6 <rcu_periph_reset_enable>
C:\Users\nitin.deshpande\Documents\GitHub\microsemi-huawei-liteos\microsemi-liteos\mscc-huawei-wsp\sc-gd450i-board-test\Debug/../gd32firmware/Library/Firmware/GD32F4xx_standard_peripheral/Source/gd32f4xx_usart.c:53
        rcu_periph_reset_disable(RCU_UART7RST);
20003c92:	f640 001f 	movw	r0, #2079	; 0x81f
20003c96:	f7ff fe41 	bl	2000391c <rcu_periph_reset_disable>
C:\Users\nitin.deshpande\Documents\GitHub\microsemi-huawei-liteos\microsemi-liteos\mscc-huawei-wsp\sc-gd450i-board-test\Debug/../gd32firmware/Library/Firmware/GD32F4xx_standard_peripheral/Source/gd32f4xx_usart.c:54
        break;
20003c9a:	bf00      	nop
C:\Users\nitin.deshpande\Documents\GitHub\microsemi-huawei-liteos\microsemi-liteos\mscc-huawei-wsp\sc-gd450i-board-test\Debug/../gd32firmware/Library/Firmware/GD32F4xx_standard_peripheral/Source/gd32f4xx_usart.c:58
    }
}
20003c9c:	bf00      	nop
20003c9e:	3708      	adds	r7, #8
20003ca0:	46bd      	mov	sp, r7
20003ca2:	bd80      	pop	{r7, pc}
20003ca4:	40005000 	.word	0x40005000
20003ca8:	40004800 	.word	0x40004800
20003cac:	40004c00 	.word	0x40004c00
20003cb0:	40004400 	.word	0x40004400
20003cb4:	40007c00 	.word	0x40007c00
20003cb8:	40007800 	.word	0x40007800
20003cbc:	40011000 	.word	0x40011000
20003cc0:	40011400 	.word	0x40011400

20003cc4 <usart_baudrate_set>:
usart_baudrate_set():
C:\Users\nitin.deshpande\Documents\GitHub\microsemi-huawei-liteos\microsemi-liteos\mscc-huawei-wsp\sc-gd450i-board-test\Debug/../gd32firmware/Library/Firmware/GD32F4xx_standard_peripheral/Source/gd32f4xx_usart.c:68
    \param[in]  baudval: baud rate value
    \param[out] none
    \retval     none
*/ 
void usart_baudrate_set(uint32_t usart_periph, uint32_t baudval)
{
20003cc4:	b580      	push	{r7, lr}
20003cc6:	b086      	sub	sp, #24
20003cc8:	af00      	add	r7, sp, #0
20003cca:	6078      	str	r0, [r7, #4]
20003ccc:	6039      	str	r1, [r7, #0]
C:\Users\nitin.deshpande\Documents\GitHub\microsemi-huawei-liteos\microsemi-liteos\mscc-huawei-wsp\sc-gd450i-board-test\Debug/../gd32firmware/Library/Firmware/GD32F4xx_standard_peripheral/Source/gd32f4xx_usart.c:69
    uint32_t uclk=0U, intdiv=0U, fradiv=0U, udiv=0U;
20003cce:	2300      	movs	r3, #0
20003cd0:	617b      	str	r3, [r7, #20]
20003cd2:	2300      	movs	r3, #0
20003cd4:	613b      	str	r3, [r7, #16]
20003cd6:	2300      	movs	r3, #0
20003cd8:	60fb      	str	r3, [r7, #12]
20003cda:	2300      	movs	r3, #0
20003cdc:	60bb      	str	r3, [r7, #8]
C:\Users\nitin.deshpande\Documents\GitHub\microsemi-huawei-liteos\microsemi-liteos\mscc-huawei-wsp\sc-gd450i-board-test\Debug/../gd32firmware/Library/Firmware/GD32F4xx_standard_peripheral/Source/gd32f4xx_usart.c:70
    switch(usart_periph){
20003cde:	687b      	ldr	r3, [r7, #4]
20003ce0:	4a47      	ldr	r2, [pc, #284]	; (20003e00 <usart_baudrate_set+0x13c>)
20003ce2:	4293      	cmp	r3, r2
20003ce4:	d036      	beq.n	20003d54 <usart_baudrate_set+0x90>
20003ce6:	4a46      	ldr	r2, [pc, #280]	; (20003e00 <usart_baudrate_set+0x13c>)
20003ce8:	4293      	cmp	r3, r2
20003cea:	d809      	bhi.n	20003d00 <usart_baudrate_set+0x3c>
20003cec:	4a45      	ldr	r2, [pc, #276]	; (20003e04 <usart_baudrate_set+0x140>)
20003cee:	4293      	cmp	r3, r2
20003cf0:	d026      	beq.n	20003d40 <usart_baudrate_set+0x7c>
20003cf2:	4a45      	ldr	r2, [pc, #276]	; (20003e08 <usart_baudrate_set+0x144>)
20003cf4:	4293      	cmp	r3, r2
20003cf6:	d028      	beq.n	20003d4a <usart_baudrate_set+0x86>
20003cf8:	4a44      	ldr	r2, [pc, #272]	; (20003e0c <usart_baudrate_set+0x148>)
20003cfa:	4293      	cmp	r3, r2
20003cfc:	d01b      	beq.n	20003d36 <usart_baudrate_set+0x72>
C:\Users\nitin.deshpande\Documents\GitHub\microsemi-huawei-liteos\microsemi-liteos\mscc-huawei-wsp\sc-gd450i-board-test\Debug/../gd32firmware/Library/Firmware/GD32F4xx_standard_peripheral/Source/gd32f4xx_usart.c:97
         break;
    case UART7:
         uclk=rcu_clock_freq_get(CK_APB1);
         break;
    default:
         break;
20003cfe:	e038      	b.n	20003d72 <usart_baudrate_set+0xae>
C:\Users\nitin.deshpande\Documents\GitHub\microsemi-huawei-liteos\microsemi-liteos\mscc-huawei-wsp\sc-gd450i-board-test\Debug/../gd32firmware/Library/Firmware/GD32F4xx_standard_peripheral/Source/gd32f4xx_usart.c:70
    switch(usart_periph){
20003d00:	4a43      	ldr	r2, [pc, #268]	; (20003e10 <usart_baudrate_set+0x14c>)
20003d02:	4293      	cmp	r3, r2
20003d04:	d030      	beq.n	20003d68 <usart_baudrate_set+0xa4>
20003d06:	4a42      	ldr	r2, [pc, #264]	; (20003e10 <usart_baudrate_set+0x14c>)
20003d08:	4293      	cmp	r3, r2
20003d0a:	d803      	bhi.n	20003d14 <usart_baudrate_set+0x50>
20003d0c:	4a41      	ldr	r2, [pc, #260]	; (20003e14 <usart_baudrate_set+0x150>)
20003d0e:	4293      	cmp	r3, r2
20003d10:	d025      	beq.n	20003d5e <usart_baudrate_set+0x9a>
C:\Users\nitin.deshpande\Documents\GitHub\microsemi-huawei-liteos\microsemi-liteos\mscc-huawei-wsp\sc-gd450i-board-test\Debug/../gd32firmware/Library/Firmware/GD32F4xx_standard_peripheral/Source/gd32f4xx_usart.c:97
         break;
20003d12:	e02e      	b.n	20003d72 <usart_baudrate_set+0xae>
C:\Users\nitin.deshpande\Documents\GitHub\microsemi-huawei-liteos\microsemi-liteos\mscc-huawei-wsp\sc-gd450i-board-test\Debug/../gd32firmware/Library/Firmware/GD32F4xx_standard_peripheral/Source/gd32f4xx_usart.c:70
    switch(usart_periph){
20003d14:	4a40      	ldr	r2, [pc, #256]	; (20003e18 <usart_baudrate_set+0x154>)
20003d16:	4293      	cmp	r3, r2
20003d18:	d003      	beq.n	20003d22 <usart_baudrate_set+0x5e>
20003d1a:	4a40      	ldr	r2, [pc, #256]	; (20003e1c <usart_baudrate_set+0x158>)
20003d1c:	4293      	cmp	r3, r2
20003d1e:	d005      	beq.n	20003d2c <usart_baudrate_set+0x68>
C:\Users\nitin.deshpande\Documents\GitHub\microsemi-huawei-liteos\microsemi-liteos\mscc-huawei-wsp\sc-gd450i-board-test\Debug/../gd32firmware/Library/Firmware/GD32F4xx_standard_peripheral/Source/gd32f4xx_usart.c:97
         break;
20003d20:	e027      	b.n	20003d72 <usart_baudrate_set+0xae>
C:\Users\nitin.deshpande\Documents\GitHub\microsemi-huawei-liteos\microsemi-liteos\mscc-huawei-wsp\sc-gd450i-board-test\Debug/../gd32firmware/Library/Firmware/GD32F4xx_standard_peripheral/Source/gd32f4xx_usart.c:73
         uclk=rcu_clock_freq_get(CK_APB2);
20003d22:	2003      	movs	r0, #3
20003d24:	f7ff fe1e 	bl	20003964 <rcu_clock_freq_get>
20003d28:	6178      	str	r0, [r7, #20]
C:\Users\nitin.deshpande\Documents\GitHub\microsemi-huawei-liteos\microsemi-liteos\mscc-huawei-wsp\sc-gd450i-board-test\Debug/../gd32firmware/Library/Firmware/GD32F4xx_standard_peripheral/Source/gd32f4xx_usart.c:74
         break;
20003d2a:	e022      	b.n	20003d72 <usart_baudrate_set+0xae>
C:\Users\nitin.deshpande\Documents\GitHub\microsemi-huawei-liteos\microsemi-liteos\mscc-huawei-wsp\sc-gd450i-board-test\Debug/../gd32firmware/Library/Firmware/GD32F4xx_standard_peripheral/Source/gd32f4xx_usart.c:76
         uclk=rcu_clock_freq_get(CK_APB2);
20003d2c:	2003      	movs	r0, #3
20003d2e:	f7ff fe19 	bl	20003964 <rcu_clock_freq_get>
20003d32:	6178      	str	r0, [r7, #20]
C:\Users\nitin.deshpande\Documents\GitHub\microsemi-huawei-liteos\microsemi-liteos\mscc-huawei-wsp\sc-gd450i-board-test\Debug/../gd32firmware/Library/Firmware/GD32F4xx_standard_peripheral/Source/gd32f4xx_usart.c:77
         break;
20003d34:	e01d      	b.n	20003d72 <usart_baudrate_set+0xae>
C:\Users\nitin.deshpande\Documents\GitHub\microsemi-huawei-liteos\microsemi-liteos\mscc-huawei-wsp\sc-gd450i-board-test\Debug/../gd32firmware/Library/Firmware/GD32F4xx_standard_peripheral/Source/gd32f4xx_usart.c:79
         uclk=rcu_clock_freq_get(CK_APB1);
20003d36:	2002      	movs	r0, #2
20003d38:	f7ff fe14 	bl	20003964 <rcu_clock_freq_get>
20003d3c:	6178      	str	r0, [r7, #20]
C:\Users\nitin.deshpande\Documents\GitHub\microsemi-huawei-liteos\microsemi-liteos\mscc-huawei-wsp\sc-gd450i-board-test\Debug/../gd32firmware/Library/Firmware/GD32F4xx_standard_peripheral/Source/gd32f4xx_usart.c:80
         break;
20003d3e:	e018      	b.n	20003d72 <usart_baudrate_set+0xae>
C:\Users\nitin.deshpande\Documents\GitHub\microsemi-huawei-liteos\microsemi-liteos\mscc-huawei-wsp\sc-gd450i-board-test\Debug/../gd32firmware/Library/Firmware/GD32F4xx_standard_peripheral/Source/gd32f4xx_usart.c:82
         uclk=rcu_clock_freq_get(CK_APB1);
20003d40:	2002      	movs	r0, #2
20003d42:	f7ff fe0f 	bl	20003964 <rcu_clock_freq_get>
20003d46:	6178      	str	r0, [r7, #20]
C:\Users\nitin.deshpande\Documents\GitHub\microsemi-huawei-liteos\microsemi-liteos\mscc-huawei-wsp\sc-gd450i-board-test\Debug/../gd32firmware/Library/Firmware/GD32F4xx_standard_peripheral/Source/gd32f4xx_usart.c:83
         break;
20003d48:	e013      	b.n	20003d72 <usart_baudrate_set+0xae>
C:\Users\nitin.deshpande\Documents\GitHub\microsemi-huawei-liteos\microsemi-liteos\mscc-huawei-wsp\sc-gd450i-board-test\Debug/../gd32firmware/Library/Firmware/GD32F4xx_standard_peripheral/Source/gd32f4xx_usart.c:85
         uclk=rcu_clock_freq_get(CK_APB1);
20003d4a:	2002      	movs	r0, #2
20003d4c:	f7ff fe0a 	bl	20003964 <rcu_clock_freq_get>
20003d50:	6178      	str	r0, [r7, #20]
C:\Users\nitin.deshpande\Documents\GitHub\microsemi-huawei-liteos\microsemi-liteos\mscc-huawei-wsp\sc-gd450i-board-test\Debug/../gd32firmware/Library/Firmware/GD32F4xx_standard_peripheral/Source/gd32f4xx_usart.c:86
         break;
20003d52:	e00e      	b.n	20003d72 <usart_baudrate_set+0xae>
C:\Users\nitin.deshpande\Documents\GitHub\microsemi-huawei-liteos\microsemi-liteos\mscc-huawei-wsp\sc-gd450i-board-test\Debug/../gd32firmware/Library/Firmware/GD32F4xx_standard_peripheral/Source/gd32f4xx_usart.c:88
         uclk=rcu_clock_freq_get(CK_APB1);
20003d54:	2002      	movs	r0, #2
20003d56:	f7ff fe05 	bl	20003964 <rcu_clock_freq_get>
20003d5a:	6178      	str	r0, [r7, #20]
C:\Users\nitin.deshpande\Documents\GitHub\microsemi-huawei-liteos\microsemi-liteos\mscc-huawei-wsp\sc-gd450i-board-test\Debug/../gd32firmware/Library/Firmware/GD32F4xx_standard_peripheral/Source/gd32f4xx_usart.c:89
         break;
20003d5c:	e009      	b.n	20003d72 <usart_baudrate_set+0xae>
C:\Users\nitin.deshpande\Documents\GitHub\microsemi-huawei-liteos\microsemi-liteos\mscc-huawei-wsp\sc-gd450i-board-test\Debug/../gd32firmware/Library/Firmware/GD32F4xx_standard_peripheral/Source/gd32f4xx_usart.c:91
         uclk=rcu_clock_freq_get(CK_APB1);
20003d5e:	2002      	movs	r0, #2
20003d60:	f7ff fe00 	bl	20003964 <rcu_clock_freq_get>
20003d64:	6178      	str	r0, [r7, #20]
C:\Users\nitin.deshpande\Documents\GitHub\microsemi-huawei-liteos\microsemi-liteos\mscc-huawei-wsp\sc-gd450i-board-test\Debug/../gd32firmware/Library/Firmware/GD32F4xx_standard_peripheral/Source/gd32f4xx_usart.c:92
         break;
20003d66:	e004      	b.n	20003d72 <usart_baudrate_set+0xae>
C:\Users\nitin.deshpande\Documents\GitHub\microsemi-huawei-liteos\microsemi-liteos\mscc-huawei-wsp\sc-gd450i-board-test\Debug/../gd32firmware/Library/Firmware/GD32F4xx_standard_peripheral/Source/gd32f4xx_usart.c:94
         uclk=rcu_clock_freq_get(CK_APB1);
20003d68:	2002      	movs	r0, #2
20003d6a:	f7ff fdfb 	bl	20003964 <rcu_clock_freq_get>
20003d6e:	6178      	str	r0, [r7, #20]
C:\Users\nitin.deshpande\Documents\GitHub\microsemi-huawei-liteos\microsemi-liteos\mscc-huawei-wsp\sc-gd450i-board-test\Debug/../gd32firmware/Library/Firmware/GD32F4xx_standard_peripheral/Source/gd32f4xx_usart.c:95
         break;
20003d70:	bf00      	nop
C:\Users\nitin.deshpande\Documents\GitHub\microsemi-huawei-liteos\microsemi-liteos\mscc-huawei-wsp\sc-gd450i-board-test\Debug/../gd32firmware/Library/Firmware/GD32F4xx_standard_peripheral/Source/gd32f4xx_usart.c:99
    }
    if(USART_CTL0(usart_periph) & USART_CTL0_OVSMOD){
20003d72:	687b      	ldr	r3, [r7, #4]
20003d74:	330c      	adds	r3, #12
20003d76:	681b      	ldr	r3, [r3, #0]
20003d78:	f403 4300 	and.w	r3, r3, #32768	; 0x8000
20003d7c:	2b00      	cmp	r3, #0
20003d7e:	d01e      	beq.n	20003dbe <usart_baudrate_set+0xfa>
C:\Users\nitin.deshpande\Documents\GitHub\microsemi-huawei-liteos\microsemi-liteos\mscc-huawei-wsp\sc-gd450i-board-test\Debug/../gd32firmware/Library/Firmware/GD32F4xx_standard_peripheral/Source/gd32f4xx_usart.c:101
        /* when oversampling by 8, configure the value of USART_BAUD */
        udiv = ((2U*uclk) + baudval/2U)/baudval;
20003d80:	697b      	ldr	r3, [r7, #20]
20003d82:	005a      	lsls	r2, r3, #1
20003d84:	683b      	ldr	r3, [r7, #0]
20003d86:	085b      	lsrs	r3, r3, #1
20003d88:	441a      	add	r2, r3
20003d8a:	683b      	ldr	r3, [r7, #0]
20003d8c:	fbb2 f3f3 	udiv	r3, r2, r3
20003d90:	60bb      	str	r3, [r7, #8]
C:\Users\nitin.deshpande\Documents\GitHub\microsemi-huawei-liteos\microsemi-liteos\mscc-huawei-wsp\sc-gd450i-board-test\Debug/../gd32firmware/Library/Firmware/GD32F4xx_standard_peripheral/Source/gd32f4xx_usart.c:102
        intdiv = udiv & 0xfff0U;
20003d92:	68ba      	ldr	r2, [r7, #8]
20003d94:	f64f 73f0 	movw	r3, #65520	; 0xfff0
20003d98:	4013      	ands	r3, r2
20003d9a:	613b      	str	r3, [r7, #16]
C:\Users\nitin.deshpande\Documents\GitHub\microsemi-huawei-liteos\microsemi-liteos\mscc-huawei-wsp\sc-gd450i-board-test\Debug/../gd32firmware/Library/Firmware/GD32F4xx_standard_peripheral/Source/gd32f4xx_usart.c:103
        fradiv = udiv & 0x7U;
20003d9c:	68bb      	ldr	r3, [r7, #8]
20003d9e:	f003 0307 	and.w	r3, r3, #7
20003da2:	60fb      	str	r3, [r7, #12]
C:\Users\nitin.deshpande\Documents\GitHub\microsemi-huawei-liteos\microsemi-liteos\mscc-huawei-wsp\sc-gd450i-board-test\Debug/../gd32firmware/Library/Firmware/GD32F4xx_standard_peripheral/Source/gd32f4xx_usart.c:104
        USART_BAUD(usart_periph) |= ((USART_BAUD_FRADIV | USART_BAUD_INTDIV) & (intdiv | fradiv));
20003da4:	687b      	ldr	r3, [r7, #4]
20003da6:	3308      	adds	r3, #8
20003da8:	4618      	mov	r0, r3
20003daa:	687b      	ldr	r3, [r7, #4]
20003dac:	3308      	adds	r3, #8
20003dae:	681a      	ldr	r2, [r3, #0]
20003db0:	6939      	ldr	r1, [r7, #16]
20003db2:	68fb      	ldr	r3, [r7, #12]
20003db4:	430b      	orrs	r3, r1
20003db6:	b29b      	uxth	r3, r3
20003db8:	4313      	orrs	r3, r2
20003dba:	6003      	str	r3, [r0, #0]
C:\Users\nitin.deshpande\Documents\GitHub\microsemi-huawei-liteos\microsemi-liteos\mscc-huawei-wsp\sc-gd450i-board-test\Debug/../gd32firmware/Library/Firmware/GD32F4xx_standard_peripheral/Source/gd32f4xx_usart.c:112
        udiv = (uclk+baudval/2U)/baudval;
        intdiv = udiv & 0xfff0U;
        fradiv = udiv & 0xfU;
        USART_BAUD(usart_periph) |= ((USART_BAUD_FRADIV | USART_BAUD_INTDIV) & (intdiv | fradiv));
    }   
}
20003dbc:	e01c      	b.n	20003df8 <usart_baudrate_set+0x134>
C:\Users\nitin.deshpande\Documents\GitHub\microsemi-huawei-liteos\microsemi-liteos\mscc-huawei-wsp\sc-gd450i-board-test\Debug/../gd32firmware/Library/Firmware/GD32F4xx_standard_peripheral/Source/gd32f4xx_usart.c:107
        udiv = (uclk+baudval/2U)/baudval;
20003dbe:	683b      	ldr	r3, [r7, #0]
20003dc0:	085a      	lsrs	r2, r3, #1
20003dc2:	697b      	ldr	r3, [r7, #20]
20003dc4:	441a      	add	r2, r3
20003dc6:	683b      	ldr	r3, [r7, #0]
20003dc8:	fbb2 f3f3 	udiv	r3, r2, r3
20003dcc:	60bb      	str	r3, [r7, #8]
C:\Users\nitin.deshpande\Documents\GitHub\microsemi-huawei-liteos\microsemi-liteos\mscc-huawei-wsp\sc-gd450i-board-test\Debug/../gd32firmware/Library/Firmware/GD32F4xx_standard_peripheral/Source/gd32f4xx_usart.c:108
        intdiv = udiv & 0xfff0U;
20003dce:	68ba      	ldr	r2, [r7, #8]
20003dd0:	f64f 73f0 	movw	r3, #65520	; 0xfff0
20003dd4:	4013      	ands	r3, r2
20003dd6:	613b      	str	r3, [r7, #16]
C:\Users\nitin.deshpande\Documents\GitHub\microsemi-huawei-liteos\microsemi-liteos\mscc-huawei-wsp\sc-gd450i-board-test\Debug/../gd32firmware/Library/Firmware/GD32F4xx_standard_peripheral/Source/gd32f4xx_usart.c:109
        fradiv = udiv & 0xfU;
20003dd8:	68bb      	ldr	r3, [r7, #8]
20003dda:	f003 030f 	and.w	r3, r3, #15
20003dde:	60fb      	str	r3, [r7, #12]
C:\Users\nitin.deshpande\Documents\GitHub\microsemi-huawei-liteos\microsemi-liteos\mscc-huawei-wsp\sc-gd450i-board-test\Debug/../gd32firmware/Library/Firmware/GD32F4xx_standard_peripheral/Source/gd32f4xx_usart.c:110
        USART_BAUD(usart_periph) |= ((USART_BAUD_FRADIV | USART_BAUD_INTDIV) & (intdiv | fradiv));
20003de0:	687b      	ldr	r3, [r7, #4]
20003de2:	3308      	adds	r3, #8
20003de4:	4618      	mov	r0, r3
20003de6:	687b      	ldr	r3, [r7, #4]
20003de8:	3308      	adds	r3, #8
20003dea:	681a      	ldr	r2, [r3, #0]
20003dec:	6939      	ldr	r1, [r7, #16]
20003dee:	68fb      	ldr	r3, [r7, #12]
20003df0:	430b      	orrs	r3, r1
20003df2:	b29b      	uxth	r3, r3
20003df4:	4313      	orrs	r3, r2
20003df6:	6003      	str	r3, [r0, #0]
C:\Users\nitin.deshpande\Documents\GitHub\microsemi-huawei-liteos\microsemi-liteos\mscc-huawei-wsp\sc-gd450i-board-test\Debug/../gd32firmware/Library/Firmware/GD32F4xx_standard_peripheral/Source/gd32f4xx_usart.c:112
}
20003df8:	bf00      	nop
20003dfa:	3718      	adds	r7, #24
20003dfc:	46bd      	mov	sp, r7
20003dfe:	bd80      	pop	{r7, pc}
20003e00:	40005000 	.word	0x40005000
20003e04:	40004800 	.word	0x40004800
20003e08:	40004c00 	.word	0x40004c00
20003e0c:	40004400 	.word	0x40004400
20003e10:	40007c00 	.word	0x40007c00
20003e14:	40007800 	.word	0x40007800
20003e18:	40011000 	.word	0x40011000
20003e1c:	40011400 	.word	0x40011400

20003e20 <usart_enable>:
usart_enable():
C:\Users\nitin.deshpande\Documents\GitHub\microsemi-huawei-liteos\microsemi-liteos\mscc-huawei-wsp\sc-gd450i-board-test\Debug/../gd32firmware/Library/Firmware/GD32F4xx_standard_peripheral/Source/gd32f4xx_usart.c:174
    \param[in]  usart_periph: USARTx(x=0,1,2,5)/UARTx(x=3,4,6,7)
    \param[out] none
    \retval     none
*/
void usart_enable(uint32_t usart_periph)
{
20003e20:	b480      	push	{r7}
20003e22:	b083      	sub	sp, #12
20003e24:	af00      	add	r7, sp, #0
20003e26:	6078      	str	r0, [r7, #4]
C:\Users\nitin.deshpande\Documents\GitHub\microsemi-huawei-liteos\microsemi-liteos\mscc-huawei-wsp\sc-gd450i-board-test\Debug/../gd32firmware/Library/Firmware/GD32F4xx_standard_peripheral/Source/gd32f4xx_usart.c:175
    USART_CTL0(usart_periph) |= USART_CTL0_UEN;
20003e28:	687b      	ldr	r3, [r7, #4]
20003e2a:	330c      	adds	r3, #12
20003e2c:	461a      	mov	r2, r3
20003e2e:	687b      	ldr	r3, [r7, #4]
20003e30:	330c      	adds	r3, #12
20003e32:	681b      	ldr	r3, [r3, #0]
20003e34:	f443 5300 	orr.w	r3, r3, #8192	; 0x2000
20003e38:	6013      	str	r3, [r2, #0]
C:\Users\nitin.deshpande\Documents\GitHub\microsemi-huawei-liteos\microsemi-liteos\mscc-huawei-wsp\sc-gd450i-board-test\Debug/../gd32firmware/Library/Firmware/GD32F4xx_standard_peripheral/Source/gd32f4xx_usart.c:176
}
20003e3a:	bf00      	nop
20003e3c:	370c      	adds	r7, #12
20003e3e:	46bd      	mov	sp, r7
20003e40:	f85d 7b04 	ldr.w	r7, [sp], #4
20003e44:	4770      	bx	lr

20003e46 <usart_transmit_config>:
usart_transmit_config():
C:\Users\nitin.deshpande\Documents\GitHub\microsemi-huawei-liteos\microsemi-liteos\mscc-huawei-wsp\sc-gd450i-board-test\Debug/../gd32firmware/Library/Firmware/GD32F4xx_standard_peripheral/Source/gd32f4xx_usart.c:199
      \arg        USART_TRANSMIT_DISABLE: enable USART transmission
    \param[out] none
    \retval     none
*/
void usart_transmit_config(uint32_t usart_periph, uint32_t txconfig)
{
20003e46:	b480      	push	{r7}
20003e48:	b085      	sub	sp, #20
20003e4a:	af00      	add	r7, sp, #0
20003e4c:	6078      	str	r0, [r7, #4]
20003e4e:	6039      	str	r1, [r7, #0]
C:\Users\nitin.deshpande\Documents\GitHub\microsemi-huawei-liteos\microsemi-liteos\mscc-huawei-wsp\sc-gd450i-board-test\Debug/../gd32firmware/Library/Firmware/GD32F4xx_standard_peripheral/Source/gd32f4xx_usart.c:200
    uint32_t ctl = 0U;
20003e50:	2300      	movs	r3, #0
20003e52:	60fb      	str	r3, [r7, #12]
C:\Users\nitin.deshpande\Documents\GitHub\microsemi-huawei-liteos\microsemi-liteos\mscc-huawei-wsp\sc-gd450i-board-test\Debug/../gd32firmware/Library/Firmware/GD32F4xx_standard_peripheral/Source/gd32f4xx_usart.c:202
    
    ctl = USART_CTL0(usart_periph);
20003e54:	687b      	ldr	r3, [r7, #4]
20003e56:	330c      	adds	r3, #12
20003e58:	681b      	ldr	r3, [r3, #0]
20003e5a:	60fb      	str	r3, [r7, #12]
C:\Users\nitin.deshpande\Documents\GitHub\microsemi-huawei-liteos\microsemi-liteos\mscc-huawei-wsp\sc-gd450i-board-test\Debug/../gd32firmware/Library/Firmware/GD32F4xx_standard_peripheral/Source/gd32f4xx_usart.c:203
    ctl &= ~USART_CTL0_TEN;
20003e5c:	68fb      	ldr	r3, [r7, #12]
20003e5e:	f023 0308 	bic.w	r3, r3, #8
20003e62:	60fb      	str	r3, [r7, #12]
C:\Users\nitin.deshpande\Documents\GitHub\microsemi-huawei-liteos\microsemi-liteos\mscc-huawei-wsp\sc-gd450i-board-test\Debug/../gd32firmware/Library/Firmware/GD32F4xx_standard_peripheral/Source/gd32f4xx_usart.c:204
    ctl |= txconfig;
20003e64:	68fa      	ldr	r2, [r7, #12]
20003e66:	683b      	ldr	r3, [r7, #0]
20003e68:	4313      	orrs	r3, r2
20003e6a:	60fb      	str	r3, [r7, #12]
C:\Users\nitin.deshpande\Documents\GitHub\microsemi-huawei-liteos\microsemi-liteos\mscc-huawei-wsp\sc-gd450i-board-test\Debug/../gd32firmware/Library/Firmware/GD32F4xx_standard_peripheral/Source/gd32f4xx_usart.c:206
    /* configure transfer mode */
    USART_CTL0(usart_periph) = ctl;
20003e6c:	687b      	ldr	r3, [r7, #4]
20003e6e:	330c      	adds	r3, #12
20003e70:	461a      	mov	r2, r3
20003e72:	68fb      	ldr	r3, [r7, #12]
20003e74:	6013      	str	r3, [r2, #0]
C:\Users\nitin.deshpande\Documents\GitHub\microsemi-huawei-liteos\microsemi-liteos\mscc-huawei-wsp\sc-gd450i-board-test\Debug/../gd32firmware/Library/Firmware/GD32F4xx_standard_peripheral/Source/gd32f4xx_usart.c:207
}
20003e76:	bf00      	nop
20003e78:	3714      	adds	r7, #20
20003e7a:	46bd      	mov	sp, r7
20003e7c:	f85d 7b04 	ldr.w	r7, [sp], #4
20003e80:	4770      	bx	lr

20003e82 <usart_receive_config>:
usart_receive_config():
C:\Users\nitin.deshpande\Documents\GitHub\microsemi-huawei-liteos\microsemi-liteos\mscc-huawei-wsp\sc-gd450i-board-test\Debug/../gd32firmware/Library/Firmware/GD32F4xx_standard_peripheral/Source/gd32f4xx_usart.c:219
      \arg        USART_RECEIVE_DISABLE: disable USART reception
    \param[out] none
    \retval     none
*/
void usart_receive_config(uint32_t usart_periph, uint32_t rxconfig)
{
20003e82:	b480      	push	{r7}
20003e84:	b085      	sub	sp, #20
20003e86:	af00      	add	r7, sp, #0
20003e88:	6078      	str	r0, [r7, #4]
20003e8a:	6039      	str	r1, [r7, #0]
C:\Users\nitin.deshpande\Documents\GitHub\microsemi-huawei-liteos\microsemi-liteos\mscc-huawei-wsp\sc-gd450i-board-test\Debug/../gd32firmware/Library/Firmware/GD32F4xx_standard_peripheral/Source/gd32f4xx_usart.c:220
    uint32_t ctl = 0U;
20003e8c:	2300      	movs	r3, #0
20003e8e:	60fb      	str	r3, [r7, #12]
C:\Users\nitin.deshpande\Documents\GitHub\microsemi-huawei-liteos\microsemi-liteos\mscc-huawei-wsp\sc-gd450i-board-test\Debug/../gd32firmware/Library/Firmware/GD32F4xx_standard_peripheral/Source/gd32f4xx_usart.c:222
    
    ctl = USART_CTL0(usart_periph);
20003e90:	687b      	ldr	r3, [r7, #4]
20003e92:	330c      	adds	r3, #12
20003e94:	681b      	ldr	r3, [r3, #0]
20003e96:	60fb      	str	r3, [r7, #12]
C:\Users\nitin.deshpande\Documents\GitHub\microsemi-huawei-liteos\microsemi-liteos\mscc-huawei-wsp\sc-gd450i-board-test\Debug/../gd32firmware/Library/Firmware/GD32F4xx_standard_peripheral/Source/gd32f4xx_usart.c:223
    ctl &= ~USART_CTL0_REN;
20003e98:	68fb      	ldr	r3, [r7, #12]
20003e9a:	f023 0304 	bic.w	r3, r3, #4
20003e9e:	60fb      	str	r3, [r7, #12]
C:\Users\nitin.deshpande\Documents\GitHub\microsemi-huawei-liteos\microsemi-liteos\mscc-huawei-wsp\sc-gd450i-board-test\Debug/../gd32firmware/Library/Firmware/GD32F4xx_standard_peripheral/Source/gd32f4xx_usart.c:224
    ctl |= rxconfig;
20003ea0:	68fa      	ldr	r2, [r7, #12]
20003ea2:	683b      	ldr	r3, [r7, #0]
20003ea4:	4313      	orrs	r3, r2
20003ea6:	60fb      	str	r3, [r7, #12]
C:\Users\nitin.deshpande\Documents\GitHub\microsemi-huawei-liteos\microsemi-liteos\mscc-huawei-wsp\sc-gd450i-board-test\Debug/../gd32firmware/Library/Firmware/GD32F4xx_standard_peripheral/Source/gd32f4xx_usart.c:226
    /* configure transfer mode */
    USART_CTL0(usart_periph) = ctl;
20003ea8:	687b      	ldr	r3, [r7, #4]
20003eaa:	330c      	adds	r3, #12
20003eac:	461a      	mov	r2, r3
20003eae:	68fb      	ldr	r3, [r7, #12]
20003eb0:	6013      	str	r3, [r2, #0]
C:\Users\nitin.deshpande\Documents\GitHub\microsemi-huawei-liteos\microsemi-liteos\mscc-huawei-wsp\sc-gd450i-board-test\Debug/../gd32firmware/Library/Firmware/GD32F4xx_standard_peripheral/Source/gd32f4xx_usart.c:227
}
20003eb2:	bf00      	nop
20003eb4:	3714      	adds	r7, #20
20003eb6:	46bd      	mov	sp, r7
20003eb8:	f85d 7b04 	ldr.w	r7, [sp], #4
20003ebc:	4770      	bx	lr

20003ebe <usart_data_transmit>:
usart_data_transmit():
C:\Users\nitin.deshpande\Documents\GitHub\microsemi-huawei-liteos\microsemi-liteos\mscc-huawei-wsp\sc-gd450i-board-test\Debug/../gd32firmware/Library/Firmware/GD32F4xx_standard_peripheral/Source/gd32f4xx_usart.c:358
    \param[in]  data: data of transmission 
    \param[out] none
    \retval     none
*/
void usart_data_transmit(uint32_t usart_periph, uint32_t data)
{
20003ebe:	b480      	push	{r7}
20003ec0:	b083      	sub	sp, #12
20003ec2:	af00      	add	r7, sp, #0
20003ec4:	6078      	str	r0, [r7, #4]
20003ec6:	6039      	str	r1, [r7, #0]
C:\Users\nitin.deshpande\Documents\GitHub\microsemi-huawei-liteos\microsemi-liteos\mscc-huawei-wsp\sc-gd450i-board-test\Debug/../gd32firmware/Library/Firmware/GD32F4xx_standard_peripheral/Source/gd32f4xx_usart.c:359
    USART_DATA(usart_periph) = ((uint16_t)USART_DATA_DATA & data);
20003ec8:	687b      	ldr	r3, [r7, #4]
20003eca:	3304      	adds	r3, #4
20003ecc:	461a      	mov	r2, r3
20003ece:	683b      	ldr	r3, [r7, #0]
20003ed0:	f3c3 0308 	ubfx	r3, r3, #0, #9
20003ed4:	6013      	str	r3, [r2, #0]
C:\Users\nitin.deshpande\Documents\GitHub\microsemi-huawei-liteos\microsemi-liteos\mscc-huawei-wsp\sc-gd450i-board-test\Debug/../gd32firmware/Library/Firmware/GD32F4xx_standard_peripheral/Source/gd32f4xx_usart.c:360
}
20003ed6:	bf00      	nop
20003ed8:	370c      	adds	r7, #12
20003eda:	46bd      	mov	sp, r7
20003edc:	f85d 7b04 	ldr.w	r7, [sp], #4
20003ee0:	4770      	bx	lr

20003ee2 <usart_flag_get>:
usart_flag_get():
C:\Users\nitin.deshpande\Documents\GitHub\microsemi-huawei-liteos\microsemi-liteos\mscc-huawei-wsp\sc-gd450i-board-test\Debug/../gd32firmware/Library/Firmware/GD32F4xx_standard_peripheral/Source/gd32f4xx_usart.c:822
      \arg        USART_FLAG_EPERR: early parity error flag
    \param[out] none
    \retval     FlagStatus: SET or RESET
*/
FlagStatus usart_flag_get(uint32_t usart_periph, usart_flag_enum flag)
{
20003ee2:	b480      	push	{r7}
20003ee4:	b083      	sub	sp, #12
20003ee6:	af00      	add	r7, sp, #0
20003ee8:	6078      	str	r0, [r7, #4]
20003eea:	460b      	mov	r3, r1
20003eec:	807b      	strh	r3, [r7, #2]
C:\Users\nitin.deshpande\Documents\GitHub\microsemi-huawei-liteos\microsemi-liteos\mscc-huawei-wsp\sc-gd450i-board-test\Debug/../gd32firmware/Library/Firmware/GD32F4xx_standard_peripheral/Source/gd32f4xx_usart.c:823
    if(RESET != (USART_REG_VAL(usart_periph, flag) & BIT(USART_BIT_POS(flag)))){
20003eee:	887b      	ldrh	r3, [r7, #2]
20003ef0:	099b      	lsrs	r3, r3, #6
20003ef2:	b29b      	uxth	r3, r3
20003ef4:	461a      	mov	r2, r3
20003ef6:	687b      	ldr	r3, [r7, #4]
20003ef8:	4413      	add	r3, r2
20003efa:	681a      	ldr	r2, [r3, #0]
20003efc:	887b      	ldrh	r3, [r7, #2]
20003efe:	f003 031f 	and.w	r3, r3, #31
20003f02:	fa22 f303 	lsr.w	r3, r2, r3
20003f06:	f003 0301 	and.w	r3, r3, #1
20003f0a:	2b00      	cmp	r3, #0
20003f0c:	d001      	beq.n	20003f12 <usart_flag_get+0x30>
C:\Users\nitin.deshpande\Documents\GitHub\microsemi-huawei-liteos\microsemi-liteos\mscc-huawei-wsp\sc-gd450i-board-test\Debug/../gd32firmware/Library/Firmware/GD32F4xx_standard_peripheral/Source/gd32f4xx_usart.c:824
        return SET;
20003f0e:	2301      	movs	r3, #1
20003f10:	e000      	b.n	20003f14 <usart_flag_get+0x32>
C:\Users\nitin.deshpande\Documents\GitHub\microsemi-huawei-liteos\microsemi-liteos\mscc-huawei-wsp\sc-gd450i-board-test\Debug/../gd32firmware/Library/Firmware/GD32F4xx_standard_peripheral/Source/gd32f4xx_usart.c:826
    }else{
        return RESET;
20003f12:	2300      	movs	r3, #0
C:\Users\nitin.deshpande\Documents\GitHub\microsemi-huawei-liteos\microsemi-liteos\mscc-huawei-wsp\sc-gd450i-board-test\Debug/../gd32firmware/Library/Firmware/GD32F4xx_standard_peripheral/Source/gd32f4xx_usart.c:828
    }
}
20003f14:	4618      	mov	r0, r3
20003f16:	370c      	adds	r7, #12
20003f18:	46bd      	mov	sp, r7
20003f1a:	f85d 7b04 	ldr.w	r7, [sp], #4
20003f1e:	4770      	bx	lr

20003f20 <zero_section>:
zero_section():
C:\Users\nitin.deshpande\Documents\GitHub\microsemi-huawei-liteos\microsemi-liteos\mscc-huawei-wsp\sc-gd450i-board-test\Debug/../gd32firmware/Library/Firmware/CMSIS/GD/GD32F4xx/Source/system_gd32f4xx.c:113
{
20003f20:	b480      	push	{r7}
20003f22:	b085      	sub	sp, #20
20003f24:	af00      	add	r7, sp, #0
20003f26:	6078      	str	r0, [r7, #4]
20003f28:	6039      	str	r1, [r7, #0]
C:\Users\nitin.deshpande\Documents\GitHub\microsemi-huawei-liteos\microsemi-liteos\mscc-huawei-wsp\sc-gd450i-board-test\Debug/../gd32firmware/Library/Firmware/CMSIS/GD/GD32F4xx/Source/system_gd32f4xx.c:114
    uint32_t * p_zero = start;
20003f2a:	687b      	ldr	r3, [r7, #4]
20003f2c:	60fb      	str	r3, [r7, #12]
C:\Users\nitin.deshpande\Documents\GitHub\microsemi-huawei-liteos\microsemi-liteos\mscc-huawei-wsp\sc-gd450i-board-test\Debug/../gd32firmware/Library/Firmware/CMSIS/GD/GD32F4xx/Source/system_gd32f4xx.c:116
    while(p_zero <= end)
20003f2e:	e005      	b.n	20003f3c <zero_section+0x1c>
C:\Users\nitin.deshpande\Documents\GitHub\microsemi-huawei-liteos\microsemi-liteos\mscc-huawei-wsp\sc-gd450i-board-test\Debug/../gd32firmware/Library/Firmware/CMSIS/GD/GD32F4xx/Source/system_gd32f4xx.c:118
        *p_zero = 0;
20003f30:	68fb      	ldr	r3, [r7, #12]
20003f32:	2200      	movs	r2, #0
20003f34:	601a      	str	r2, [r3, #0]
C:\Users\nitin.deshpande\Documents\GitHub\microsemi-huawei-liteos\microsemi-liteos\mscc-huawei-wsp\sc-gd450i-board-test\Debug/../gd32firmware/Library/Firmware/CMSIS/GD/GD32F4xx/Source/system_gd32f4xx.c:119
        ++p_zero;
20003f36:	68fb      	ldr	r3, [r7, #12]
20003f38:	3304      	adds	r3, #4
20003f3a:	60fb      	str	r3, [r7, #12]
C:\Users\nitin.deshpande\Documents\GitHub\microsemi-huawei-liteos\microsemi-liteos\mscc-huawei-wsp\sc-gd450i-board-test\Debug/../gd32firmware/Library/Firmware/CMSIS/GD/GD32F4xx/Source/system_gd32f4xx.c:116
    while(p_zero <= end)
20003f3c:	68fa      	ldr	r2, [r7, #12]
20003f3e:	683b      	ldr	r3, [r7, #0]
20003f40:	429a      	cmp	r2, r3
20003f42:	d9f5      	bls.n	20003f30 <zero_section+0x10>
C:\Users\nitin.deshpande\Documents\GitHub\microsemi-huawei-liteos\microsemi-liteos\mscc-huawei-wsp\sc-gd450i-board-test\Debug/../gd32firmware/Library/Firmware/CMSIS/GD/GD32F4xx/Source/system_gd32f4xx.c:121
}
20003f44:	bf00      	nop
20003f46:	3714      	adds	r7, #20
20003f48:	46bd      	mov	sp, r7
20003f4a:	f85d 7b04 	ldr.w	r7, [sp], #4
20003f4e:	4770      	bx	lr

20003f50 <system_clock_config>:
system_clock_config():
C:\Users\nitin.deshpande\Documents\GitHub\microsemi-huawei-liteos\microsemi-liteos\mscc-huawei-wsp\sc-gd450i-board-test\Debug/../gd32firmware/Library/Firmware/CMSIS/GD/GD32F4xx/Source/system_gd32f4xx.c:177
    \param[in]  none
    \param[out] none
    \retval     none
*/
static void system_clock_config(void)
{
20003f50:	b580      	push	{r7, lr}
20003f52:	af00      	add	r7, sp, #0
C:\Users\nitin.deshpande\Documents\GitHub\microsemi-huawei-liteos\microsemi-liteos\mscc-huawei-wsp\sc-gd450i-board-test\Debug/../gd32firmware/Library/Firmware/CMSIS/GD/GD32F4xx/Source/system_gd32f4xx.c:199
#elif defined (__SYSTEM_CLOCK_200M_PLL_IRC16M)
    system_clock_200m_irc16m();
#elif defined (__SYSTEM_CLOCK_200M_PLL_8M_HXTAL)
    system_clock_200m_8m_hxtal();
#elif defined (__SYSTEM_CLOCK_200M_PLL_25M_HXTAL)
    system_clock_200m_25m_hxtal();
20003f54:	f000 f802 	bl	20003f5c <system_clock_200m_25m_hxtal>
C:\Users\nitin.deshpande\Documents\GitHub\microsemi-huawei-liteos\microsemi-liteos\mscc-huawei-wsp\sc-gd450i-board-test\Debug/../gd32firmware/Library/Firmware/CMSIS/GD/GD32F4xx/Source/system_gd32f4xx.c:201
#endif /* __SYSTEM_CLOCK_IRC16M */   
}
20003f58:	bf00      	nop
20003f5a:	bd80      	pop	{r7, pc}

20003f5c <system_clock_200m_25m_hxtal>:
system_clock_200m_25m_hxtal():
C:\Users\nitin.deshpande\Documents\GitHub\microsemi-huawei-liteos\microsemi-liteos\mscc-huawei-wsp\sc-gd450i-board-test\Debug/../gd32firmware/Library/Firmware/CMSIS/GD/GD32F4xx/Source/system_gd32f4xx.c:862
    \param[in]  none
    \param[out] none
    \retval     none
*/
static void system_clock_200m_25m_hxtal(void)
{
20003f5c:	b480      	push	{r7}
20003f5e:	b083      	sub	sp, #12
20003f60:	af00      	add	r7, sp, #0
C:\Users\nitin.deshpande\Documents\GitHub\microsemi-huawei-liteos\microsemi-liteos\mscc-huawei-wsp\sc-gd450i-board-test\Debug/../gd32firmware/Library/Firmware/CMSIS/GD/GD32F4xx/Source/system_gd32f4xx.c:863
    uint32_t timeout = 0U;
20003f62:	2300      	movs	r3, #0
20003f64:	607b      	str	r3, [r7, #4]
C:\Users\nitin.deshpande\Documents\GitHub\microsemi-huawei-liteos\microsemi-liteos\mscc-huawei-wsp\sc-gd450i-board-test\Debug/../gd32firmware/Library/Firmware/CMSIS/GD/GD32F4xx/Source/system_gd32f4xx.c:864
    uint32_t stab_flag = 0U;
20003f66:	2300      	movs	r3, #0
20003f68:	603b      	str	r3, [r7, #0]
C:\Users\nitin.deshpande\Documents\GitHub\microsemi-huawei-liteos\microsemi-liteos\mscc-huawei-wsp\sc-gd450i-board-test\Debug/../gd32firmware/Library/Firmware/CMSIS/GD/GD32F4xx/Source/system_gd32f4xx.c:867
    
    /* enable HXTAL */
    RCU_CTL |= RCU_CTL_HXTALEN;
20003f6a:	4a3d      	ldr	r2, [pc, #244]	; (20004060 <system_clock_200m_25m_hxtal+0x104>)
20003f6c:	4b3c      	ldr	r3, [pc, #240]	; (20004060 <system_clock_200m_25m_hxtal+0x104>)
20003f6e:	681b      	ldr	r3, [r3, #0]
20003f70:	f443 3380 	orr.w	r3, r3, #65536	; 0x10000
20003f74:	6013      	str	r3, [r2, #0]
C:\Users\nitin.deshpande\Documents\GitHub\microsemi-huawei-liteos\microsemi-liteos\mscc-huawei-wsp\sc-gd450i-board-test\Debug/../gd32firmware/Library/Firmware/CMSIS/GD/GD32F4xx/Source/system_gd32f4xx.c:871 (discriminator 2)

    /* wait until HXTAL is stable or the startup time is longer than HXTAL_STARTUP_TIMEOUT */
    do{
        timeout++;
20003f76:	687b      	ldr	r3, [r7, #4]
20003f78:	3301      	adds	r3, #1
20003f7a:	607b      	str	r3, [r7, #4]
C:\Users\nitin.deshpande\Documents\GitHub\microsemi-huawei-liteos\microsemi-liteos\mscc-huawei-wsp\sc-gd450i-board-test\Debug/../gd32firmware/Library/Firmware/CMSIS/GD/GD32F4xx/Source/system_gd32f4xx.c:872 (discriminator 2)
        stab_flag = (RCU_CTL & RCU_CTL_HXTALSTB);
20003f7c:	4b38      	ldr	r3, [pc, #224]	; (20004060 <system_clock_200m_25m_hxtal+0x104>)
20003f7e:	681b      	ldr	r3, [r3, #0]
20003f80:	f403 3300 	and.w	r3, r3, #131072	; 0x20000
20003f84:	603b      	str	r3, [r7, #0]
C:\Users\nitin.deshpande\Documents\GitHub\microsemi-huawei-liteos\microsemi-liteos\mscc-huawei-wsp\sc-gd450i-board-test\Debug/../gd32firmware/Library/Firmware/CMSIS/GD/GD32F4xx/Source/system_gd32f4xx.c:874 (discriminator 2)
    }
    while((0U == stab_flag) && (HXTAL_STARTUP_TIMEOUT != timeout));
20003f86:	683b      	ldr	r3, [r7, #0]
20003f88:	2b00      	cmp	r3, #0
20003f8a:	d103      	bne.n	20003f94 <system_clock_200m_25m_hxtal+0x38>
C:\Users\nitin.deshpande\Documents\GitHub\microsemi-huawei-liteos\microsemi-liteos\mscc-huawei-wsp\sc-gd450i-board-test\Debug/../gd32firmware/Library/Firmware/CMSIS/GD/GD32F4xx/Source/system_gd32f4xx.c:874 (discriminator 1)
20003f8c:	687b      	ldr	r3, [r7, #4]
20003f8e:	f5b3 6f00 	cmp.w	r3, #2048	; 0x800
20003f92:	d1f0      	bne.n	20003f76 <system_clock_200m_25m_hxtal+0x1a>
C:\Users\nitin.deshpande\Documents\GitHub\microsemi-huawei-liteos\microsemi-liteos\mscc-huawei-wsp\sc-gd450i-board-test\Debug/../gd32firmware/Library/Firmware/CMSIS/GD/GD32F4xx/Source/system_gd32f4xx.c:877

    /* if fail */
    if(0U == (RCU_CTL & RCU_CTL_HXTALSTB)){
20003f94:	4b32      	ldr	r3, [pc, #200]	; (20004060 <system_clock_200m_25m_hxtal+0x104>)
20003f96:	681b      	ldr	r3, [r3, #0]
20003f98:	f403 3300 	and.w	r3, r3, #131072	; 0x20000
20003f9c:	2b00      	cmp	r3, #0
20003f9e:	d100      	bne.n	20003fa2 <system_clock_200m_25m_hxtal+0x46>
C:\Users\nitin.deshpande\Documents\GitHub\microsemi-huawei-liteos\microsemi-liteos\mscc-huawei-wsp\sc-gd450i-board-test\Debug/../gd32firmware/Library/Firmware/CMSIS/GD/GD32F4xx/Source/system_gd32f4xx.c:878 (discriminator 1)
      while(1){
20003fa0:	e7fe      	b.n	20003fa0 <system_clock_200m_25m_hxtal+0x44>
C:\Users\nitin.deshpande\Documents\GitHub\microsemi-huawei-liteos\microsemi-liteos\mscc-huawei-wsp\sc-gd450i-board-test\Debug/../gd32firmware/Library/Firmware/CMSIS/GD/GD32F4xx/Source/system_gd32f4xx.c:882
      }
    }
         
    RCU_APB1EN |= RCU_APB1EN_PMUEN;
20003fa2:	4a30      	ldr	r2, [pc, #192]	; (20004064 <system_clock_200m_25m_hxtal+0x108>)
20003fa4:	4b2f      	ldr	r3, [pc, #188]	; (20004064 <system_clock_200m_25m_hxtal+0x108>)
20003fa6:	681b      	ldr	r3, [r3, #0]
20003fa8:	f043 5380 	orr.w	r3, r3, #268435456	; 0x10000000
20003fac:	6013      	str	r3, [r2, #0]
C:\Users\nitin.deshpande\Documents\GitHub\microsemi-huawei-liteos\microsemi-liteos\mscc-huawei-wsp\sc-gd450i-board-test\Debug/../gd32firmware/Library/Firmware/CMSIS/GD/GD32F4xx/Source/system_gd32f4xx.c:883
    PMU_CTL |= PMU_CTL_LDOVS;
20003fae:	4a2e      	ldr	r2, [pc, #184]	; (20004068 <system_clock_200m_25m_hxtal+0x10c>)
20003fb0:	4b2d      	ldr	r3, [pc, #180]	; (20004068 <system_clock_200m_25m_hxtal+0x10c>)
20003fb2:	681b      	ldr	r3, [r3, #0]
20003fb4:	f443 4340 	orr.w	r3, r3, #49152	; 0xc000
20003fb8:	6013      	str	r3, [r2, #0]
C:\Users\nitin.deshpande\Documents\GitHub\microsemi-huawei-liteos\microsemi-liteos\mscc-huawei-wsp\sc-gd450i-board-test\Debug/../gd32firmware/Library/Firmware/CMSIS/GD/GD32F4xx/Source/system_gd32f4xx.c:887

    /* HXTAL is stable */
    /* AHB = SYSCLK */
    RCU_CFG0 |= RCU_AHB_CKSYS_DIV1;
20003fba:	4a2c      	ldr	r2, [pc, #176]	; (2000406c <system_clock_200m_25m_hxtal+0x110>)
20003fbc:	4b2b      	ldr	r3, [pc, #172]	; (2000406c <system_clock_200m_25m_hxtal+0x110>)
20003fbe:	681b      	ldr	r3, [r3, #0]
20003fc0:	6013      	str	r3, [r2, #0]
C:\Users\nitin.deshpande\Documents\GitHub\microsemi-huawei-liteos\microsemi-liteos\mscc-huawei-wsp\sc-gd450i-board-test\Debug/../gd32firmware/Library/Firmware/CMSIS/GD/GD32F4xx/Source/system_gd32f4xx.c:889
    /* APB2 = AHB/2 */
    RCU_CFG0 |= RCU_APB2_CKAHB_DIV2;
20003fc2:	4a2a      	ldr	r2, [pc, #168]	; (2000406c <system_clock_200m_25m_hxtal+0x110>)
20003fc4:	4b29      	ldr	r3, [pc, #164]	; (2000406c <system_clock_200m_25m_hxtal+0x110>)
20003fc6:	681b      	ldr	r3, [r3, #0]
20003fc8:	f443 4300 	orr.w	r3, r3, #32768	; 0x8000
20003fcc:	6013      	str	r3, [r2, #0]
C:\Users\nitin.deshpande\Documents\GitHub\microsemi-huawei-liteos\microsemi-liteos\mscc-huawei-wsp\sc-gd450i-board-test\Debug/../gd32firmware/Library/Firmware/CMSIS/GD/GD32F4xx/Source/system_gd32f4xx.c:891
    /* APB1 = AHB/4 */
    RCU_CFG0 |= RCU_APB1_CKAHB_DIV4;
20003fce:	4a27      	ldr	r2, [pc, #156]	; (2000406c <system_clock_200m_25m_hxtal+0x110>)
20003fd0:	4b26      	ldr	r3, [pc, #152]	; (2000406c <system_clock_200m_25m_hxtal+0x110>)
20003fd2:	681b      	ldr	r3, [r3, #0]
20003fd4:	f443 53a0 	orr.w	r3, r3, #5120	; 0x1400
20003fd8:	6013      	str	r3, [r2, #0]
C:\Users\nitin.deshpande\Documents\GitHub\microsemi-huawei-liteos\microsemi-liteos\mscc-huawei-wsp\sc-gd450i-board-test\Debug/../gd32firmware/Library/Firmware/CMSIS/GD/GD32F4xx/Source/system_gd32f4xx.c:894

    /* Configure the main PLL, PLL_M = 25, PLL_N = 400, PLL_P = 2, PLL_Q = 9 */ 
    RCU_PLL = (25U | (400U << 6U) | (((2U >> 1U) - 1U) << 16U) |
20003fda:	4b25      	ldr	r3, [pc, #148]	; (20004070 <system_clock_200m_25m_hxtal+0x114>)
20003fdc:	4a25      	ldr	r2, [pc, #148]	; (20004074 <system_clock_200m_25m_hxtal+0x118>)
20003fde:	601a      	str	r2, [r3, #0]
C:\Users\nitin.deshpande\Documents\GitHub\microsemi-huawei-liteos\microsemi-liteos\mscc-huawei-wsp\sc-gd450i-board-test\Debug/../gd32firmware/Library/Firmware/CMSIS/GD/GD32F4xx/Source/system_gd32f4xx.c:898
                   (RCU_PLLSRC_HXTAL) | (9U << 24U));

    /* enable PLL */
    RCU_CTL |= RCU_CTL_PLLEN;
20003fe0:	4a1f      	ldr	r2, [pc, #124]	; (20004060 <system_clock_200m_25m_hxtal+0x104>)
20003fe2:	4b1f      	ldr	r3, [pc, #124]	; (20004060 <system_clock_200m_25m_hxtal+0x104>)
20003fe4:	681b      	ldr	r3, [r3, #0]
20003fe6:	f043 7380 	orr.w	r3, r3, #16777216	; 0x1000000
20003fea:	6013      	str	r3, [r2, #0]
C:\Users\nitin.deshpande\Documents\GitHub\microsemi-huawei-liteos\microsemi-liteos\mscc-huawei-wsp\sc-gd450i-board-test\Debug/../gd32firmware/Library/Firmware/CMSIS/GD/GD32F4xx/Source/system_gd32f4xx.c:901

    /* wait until PLL is stable */
    while(0U == (RCU_CTL & RCU_CTL_PLLSTB)){
20003fec:	bf00      	nop
C:\Users\nitin.deshpande\Documents\GitHub\microsemi-huawei-liteos\microsemi-liteos\mscc-huawei-wsp\sc-gd450i-board-test\Debug/../gd32firmware/Library/Firmware/CMSIS/GD/GD32F4xx/Source/system_gd32f4xx.c:901 (discriminator 1)
20003fee:	4b1c      	ldr	r3, [pc, #112]	; (20004060 <system_clock_200m_25m_hxtal+0x104>)
20003ff0:	681b      	ldr	r3, [r3, #0]
20003ff2:	f003 7300 	and.w	r3, r3, #33554432	; 0x2000000
20003ff6:	2b00      	cmp	r3, #0
20003ff8:	d0f9      	beq.n	20003fee <system_clock_200m_25m_hxtal+0x92>
C:\Users\nitin.deshpande\Documents\GitHub\microsemi-huawei-liteos\microsemi-liteos\mscc-huawei-wsp\sc-gd450i-board-test\Debug/../gd32firmware/Library/Firmware/CMSIS/GD/GD32F4xx/Source/system_gd32f4xx.c:905
    }
    
    /* Enable the high-drive to extend the clock frequency to 200 Mhz */
    PMU_CTL |= PMU_CTL_HDEN;
20003ffa:	4a1b      	ldr	r2, [pc, #108]	; (20004068 <system_clock_200m_25m_hxtal+0x10c>)
20003ffc:	4b1a      	ldr	r3, [pc, #104]	; (20004068 <system_clock_200m_25m_hxtal+0x10c>)
20003ffe:	681b      	ldr	r3, [r3, #0]
20004000:	f443 3380 	orr.w	r3, r3, #65536	; 0x10000
20004004:	6013      	str	r3, [r2, #0]
C:\Users\nitin.deshpande\Documents\GitHub\microsemi-huawei-liteos\microsemi-liteos\mscc-huawei-wsp\sc-gd450i-board-test\Debug/../gd32firmware/Library/Firmware/CMSIS/GD/GD32F4xx/Source/system_gd32f4xx.c:906
    while(0U == (PMU_CS & PMU_CS_HDRF))
20004006:	bf00      	nop
C:\Users\nitin.deshpande\Documents\GitHub\microsemi-huawei-liteos\microsemi-liteos\mscc-huawei-wsp\sc-gd450i-board-test\Debug/../gd32firmware/Library/Firmware/CMSIS/GD/GD32F4xx/Source/system_gd32f4xx.c:906 (discriminator 1)
20004008:	4b1b      	ldr	r3, [pc, #108]	; (20004078 <system_clock_200m_25m_hxtal+0x11c>)
2000400a:	681b      	ldr	r3, [r3, #0]
2000400c:	f403 3380 	and.w	r3, r3, #65536	; 0x10000
20004010:	2b00      	cmp	r3, #0
20004012:	d0f9      	beq.n	20004008 <system_clock_200m_25m_hxtal+0xac>
C:\Users\nitin.deshpande\Documents\GitHub\microsemi-huawei-liteos\microsemi-liteos\mscc-huawei-wsp\sc-gd450i-board-test\Debug/../gd32firmware/Library/Firmware/CMSIS/GD/GD32F4xx/Source/system_gd32f4xx.c:911
    {
    }
    
    /* select the high-drive mode */
    PMU_CTL |= PMU_CTL_HDS;
20004014:	4a14      	ldr	r2, [pc, #80]	; (20004068 <system_clock_200m_25m_hxtal+0x10c>)
20004016:	4b14      	ldr	r3, [pc, #80]	; (20004068 <system_clock_200m_25m_hxtal+0x10c>)
20004018:	681b      	ldr	r3, [r3, #0]
2000401a:	f443 3300 	orr.w	r3, r3, #131072	; 0x20000
2000401e:	6013      	str	r3, [r2, #0]
C:\Users\nitin.deshpande\Documents\GitHub\microsemi-huawei-liteos\microsemi-liteos\mscc-huawei-wsp\sc-gd450i-board-test\Debug/../gd32firmware/Library/Firmware/CMSIS/GD/GD32F4xx/Source/system_gd32f4xx.c:912
    while(0U == (PMU_CS & PMU_CS_HDSRF))
20004020:	bf00      	nop
C:\Users\nitin.deshpande\Documents\GitHub\microsemi-huawei-liteos\microsemi-liteos\mscc-huawei-wsp\sc-gd450i-board-test\Debug/../gd32firmware/Library/Firmware/CMSIS/GD/GD32F4xx/Source/system_gd32f4xx.c:912 (discriminator 1)
20004022:	4b15      	ldr	r3, [pc, #84]	; (20004078 <system_clock_200m_25m_hxtal+0x11c>)
20004024:	681b      	ldr	r3, [r3, #0]
20004026:	f403 3300 	and.w	r3, r3, #131072	; 0x20000
2000402a:	2b00      	cmp	r3, #0
2000402c:	d0f9      	beq.n	20004022 <system_clock_200m_25m_hxtal+0xc6>
C:\Users\nitin.deshpande\Documents\GitHub\microsemi-huawei-liteos\microsemi-liteos\mscc-huawei-wsp\sc-gd450i-board-test\Debug/../gd32firmware/Library/Firmware/CMSIS/GD/GD32F4xx/Source/system_gd32f4xx.c:917
    {
    } 
    
    /* select PLL as system clock */
    RCU_CFG0 &= ~RCU_CFG0_SCS;
2000402e:	4a0f      	ldr	r2, [pc, #60]	; (2000406c <system_clock_200m_25m_hxtal+0x110>)
20004030:	4b0e      	ldr	r3, [pc, #56]	; (2000406c <system_clock_200m_25m_hxtal+0x110>)
20004032:	681b      	ldr	r3, [r3, #0]
20004034:	f023 0303 	bic.w	r3, r3, #3
20004038:	6013      	str	r3, [r2, #0]
C:\Users\nitin.deshpande\Documents\GitHub\microsemi-huawei-liteos\microsemi-liteos\mscc-huawei-wsp\sc-gd450i-board-test\Debug/../gd32firmware/Library/Firmware/CMSIS/GD/GD32F4xx/Source/system_gd32f4xx.c:918
    RCU_CFG0 |= RCU_CKSYSSRC_PLLP;
2000403a:	4a0c      	ldr	r2, [pc, #48]	; (2000406c <system_clock_200m_25m_hxtal+0x110>)
2000403c:	4b0b      	ldr	r3, [pc, #44]	; (2000406c <system_clock_200m_25m_hxtal+0x110>)
2000403e:	681b      	ldr	r3, [r3, #0]
20004040:	f043 0302 	orr.w	r3, r3, #2
20004044:	6013      	str	r3, [r2, #0]
C:\Users\nitin.deshpande\Documents\GitHub\microsemi-huawei-liteos\microsemi-liteos\mscc-huawei-wsp\sc-gd450i-board-test\Debug/../gd32firmware/Library/Firmware/CMSIS/GD/GD32F4xx/Source/system_gd32f4xx.c:921

    /* wait until PLL is selected as system clock */
    while(0U == (RCU_CFG0 & RCU_SCSS_PLLP)){
20004046:	bf00      	nop
C:\Users\nitin.deshpande\Documents\GitHub\microsemi-huawei-liteos\microsemi-liteos\mscc-huawei-wsp\sc-gd450i-board-test\Debug/../gd32firmware/Library/Firmware/CMSIS/GD/GD32F4xx/Source/system_gd32f4xx.c:921 (discriminator 1)
20004048:	4b08      	ldr	r3, [pc, #32]	; (2000406c <system_clock_200m_25m_hxtal+0x110>)
2000404a:	681b      	ldr	r3, [r3, #0]
2000404c:	f003 0308 	and.w	r3, r3, #8
20004050:	2b00      	cmp	r3, #0
20004052:	d0f9      	beq.n	20004048 <system_clock_200m_25m_hxtal+0xec>
C:\Users\nitin.deshpande\Documents\GitHub\microsemi-huawei-liteos\microsemi-liteos\mscc-huawei-wsp\sc-gd450i-board-test\Debug/../gd32firmware/Library/Firmware/CMSIS/GD/GD32F4xx/Source/system_gd32f4xx.c:923
    }
}
20004054:	bf00      	nop
20004056:	370c      	adds	r7, #12
20004058:	46bd      	mov	sp, r7
2000405a:	f85d 7b04 	ldr.w	r7, [sp], #4
2000405e:	4770      	bx	lr
20004060:	40023800 	.word	0x40023800
20004064:	40023840 	.word	0x40023840
20004068:	40007000 	.word	0x40007000
2000406c:	40023808 	.word	0x40023808
20004070:	40023804 	.word	0x40023804
20004074:	09406419 	.word	0x09406419
20004078:	40007004 	.word	0x40007004

2000407c <NVIC_SetPriority>:
NVIC_SetPriority():
C:/Microsemi/SoftConsole_v5.2.0.12/CMSIS/V4.5/Include/core_cm4.h:1699
  \note    The priority cannot be set for every core interrupt.
  \param [in]      IRQn  Interrupt number.
  \param [in]  priority  Priority to set.
 */
__STATIC_INLINE void NVIC_SetPriority(IRQn_Type IRQn, uint32_t priority)
{
2000407c:	b480      	push	{r7}
2000407e:	b083      	sub	sp, #12
20004080:	af00      	add	r7, sp, #0
20004082:	4603      	mov	r3, r0
20004084:	6039      	str	r1, [r7, #0]
20004086:	71fb      	strb	r3, [r7, #7]
C:/Microsemi/SoftConsole_v5.2.0.12/CMSIS/V4.5/Include/core_cm4.h:1700
  if ((int32_t)(IRQn) < 0)
20004088:	f997 3007 	ldrsb.w	r3, [r7, #7]
2000408c:	2b00      	cmp	r3, #0
2000408e:	da0b      	bge.n	200040a8 <NVIC_SetPriority+0x2c>
C:/Microsemi/SoftConsole_v5.2.0.12/CMSIS/V4.5/Include/core_cm4.h:1702
  {
    SCB->SHP[(((uint32_t)(int32_t)IRQn) & 0xFUL)-4UL] = (uint8_t)((priority << (8U - __NVIC_PRIO_BITS)) & (uint32_t)0xFFUL);
20004090:	490d      	ldr	r1, [pc, #52]	; (200040c8 <NVIC_SetPriority+0x4c>)
20004092:	79fb      	ldrb	r3, [r7, #7]
20004094:	f003 030f 	and.w	r3, r3, #15
20004098:	3b04      	subs	r3, #4
2000409a:	683a      	ldr	r2, [r7, #0]
2000409c:	b2d2      	uxtb	r2, r2
2000409e:	0112      	lsls	r2, r2, #4
200040a0:	b2d2      	uxtb	r2, r2
200040a2:	440b      	add	r3, r1
200040a4:	761a      	strb	r2, [r3, #24]
C:/Microsemi/SoftConsole_v5.2.0.12/CMSIS/V4.5/Include/core_cm4.h:1708
  }
  else
  {
    NVIC->IP[((uint32_t)(int32_t)IRQn)]               = (uint8_t)((priority << (8U - __NVIC_PRIO_BITS)) & (uint32_t)0xFFUL);
  }
}
200040a6:	e009      	b.n	200040bc <NVIC_SetPriority+0x40>
C:/Microsemi/SoftConsole_v5.2.0.12/CMSIS/V4.5/Include/core_cm4.h:1706
    NVIC->IP[((uint32_t)(int32_t)IRQn)]               = (uint8_t)((priority << (8U - __NVIC_PRIO_BITS)) & (uint32_t)0xFFUL);
200040a8:	4908      	ldr	r1, [pc, #32]	; (200040cc <NVIC_SetPriority+0x50>)
200040aa:	f997 3007 	ldrsb.w	r3, [r7, #7]
200040ae:	683a      	ldr	r2, [r7, #0]
200040b0:	b2d2      	uxtb	r2, r2
200040b2:	0112      	lsls	r2, r2, #4
200040b4:	b2d2      	uxtb	r2, r2
200040b6:	440b      	add	r3, r1
200040b8:	f883 2300 	strb.w	r2, [r3, #768]	; 0x300
C:/Microsemi/SoftConsole_v5.2.0.12/CMSIS/V4.5/Include/core_cm4.h:1708
}
200040bc:	bf00      	nop
200040be:	370c      	adds	r7, #12
200040c0:	46bd      	mov	sp, r7
200040c2:	f85d 7b04 	ldr.w	r7, [sp], #4
200040c6:	4770      	bx	lr
200040c8:	e000ed00 	.word	0xe000ed00
200040cc:	e000e100 	.word	0xe000e100

200040d0 <SysTick_Config>:
SysTick_Config():
C:/Microsemi/SoftConsole_v5.2.0.12/CMSIS/V4.5/Include/core_cm4.h:1831
  \note    When the variable <b>__Vendor_SysTickConfig</b> is set to 1, then the
           function <b>SysTick_Config</b> is not included. In this case, the file <b><i>device</i>.h</b>
           must contain a vendor-specific implementation of this function.
 */
__STATIC_INLINE uint32_t SysTick_Config(uint32_t ticks)
{
200040d0:	b580      	push	{r7, lr}
200040d2:	b082      	sub	sp, #8
200040d4:	af00      	add	r7, sp, #0
200040d6:	6078      	str	r0, [r7, #4]
C:/Microsemi/SoftConsole_v5.2.0.12/CMSIS/V4.5/Include/core_cm4.h:1832
  if ((ticks - 1UL) > SysTick_LOAD_RELOAD_Msk)
200040d8:	687b      	ldr	r3, [r7, #4]
200040da:	3b01      	subs	r3, #1
200040dc:	f1b3 7f80 	cmp.w	r3, #16777216	; 0x1000000
200040e0:	d301      	bcc.n	200040e6 <SysTick_Config+0x16>
C:/Microsemi/SoftConsole_v5.2.0.12/CMSIS/V4.5/Include/core_cm4.h:1834
  {
    return (1UL);                                                   /* Reload value impossible */
200040e2:	2301      	movs	r3, #1
200040e4:	e00f      	b.n	20004106 <SysTick_Config+0x36>
C:/Microsemi/SoftConsole_v5.2.0.12/CMSIS/V4.5/Include/core_cm4.h:1837
  }

  SysTick->LOAD  = (uint32_t)(ticks - 1UL);                         /* set reload register */
200040e6:	4a0a      	ldr	r2, [pc, #40]	; (20004110 <SysTick_Config+0x40>)
200040e8:	687b      	ldr	r3, [r7, #4]
200040ea:	3b01      	subs	r3, #1
200040ec:	6053      	str	r3, [r2, #4]
C:/Microsemi/SoftConsole_v5.2.0.12/CMSIS/V4.5/Include/core_cm4.h:1838
  NVIC_SetPriority (SysTick_IRQn, (1UL << __NVIC_PRIO_BITS) - 1UL); /* set Priority for Systick Interrupt */
200040ee:	210f      	movs	r1, #15
200040f0:	f04f 30ff 	mov.w	r0, #4294967295
200040f4:	f7ff ffc2 	bl	2000407c <NVIC_SetPriority>
C:/Microsemi/SoftConsole_v5.2.0.12/CMSIS/V4.5/Include/core_cm4.h:1839
  SysTick->VAL   = 0UL;                                             /* Load the SysTick Counter Value */
200040f8:	4b05      	ldr	r3, [pc, #20]	; (20004110 <SysTick_Config+0x40>)
200040fa:	2200      	movs	r2, #0
200040fc:	609a      	str	r2, [r3, #8]
C:/Microsemi/SoftConsole_v5.2.0.12/CMSIS/V4.5/Include/core_cm4.h:1840
  SysTick->CTRL  = SysTick_CTRL_CLKSOURCE_Msk |
200040fe:	4b04      	ldr	r3, [pc, #16]	; (20004110 <SysTick_Config+0x40>)
20004100:	2207      	movs	r2, #7
20004102:	601a      	str	r2, [r3, #0]
C:/Microsemi/SoftConsole_v5.2.0.12/CMSIS/V4.5/Include/core_cm4.h:1843
                   SysTick_CTRL_TICKINT_Msk   |
                   SysTick_CTRL_ENABLE_Msk;                         /* Enable SysTick IRQ and SysTick Timer */
  return (0UL);                                                     /* Function successful */
20004104:	2300      	movs	r3, #0
C:/Microsemi/SoftConsole_v5.2.0.12/CMSIS/V4.5/Include/core_cm4.h:1844
}
20004106:	4618      	mov	r0, r3
20004108:	3708      	adds	r7, #8
2000410a:	46bd      	mov	sp, r7
2000410c:	bd80      	pop	{r7, pc}
2000410e:	bf00      	nop
20004110:	e000e010 	.word	0xe000e010

20004114 <osTickStart>:
osTickStart():
C:\Users\nitin.deshpande\Documents\GitHub\microsemi-huawei-liteos\microsemi-liteos\mscc-huawei-wsp\sc-gd450i-board-test\Debug/../Platform-GD32F450i-EVAL/los_bsp_adapter.c:76
 Input       : None
 Output      : None
 Return      : LOS_OK
 *****************************************************************************/
unsigned int osTickStart(void)
{
20004114:	b580      	push	{r7, lr}
20004116:	b082      	sub	sp, #8
20004118:	af00      	add	r7, sp, #0
C:\Users\nitin.deshpande\Documents\GitHub\microsemi-huawei-liteos\microsemi-liteos\mscc-huawei-wsp\sc-gd450i-board-test\Debug/../Platform-GD32F450i-EVAL/los_bsp_adapter.c:77
    unsigned int uwRet = 0;
2000411a:	2300      	movs	r3, #0
2000411c:	607b      	str	r3, [r7, #4]
C:\Users\nitin.deshpande\Documents\GitHub\microsemi-huawei-liteos\microsemi-liteos\mscc-huawei-wsp\sc-gd450i-board-test\Debug/../Platform-GD32F450i-EVAL/los_bsp_adapter.c:80
	
    /* This code section LOS need, so don't change it */
    g_ucycle_per_tick = sys_clk_freq / tick_per_second;
2000411e:	4a0b      	ldr	r2, [pc, #44]	; (2000414c <osTickStart+0x38>)
20004120:	f44f 737a 	mov.w	r3, #1000	; 0x3e8
20004124:	fbb2 f3f3 	udiv	r3, r2, r3
20004128:	4a09      	ldr	r2, [pc, #36]	; (20004150 <osTickStart+0x3c>)
2000412a:	6013      	str	r3, [r2, #0]
C:\Users\nitin.deshpande\Documents\GitHub\microsemi-huawei-liteos\microsemi-liteos\mscc-huawei-wsp\sc-gd450i-board-test\Debug/../Platform-GD32F450i-EVAL/los_bsp_adapter.c:81
    LOS_SetTickSycle(g_ucycle_per_tick);
2000412c:	4b08      	ldr	r3, [pc, #32]	; (20004150 <osTickStart+0x3c>)
2000412e:	681b      	ldr	r3, [r3, #0]
20004130:	4618      	mov	r0, r3
20004132:	f7fc fb37 	bl	200007a4 <LOS_SetTickSycle>
C:\Users\nitin.deshpande\Documents\GitHub\microsemi-huawei-liteos\microsemi-liteos\mscc-huawei-wsp\sc-gd450i-board-test\Debug/../Platform-GD32F450i-EVAL/los_bsp_adapter.c:90
      system tick exception.
      Note: here can be replaced by some function , for example in Stm32 bsp
      you can just call SysTick_Config(sys_clk_freq/tick_per_second);
    */
#ifdef GD32F4XX
		SysTick_Config(g_ucycle_per_tick);
20004136:	4b06      	ldr	r3, [pc, #24]	; (20004150 <osTickStart+0x3c>)
20004138:	681b      	ldr	r3, [r3, #0]
2000413a:	4618      	mov	r0, r3
2000413c:	f7ff ffc8 	bl	200040d0 <SysTick_Config>
C:\Users\nitin.deshpande\Documents\GitHub\microsemi-huawei-liteos\microsemi-liteos\mscc-huawei-wsp\sc-gd450i-board-test\Debug/../Platform-GD32F450i-EVAL/los_bsp_adapter.c:98
    *((volatile UINT8 *)OS_NVIC_EXCPRI_BASE + (((UINT32)(-1) & 0xF) - 4)) = ((7 << 4) & 0xff);
    *(volatile UINT32 *)OS_SYSTICK_CURRENT_REG = 0;
    *(volatile UINT32 *)OS_SYSTICK_CONTROL_REG = (1 << 2) | (1 << 1) | (1 << 0);
#endif
	
    return uwRet;
20004140:	687b      	ldr	r3, [r7, #4]
C:\Users\nitin.deshpande\Documents\GitHub\microsemi-huawei-liteos\microsemi-liteos\mscc-huawei-wsp\sc-gd450i-board-test\Debug/../Platform-GD32F450i-EVAL/los_bsp_adapter.c:100

}
20004142:	4618      	mov	r0, r3
20004144:	3708      	adds	r7, #8
20004146:	46bd      	mov	sp, r7
20004148:	bd80      	pop	{r7, pc}
2000414a:	bf00      	nop
2000414c:	0bebc200 	.word	0x0bebc200
20004150:	20004800 	.word	0x20004800

20004154 <SysTick_Handler>:
SysTick_Handler():
C:\Users\nitin.deshpande\Documents\GitHub\microsemi-huawei-liteos\microsemi-liteos\mscc-huawei-wsp\sc-gd450i-board-test\Debug/../Platform-GD32F450i-EVAL/los_bsp_adapter.c:110
 Input       : None
 Output      : None
 Return      : None
 *****************************************************************************/
void SysTick_Handler(void)
{
20004154:	b580      	push	{r7, lr}
20004156:	af00      	add	r7, sp, #0
C:\Users\nitin.deshpande\Documents\GitHub\microsemi-huawei-liteos\microsemi-liteos\mscc-huawei-wsp\sc-gd450i-board-test\Debug/../Platform-GD32F450i-EVAL/los_bsp_adapter.c:115
    /* 
        LOS need call LOS_TickHandler() in SysTick_Handler, don't change it,
        otherwise, LiteOS will not work.
    */
    LOS_TickHandler();
20004158:	f7fc fb02 	bl	20000760 <LOS_TickHandler>
C:\Users\nitin.deshpande\Documents\GitHub\microsemi-huawei-liteos\microsemi-liteos\mscc-huawei-wsp\sc-gd450i-board-test\Debug/../Platform-GD32F450i-EVAL/los_bsp_adapter.c:122
#ifdef GD32F4XX	
    /*add your code here */
	  //delay_decrement();
#endif
	
    return ;
2000415c:	bf00      	nop
C:\Users\nitin.deshpande\Documents\GitHub\microsemi-huawei-liteos\microsemi-liteos\mscc-huawei-wsp\sc-gd450i-board-test\Debug/../Platform-GD32F450i-EVAL/los_bsp_adapter.c:123
}
2000415e:	bd80      	pop	{r7, pc}

20004160 <LosAdapIntInit>:
LosAdapIntInit():
C:\Users\nitin.deshpande\Documents\GitHub\microsemi-huawei-liteos\microsemi-liteos\mscc-huawei-wsp\sc-gd450i-board-test\Debug/../Platform-GD32F450i-EVAL/los_bsp_adapter.c:134
 Input       : None
 Output      : None
 Return      : LOS_OK
 *****************************************************************************/
void LosAdapIntInit(void)
{
20004160:	b598      	push	{r3, r4, r7, lr}
20004162:	af00      	add	r7, sp, #0
C:\Users\nitin.deshpande\Documents\GitHub\microsemi-huawei-liteos\microsemi-liteos\mscc-huawei-wsp\sc-gd450i-board-test\Debug/../Platform-GD32F450i-EVAL/los_bsp_adapter.c:144
  
        Note: here can be replaced by some function , for example in Stm32 bsp
        you can just call SCB->VTOR = osGetVectorAddr(); and
        NVIC_SetPriorityGrouping(OS_NVIC_AIRCR_PRIGROUP);
    */
    if (g_use_ram_vect)
20004164:	2300      	movs	r3, #0
20004166:	2b00      	cmp	r3, #0
20004168:	d008      	beq.n	2000417c <LosAdapIntInit+0x1c>
C:\Users\nitin.deshpande\Documents\GitHub\microsemi-huawei-liteos\microsemi-liteos\mscc-huawei-wsp\sc-gd450i-board-test\Debug/../Platform-GD32F450i-EVAL/los_bsp_adapter.c:146
    {
        *(volatile UINT32 *)OS_NVIC_VTOR = osGetVectorAddr();
2000416a:	4c05      	ldr	r4, [pc, #20]	; (20004180 <LosAdapIntInit+0x20>)
2000416c:	f7fc fb3c 	bl	200007e8 <osGetVectorAddr>
20004170:	4603      	mov	r3, r0
20004172:	6023      	str	r3, [r4, #0]
C:\Users\nitin.deshpande\Documents\GitHub\microsemi-huawei-liteos\microsemi-liteos\mscc-huawei-wsp\sc-gd450i-board-test\Debug/../Platform-GD32F450i-EVAL/los_bsp_adapter.c:147
        *(volatile UINT32 *)OS_NVIC_AIRCR = (0x05FA0000 | OS_NVIC_AIRCR_PRIGROUP << 8);
20004174:	4b03      	ldr	r3, [pc, #12]	; (20004184 <LosAdapIntInit+0x24>)
20004176:	4a04      	ldr	r2, [pc, #16]	; (20004188 <LosAdapIntInit+0x28>)
20004178:	601a      	str	r2, [r3, #0]
C:\Users\nitin.deshpande\Documents\GitHub\microsemi-huawei-liteos\microsemi-liteos\mscc-huawei-wsp\sc-gd450i-board-test\Debug/../Platform-GD32F450i-EVAL/los_bsp_adapter.c:150
    }

    return ;
2000417a:	bf00      	nop
2000417c:	bf00      	nop
C:\Users\nitin.deshpande\Documents\GitHub\microsemi-huawei-liteos\microsemi-liteos\mscc-huawei-wsp\sc-gd450i-board-test\Debug/../Platform-GD32F450i-EVAL/los_bsp_adapter.c:151
}
2000417e:	bd98      	pop	{r3, r4, r7, pc}
20004180:	e000ed08 	.word	0xe000ed08
20004184:	e000ed0c 	.word	0xe000ed0c
20004188:	05fa0700 	.word	0x05fa0700

2000418c <LOS_EvbSetup>:
LOS_EvbSetup():
C:\Users\nitin.deshpande\Documents\GitHub\microsemi-huawei-liteos\microsemi-liteos\mscc-huawei-wsp\sc-gd450i-board-test\Debug/../Platform-GD32F450i-EVAL/los_bsp_adapter.c:208
 Input       : None
 Output      : None
 Return      : None
 *****************************************************************************/
void LOS_EvbSetup(void)
{
2000418c:	b580      	push	{r7, lr}
2000418e:	af00      	add	r7, sp, #0
C:\Users\nitin.deshpande\Documents\GitHub\microsemi-huawei-liteos\microsemi-liteos\mscc-huawei-wsp\sc-gd450i-board-test\Debug/../Platform-GD32F450i-EVAL/los_bsp_adapter.c:209
	LOS_EvbUartInit();
20004190:	f000 f858 	bl	20004244 <LOS_EvbUartInit>
C:\Users\nitin.deshpande\Documents\GitHub\microsemi-huawei-liteos\microsemi-liteos\mscc-huawei-wsp\sc-gd450i-board-test\Debug/../Platform-GD32F450i-EVAL/los_bsp_adapter.c:210
	LOS_EvbLedInit();
20004194:	f000 f80f 	bl	200041b6 <LOS_EvbLedInit>
C:\Users\nitin.deshpande\Documents\GitHub\microsemi-huawei-liteos\microsemi-liteos\mscc-huawei-wsp\sc-gd450i-board-test\Debug/../Platform-GD32F450i-EVAL/los_bsp_adapter.c:211
	LOS_EvbKeyInit();
20004198:	f000 f802 	bl	200041a0 <LOS_EvbKeyInit>
C:\Users\nitin.deshpande\Documents\GitHub\microsemi-huawei-liteos\microsemi-liteos\mscc-huawei-wsp\sc-gd450i-board-test\Debug/../Platform-GD32F450i-EVAL/los_bsp_adapter.c:212
	return ;
2000419c:	bf00      	nop
C:\Users\nitin.deshpande\Documents\GitHub\microsemi-huawei-liteos\microsemi-liteos\mscc-huawei-wsp\sc-gd450i-board-test\Debug/../Platform-GD32F450i-EVAL/los_bsp_adapter.c:213
}
2000419e:	bd80      	pop	{r7, pc}

200041a0 <LOS_EvbKeyInit>:
LOS_EvbKeyInit():
C:\Users\nitin.deshpande\Documents\GitHub\microsemi-huawei-liteos\microsemi-liteos\mscc-huawei-wsp\sc-gd450i-board-test\Debug/../Platform-GD32F450i-EVAL/los_bsp_key.c:9
//#include "gd32f4xx.h"
#include "gd32f450i_eval.h"
#endif

void LOS_EvbKeyInit(void)
{
200041a0:	b580      	push	{r7, lr}
200041a2:	af00      	add	r7, sp, #0
C:\Users\nitin.deshpande\Documents\GitHub\microsemi-huawei-liteos\microsemi-liteos\mscc-huawei-wsp\sc-gd450i-board-test\Debug/../Platform-GD32F450i-EVAL/los_bsp_key.c:12
#ifdef GD32F4XX	
	/* configure User key */
  gd_eval_key_init(KEY_TAMPER, KEY_MODE_EXTI);  
200041a4:	2101      	movs	r1, #1
200041a6:	2001      	movs	r0, #1
200041a8:	f7ff f8a6 	bl	200032f8 <gd_eval_key_init>
C:\Users\nitin.deshpande\Documents\GitHub\microsemi-huawei-liteos\microsemi-liteos\mscc-huawei-wsp\sc-gd450i-board-test\Debug/../Platform-GD32F450i-EVAL/los_bsp_key.c:14
	
	gd_eval_led_init(LED2);
200041ac:	2001      	movs	r0, #1
200041ae:	f7ff f835 	bl	2000321c <gd_eval_led_init>
C:\Users\nitin.deshpande\Documents\GitHub\microsemi-huawei-liteos\microsemi-liteos\mscc-huawei-wsp\sc-gd450i-board-test\Debug/../Platform-GD32F450i-EVAL/los_bsp_key.c:17
#endif

	return ;
200041b2:	bf00      	nop
C:\Users\nitin.deshpande\Documents\GitHub\microsemi-huawei-liteos\microsemi-liteos\mscc-huawei-wsp\sc-gd450i-board-test\Debug/../Platform-GD32F450i-EVAL/los_bsp_key.c:18
}
200041b4:	bd80      	pop	{r7, pc}

200041b6 <LOS_EvbLedInit>:
LOS_EvbLedInit():
C:\Users\nitin.deshpande\Documents\GitHub\microsemi-huawei-liteos\microsemi-liteos\mscc-huawei-wsp\sc-gd450i-board-test\Debug/../Platform-GD32F450i-EVAL/los_bsp_led.c:9
//#include "gd32f4xx.h"
#include "gd32f450i_eval.h"
#endif

void LOS_EvbLedInit(void)
{
200041b6:	b580      	push	{r7, lr}
200041b8:	af00      	add	r7, sp, #0
C:\Users\nitin.deshpande\Documents\GitHub\microsemi-huawei-liteos\microsemi-liteos\mscc-huawei-wsp\sc-gd450i-board-test\Debug/../Platform-GD32F450i-EVAL/los_bsp_led.c:11
#ifdef GD32F4XX
	gd_eval_led_init(LED1);
200041ba:	2000      	movs	r0, #0
200041bc:	f7ff f82e 	bl	2000321c <gd_eval_led_init>
C:\Users\nitin.deshpande\Documents\GitHub\microsemi-huawei-liteos\microsemi-liteos\mscc-huawei-wsp\sc-gd450i-board-test\Debug/../Platform-GD32F450i-EVAL/los_bsp_led.c:12
	gd_eval_led_init(LED2);
200041c0:	2001      	movs	r0, #1
200041c2:	f7ff f82b 	bl	2000321c <gd_eval_led_init>
C:\Users\nitin.deshpande\Documents\GitHub\microsemi-huawei-liteos\microsemi-liteos\mscc-huawei-wsp\sc-gd450i-board-test\Debug/../Platform-GD32F450i-EVAL/los_bsp_led.c:13
	gd_eval_led_init(LED3);
200041c6:	2002      	movs	r0, #2
200041c8:	f7ff f828 	bl	2000321c <gd_eval_led_init>
C:\Users\nitin.deshpande\Documents\GitHub\microsemi-huawei-liteos\microsemi-liteos\mscc-huawei-wsp\sc-gd450i-board-test\Debug/../Platform-GD32F450i-EVAL/los_bsp_led.c:16
#endif

	return ;
200041cc:	bf00      	nop
C:\Users\nitin.deshpande\Documents\GitHub\microsemi-huawei-liteos\microsemi-liteos\mscc-huawei-wsp\sc-gd450i-board-test\Debug/../Platform-GD32F450i-EVAL/los_bsp_led.c:17
}
200041ce:	bd80      	pop	{r7, pc}

200041d0 <LOS_EvbLedControl>:
LOS_EvbLedControl():
C:\Users\nitin.deshpande\Documents\GitHub\microsemi-huawei-liteos\microsemi-liteos\mscc-huawei-wsp\sc-gd450i-board-test\Debug/../Platform-GD32F450i-EVAL/los_bsp_led.c:27
 *        (2) cmd   Led on or off                                                                *
 *  return : None                                                                                *
 *  discription:                                                                                 *
**************************************************************************************************/
void LOS_EvbLedControl(int index, int cmd)
{
200041d0:	b580      	push	{r7, lr}
200041d2:	b082      	sub	sp, #8
200041d4:	af00      	add	r7, sp, #0
200041d6:	6078      	str	r0, [r7, #4]
200041d8:	6039      	str	r1, [r7, #0]
C:\Users\nitin.deshpande\Documents\GitHub\microsemi-huawei-liteos\microsemi-liteos\mscc-huawei-wsp\sc-gd450i-board-test\Debug/../Platform-GD32F450i-EVAL/los_bsp_led.c:29
#ifdef GD32F4XX
    switch (index)
200041da:	687b      	ldr	r3, [r7, #4]
200041dc:	2b01      	cmp	r3, #1
200041de:	d00f      	beq.n	20004200 <LOS_EvbLedControl+0x30>
200041e0:	2b02      	cmp	r3, #2
200041e2:	d018      	beq.n	20004216 <LOS_EvbLedControl+0x46>
200041e4:	2b00      	cmp	r3, #0
200041e6:	d000      	beq.n	200041ea <LOS_EvbLedControl+0x1a>
C:\Users\nitin.deshpande\Documents\GitHub\microsemi-huawei-liteos\microsemi-liteos\mscc-huawei-wsp\sc-gd450i-board-test\Debug/../Platform-GD32F450i-EVAL/los_bsp_led.c:69
            }
            break;
        }
        default:
        {
            break;
200041e8:	e020      	b.n	2000422c <LOS_EvbLedControl+0x5c>
C:\Users\nitin.deshpande\Documents\GitHub\microsemi-huawei-liteos\microsemi-liteos\mscc-huawei-wsp\sc-gd450i-board-test\Debug/../Platform-GD32F450i-EVAL/los_bsp_led.c:33
            if (cmd == LED_ON)
200041ea:	683b      	ldr	r3, [r7, #0]
200041ec:	2b01      	cmp	r3, #1
200041ee:	d103      	bne.n	200041f8 <LOS_EvbLedControl+0x28>
C:\Users\nitin.deshpande\Documents\GitHub\microsemi-huawei-liteos\microsemi-liteos\mscc-huawei-wsp\sc-gd450i-board-test\Debug/../Platform-GD32F450i-EVAL/los_bsp_led.c:35
                gd_eval_led_on(LED1); /*led1 on */
200041f0:	2000      	movs	r0, #0
200041f2:	f7ff f84d 	bl	20003290 <gd_eval_led_on>
C:\Users\nitin.deshpande\Documents\GitHub\microsemi-huawei-liteos\microsemi-liteos\mscc-huawei-wsp\sc-gd450i-board-test\Debug/../Platform-GD32F450i-EVAL/los_bsp_led.c:41
            break;
200041f6:	e019      	b.n	2000422c <LOS_EvbLedControl+0x5c>
C:\Users\nitin.deshpande\Documents\GitHub\microsemi-huawei-liteos\microsemi-liteos\mscc-huawei-wsp\sc-gd450i-board-test\Debug/../Platform-GD32F450i-EVAL/los_bsp_led.c:39
                gd_eval_led_off(LED1); /*led1 off */
200041f8:	2000      	movs	r0, #0
200041fa:	f7ff f863 	bl	200032c4 <gd_eval_led_off>
C:\Users\nitin.deshpande\Documents\GitHub\microsemi-huawei-liteos\microsemi-liteos\mscc-huawei-wsp\sc-gd450i-board-test\Debug/../Platform-GD32F450i-EVAL/los_bsp_led.c:41
            break;
200041fe:	e015      	b.n	2000422c <LOS_EvbLedControl+0x5c>
C:\Users\nitin.deshpande\Documents\GitHub\microsemi-huawei-liteos\microsemi-liteos\mscc-huawei-wsp\sc-gd450i-board-test\Debug/../Platform-GD32F450i-EVAL/los_bsp_led.c:45
            if (cmd == LED_ON)
20004200:	683b      	ldr	r3, [r7, #0]
20004202:	2b01      	cmp	r3, #1
20004204:	d103      	bne.n	2000420e <LOS_EvbLedControl+0x3e>
C:\Users\nitin.deshpande\Documents\GitHub\microsemi-huawei-liteos\microsemi-liteos\mscc-huawei-wsp\sc-gd450i-board-test\Debug/../Platform-GD32F450i-EVAL/los_bsp_led.c:47
                gd_eval_led_on(LED2); /*led2 on */
20004206:	2001      	movs	r0, #1
20004208:	f7ff f842 	bl	20003290 <gd_eval_led_on>
C:\Users\nitin.deshpande\Documents\GitHub\microsemi-huawei-liteos\microsemi-liteos\mscc-huawei-wsp\sc-gd450i-board-test\Debug/../Platform-GD32F450i-EVAL/los_bsp_led.c:53
            break;
2000420c:	e00e      	b.n	2000422c <LOS_EvbLedControl+0x5c>
C:\Users\nitin.deshpande\Documents\GitHub\microsemi-huawei-liteos\microsemi-liteos\mscc-huawei-wsp\sc-gd450i-board-test\Debug/../Platform-GD32F450i-EVAL/los_bsp_led.c:51
                gd_eval_led_off(LED2); /*led2 off */
2000420e:	2001      	movs	r0, #1
20004210:	f7ff f858 	bl	200032c4 <gd_eval_led_off>
C:\Users\nitin.deshpande\Documents\GitHub\microsemi-huawei-liteos\microsemi-liteos\mscc-huawei-wsp\sc-gd450i-board-test\Debug/../Platform-GD32F450i-EVAL/los_bsp_led.c:53
            break;
20004214:	e00a      	b.n	2000422c <LOS_EvbLedControl+0x5c>
C:\Users\nitin.deshpande\Documents\GitHub\microsemi-huawei-liteos\microsemi-liteos\mscc-huawei-wsp\sc-gd450i-board-test\Debug/../Platform-GD32F450i-EVAL/los_bsp_led.c:57
            if (cmd == LED_ON)
20004216:	683b      	ldr	r3, [r7, #0]
20004218:	2b01      	cmp	r3, #1
2000421a:	d103      	bne.n	20004224 <LOS_EvbLedControl+0x54>
C:\Users\nitin.deshpande\Documents\GitHub\microsemi-huawei-liteos\microsemi-liteos\mscc-huawei-wsp\sc-gd450i-board-test\Debug/../Platform-GD32F450i-EVAL/los_bsp_led.c:59
                gd_eval_led_on(LED3); /*led3 on */
2000421c:	2002      	movs	r0, #2
2000421e:	f7ff f837 	bl	20003290 <gd_eval_led_on>
C:\Users\nitin.deshpande\Documents\GitHub\microsemi-huawei-liteos\microsemi-liteos\mscc-huawei-wsp\sc-gd450i-board-test\Debug/../Platform-GD32F450i-EVAL/los_bsp_led.c:65
            break;
20004222:	e002      	b.n	2000422a <LOS_EvbLedControl+0x5a>
C:\Users\nitin.deshpande\Documents\GitHub\microsemi-huawei-liteos\microsemi-liteos\mscc-huawei-wsp\sc-gd450i-board-test\Debug/../Platform-GD32F450i-EVAL/los_bsp_led.c:63
                gd_eval_led_off(LED3); /*led3 off */
20004224:	2002      	movs	r0, #2
20004226:	f7ff f84d 	bl	200032c4 <gd_eval_led_off>
C:\Users\nitin.deshpande\Documents\GitHub\microsemi-huawei-liteos\microsemi-liteos\mscc-huawei-wsp\sc-gd450i-board-test\Debug/../Platform-GD32F450i-EVAL/los_bsp_led.c:65
            break;
2000422a:	bf00      	nop
C:\Users\nitin.deshpande\Documents\GitHub\microsemi-huawei-liteos\microsemi-liteos\mscc-huawei-wsp\sc-gd450i-board-test\Debug/../Platform-GD32F450i-EVAL/los_bsp_led.c:73 (discriminator 1)
        }
    }
#endif
	return ;
2000422c:	bf00      	nop
C:\Users\nitin.deshpande\Documents\GitHub\microsemi-huawei-liteos\microsemi-liteos\mscc-huawei-wsp\sc-gd450i-board-test\Debug/../Platform-GD32F450i-EVAL/los_bsp_led.c:74 (discriminator 1)
}
2000422e:	3708      	adds	r7, #8
20004230:	46bd      	mov	sp, r7
20004232:	bd80      	pop	{r7, pc}

20004234 <led_init>:
led_init():
C:\Users\nitin.deshpande\Documents\GitHub\microsemi-huawei-liteos\microsemi-liteos\mscc-huawei-wsp\sc-gd450i-board-test\Debug/../Platform-GD32F450i-EVAL/los_bsp_uart.c:22
    \param[in]  none
    \param[out] none
    \retval     none
*/
void led_init(void)
{
20004234:	b580      	push	{r7, lr}
20004236:	af00      	add	r7, sp, #0
C:\Users\nitin.deshpande\Documents\GitHub\microsemi-huawei-liteos\microsemi-liteos\mscc-huawei-wsp\sc-gd450i-board-test\Debug/../Platform-GD32F450i-EVAL/los_bsp_uart.c:25
    //gd_eval_led_init(LED1);
    //gd_eval_led_init(LED2);
    gd_eval_led_init(LED3);
20004238:	2002      	movs	r0, #2
2000423a:	f7fe ffef 	bl	2000321c <gd_eval_led_init>
C:\Users\nitin.deshpande\Documents\GitHub\microsemi-huawei-liteos\microsemi-liteos\mscc-huawei-wsp\sc-gd450i-board-test\Debug/../Platform-GD32F450i-EVAL/los_bsp_uart.c:26
}
2000423e:	bf00      	nop
20004240:	bd80      	pop	{r7, pc}
	...

20004244 <LOS_EvbUartInit>:
LOS_EvbUartInit():
C:\Users\nitin.deshpande\Documents\GitHub\microsemi-huawei-liteos\microsemi-liteos\mscc-huawei-wsp\sc-gd450i-board-test\Debug/../Platform-GD32F450i-EVAL/los_bsp_uart.c:64
 Input       : None
 Output      : None
 Return      : None
 *****************************************************************************/
void LOS_EvbUartInit(void)
{
20004244:	b580      	push	{r7, lr}
20004246:	af00      	add	r7, sp, #0
C:\Users\nitin.deshpande\Documents\GitHub\microsemi-huawei-liteos\microsemi-liteos\mscc-huawei-wsp\sc-gd450i-board-test\Debug/../Platform-GD32F450i-EVAL/los_bsp_uart.c:67
#ifdef GD32F4XX	
	  /* initialize the LEDs */
    led_init();
20004248:	f7ff fff4 	bl	20004234 <led_init>
C:\Users\nitin.deshpande\Documents\GitHub\microsemi-huawei-liteos\microsemi-liteos\mscc-huawei-wsp\sc-gd450i-board-test\Debug/../Platform-GD32F450i-EVAL/los_bsp_uart.c:78
	 * getting called before OSStarts.*/
//    /* flash the LEDs for 1 time */
//    led_flash(1);
    
    /* configure EVAL_COM1 */
    gd_eval_com_init(EVAL_COM1);
2000424c:	4804      	ldr	r0, [pc, #16]	; (20004260 <LOS_EvbUartInit+0x1c>)
2000424e:	f7ff f8a9 	bl	200033a4 <gd_eval_com_init>
C:\Users\nitin.deshpande\Documents\GitHub\microsemi-huawei-liteos\microsemi-liteos\mscc-huawei-wsp\sc-gd450i-board-test\Debug/../Platform-GD32F450i-EVAL/los_bsp_uart.c:81
    
    /* configure TAMPER key */
    gd_eval_key_init(KEY_USER, KEY_MODE_GPIO);  
20004252:	2100      	movs	r1, #0
20004254:	2002      	movs	r0, #2
20004256:	f7ff f84f 	bl	200032f8 <gd_eval_key_init>
C:\Users\nitin.deshpande\Documents\GitHub\microsemi-huawei-liteos\microsemi-liteos\mscc-huawei-wsp\sc-gd450i-board-test\Debug/../Platform-GD32F450i-EVAL/los_bsp_uart.c:84
	
#endif
		return;
2000425a:	bf00      	nop
C:\Users\nitin.deshpande\Documents\GitHub\microsemi-huawei-liteos\microsemi-liteos\mscc-huawei-wsp\sc-gd450i-board-test\Debug/../Platform-GD32F450i-EVAL/los_bsp_uart.c:85
}
2000425c:	bd80      	pop	{r7, pc}
2000425e:	bf00      	nop
20004260:	40011000 	.word	0x40011000

20004264 <LOS_EvbUartWriteStr>:
LOS_EvbUartWriteStr():
C:\Users\nitin.deshpande\Documents\GitHub\microsemi-huawei-liteos\microsemi-liteos\mscc-huawei-wsp\sc-gd450i-board-test\Debug/../Platform-GD32F450i-EVAL/los_bsp_uart.c:147
 Input       : None
 Output      : None
 Return      : None
 *****************************************************************************/
void LOS_EvbUartWriteStr(const char* str)
{
20004264:	b580      	push	{r7, lr}
20004266:	b082      	sub	sp, #8
20004268:	af00      	add	r7, sp, #0
2000426a:	6078      	str	r0, [r7, #4]
C:\Users\nitin.deshpande\Documents\GitHub\microsemi-huawei-liteos\microsemi-liteos\mscc-huawei-wsp\sc-gd450i-board-test\Debug/../Platform-GD32F450i-EVAL/los_bsp_uart.c:149
#ifdef GD32F4XX
    while (*str)
2000426c:	e010      	b.n	20004290 <LOS_EvbUartWriteStr+0x2c>
C:\Users\nitin.deshpande\Documents\GitHub\microsemi-huawei-liteos\microsemi-liteos\mscc-huawei-wsp\sc-gd450i-board-test\Debug/../Platform-GD32F450i-EVAL/los_bsp_uart.c:151
    {
        usart_data_transmit(EVAL_COM1, * str++);
2000426e:	687b      	ldr	r3, [r7, #4]
20004270:	1c5a      	adds	r2, r3, #1
20004272:	607a      	str	r2, [r7, #4]
20004274:	f993 3000 	ldrsb.w	r3, [r3]
20004278:	4619      	mov	r1, r3
2000427a:	480e      	ldr	r0, [pc, #56]	; (200042b4 <LOS_EvbUartWriteStr+0x50>)
2000427c:	f7ff fe1f 	bl	20003ebe <usart_data_transmit>
C:\Users\nitin.deshpande\Documents\GitHub\microsemi-huawei-liteos\microsemi-liteos\mscc-huawei-wsp\sc-gd450i-board-test\Debug/../Platform-GD32F450i-EVAL/los_bsp_uart.c:152
        while (RESET == usart_flag_get(EVAL_COM1,USART_FLAG_TBE));
20004280:	bf00      	nop
C:\Users\nitin.deshpande\Documents\GitHub\microsemi-huawei-liteos\microsemi-liteos\mscc-huawei-wsp\sc-gd450i-board-test\Debug/../Platform-GD32F450i-EVAL/los_bsp_uart.c:152 (discriminator 1)
20004282:	2107      	movs	r1, #7
20004284:	480b      	ldr	r0, [pc, #44]	; (200042b4 <LOS_EvbUartWriteStr+0x50>)
20004286:	f7ff fe2c 	bl	20003ee2 <usart_flag_get>
2000428a:	4603      	mov	r3, r0
2000428c:	2b00      	cmp	r3, #0
2000428e:	d0f8      	beq.n	20004282 <LOS_EvbUartWriteStr+0x1e>
C:\Users\nitin.deshpande\Documents\GitHub\microsemi-huawei-liteos\microsemi-liteos\mscc-huawei-wsp\sc-gd450i-board-test\Debug/../Platform-GD32F450i-EVAL/los_bsp_uart.c:149
    while (*str)
20004290:	687b      	ldr	r3, [r7, #4]
20004292:	f993 3000 	ldrsb.w	r3, [r3]
20004296:	2b00      	cmp	r3, #0
20004298:	d1e9      	bne.n	2000426e <LOS_EvbUartWriteStr+0xa>
C:\Users\nitin.deshpande\Documents\GitHub\microsemi-huawei-liteos\microsemi-liteos\mscc-huawei-wsp\sc-gd450i-board-test\Debug/../Platform-GD32F450i-EVAL/los_bsp_uart.c:155
    }
		
		while(RESET == usart_flag_get(EVAL_COM1, USART_FLAG_TC)){
2000429a:	bf00      	nop
C:\Users\nitin.deshpande\Documents\GitHub\microsemi-huawei-liteos\microsemi-liteos\mscc-huawei-wsp\sc-gd450i-board-test\Debug/../Platform-GD32F450i-EVAL/los_bsp_uart.c:155 (discriminator 1)
2000429c:	2106      	movs	r1, #6
2000429e:	4805      	ldr	r0, [pc, #20]	; (200042b4 <LOS_EvbUartWriteStr+0x50>)
200042a0:	f7ff fe1f 	bl	20003ee2 <usart_flag_get>
200042a4:	4603      	mov	r3, r0
200042a6:	2b00      	cmp	r3, #0
200042a8:	d0f8      	beq.n	2000429c <LOS_EvbUartWriteStr+0x38>
C:\Users\nitin.deshpande\Documents\GitHub\microsemi-huawei-liteos\microsemi-liteos\mscc-huawei-wsp\sc-gd450i-board-test\Debug/../Platform-GD32F450i-EVAL/los_bsp_uart.c:158
		}
#endif
}
200042aa:	bf00      	nop
200042ac:	3708      	adds	r7, #8
200042ae:	46bd      	mov	sp, r7
200042b0:	bd80      	pop	{r7, pc}
200042b2:	bf00      	nop
200042b4:	40011000 	.word	0x40011000

200042b8 <memset>:
memset():
200042b8:	4402      	add	r2, r0
200042ba:	4603      	mov	r3, r0
200042bc:	4293      	cmp	r3, r2
200042be:	d100      	bne.n	200042c2 <memset+0xa>
200042c0:	4770      	bx	lr
200042c2:	f803 1b01 	strb.w	r1, [r3], #1
200042c6:	e7f9      	b.n	200042bc <memset+0x4>
	...
200042d0:	74666f53 	.word	0x74666f53
200042d4:	736e6f43 	.word	0x736e6f43
200042d8:	20656c6f 	.word	0x20656c6f
200042dc:	6e6e7572 	.word	0x6e6e7572
200042e0:	20676e69 	.word	0x20676e69
200042e4:	47206e6f 	.word	0x47206e6f
200042e8:	30353444 	.word	0x30353444
200042ec:	616f6220 	.word	0x616f6220
200042f0:	000a6472 	.word	0x000a6472
200042f4:	72616f42 	.word	0x72616f42
200042f8:	6d654464 	.word	0x6d654464
200042fc:	0000006f 	.word	0x0000006f
20004300:	5f747753 	.word	0x5f747753
20004304:	6b736154 	.word	0x6b736154
20004308:	00000000 	.word	0x00000000
2000430c:	656c6449 	.word	0x656c6449
20004310:	65726f43 	.word	0x65726f43
20004314:	00303030 	.word	0x00303030
	...
20004320:	04030201 	.word	0x04030201
20004324:	09080706 	.word	0x09080706
20004328:	00000000 	.word	0x00000000
2000432c:	04030201 	.word	0x04030201

20004330 <g_use_ram_vect>:
20004330:	00000000                                ....

20004334 <_init>:
_init():
20004334:	b5f8      	push	{r3, r4, r5, r6, r7, lr}
20004336:	bf00      	nop
20004338:	bcf8      	pop	{r3, r4, r5, r6, r7}
2000433a:	bc08      	pop	{r3}
2000433c:	469e      	mov	lr, r3
2000433e:	4770      	bx	lr

20004340 <_fini>:
_fini():
20004340:	b5f8      	push	{r3, r4, r5, r6, r7, lr}
20004342:	bf00      	nop
20004344:	bcf8      	pop	{r3, r4, r5, r6, r7}
20004346:	bc08      	pop	{r3}
20004348:	469e      	mov	lr, r3
2000434a:	4770      	bx	lr

2000434c <__frame_dummy_init_array_entry>:
__preinit_array_start():
2000434c:	02a5 2000                                   ... 

20004350 <__do_global_dtors_aux_fini_array_entry>:
__init_array_end():
20004350:	0281 2000 0000 0000 0000 0000 0000 0000     ... ............
